 RITM_test_RT1007_slrt

 Timestamp is 6013c1ed (Fri Jan 29 11:06:05 2021)

 Preferred load address is 10000000

 Start         Length     Name                   Class
 0001:00000000 0008d970H .text$mn                CODE
 0001:0008d970 00001058H .text$x                 CODE
 0002:00000000 00000104H .CRT$XCA                DATA
 0002:00000104 00000104H .CRT$XCZ                DATA
 0002:00000208 00000104H .CRT$XIA                DATA
 0002:0000030c 00000110H .CRT$XIC                DATA
 0002:0000041c 00000104H .CRT$XIZ                DATA
 0002:00000520 00000104H .CRT$XPA                DATA
 0002:00000624 0000010cH .CRT$XPX                DATA
 0002:00000730 00000104H .CRT$XPXA               DATA
 0002:00000834 00000104H .CRT$XPZ                DATA
 0002:00000938 00000104H .CRT$XTA                DATA
 0002:00000a3c 00000104H .CRT$XTZ                DATA
 0002:00000b40 00015dc0H .rdata                  DATA
 0002:00016900 00000104H .rdata$CastGuardVftablesA DATA
 0002:00016a04 00000104H .rdata$CastGuardVftablesC DATA
 0002:00016b08 00000444H .rdata$r                DATA
 0002:00016f4c 00000124H .rdata$sxdata           DATA
 0002:00017070 000001b8H .rdata$zzzdbg           DATA
 0002:00017228 00000104H .rtc$IAA                DATA
 0002:0001732c 00000104H .rtc$IZZ                DATA
 0002:00017430 00000104H .rtc$TAA                DATA
 0002:00017534 00000104H .rtc$TZZ                DATA
 0002:00017638 00000d78H .xdata$x                DATA
 0002:000183b0 0000020aH .edata                  DATA
 0003:00000000 00002180H .data                   DATA
 0003:00002180 00000260H .data$r                 DATA
 0003:000023e0 0001c16cH .bss                    DATA
 0004:00000000 000001b8H .idata$5                DATA
 0004:000001b8 00000014H .idata$2                DATA
 0004:000001cc 00000014H .idata$3                DATA
 0004:000001e0 000001b8H .idata$4                DATA
 0004:00000398 000007b4H .idata$6                DATA
 0005:00000000 00000109H .00cfg                  DATA

  Address         Publics by Value              Rva+Base       Lib:Object

 0000:00000000       ___guard_iat_count         00000000     <absolute>
 0000:00000000       ___arm64x_native_entrypoint 00000000     <absolute>
 0000:00000000       ___hybrid_code_map         00000000     <absolute>
 0000:00000000       ___guard_longjmp_table     00000000     <absolute>
 0000:00000000       ___guard_fids_count        00000000     <absolute>
 0000:00000000       ___AbsoluteZero            00000000     <absolute>
 0000:00000000       __except_list              00000000     <absolute>
 0000:00000000       ___x64_code_ranges_to_entry_points 00000000     <absolute>
 0000:00000000       ___hybrid_code_map_count   00000000     <absolute>
 0000:00000000       ___arm64x_extra_rfe_table_size 00000000     <absolute>
 0000:00000000       ___arm64x_redirection_metadata 00000000     <absolute>
 0000:00000000       ___arm64x_redirection_metadata_count 00000000     <absolute>
 0000:00000000       ___dynamic_value_reloc_table 00000000     <absolute>
 0000:00000000       ___hybrid_auxiliary_iat    00000000     <absolute>
 0000:00000000       ___arm64x_extra_rfe_table  00000000     <absolute>
 0000:00000000       ___guard_iat_table         00000000     <absolute>
 0000:00000000       ___volatile_metadata       00000000     <absolute>
 0000:00000000       ___guard_eh_cont_count     00000000     <absolute>
 0000:00000000       ___guard_longjmp_count     00000000     <absolute>
 0000:00000000       ___guard_fids_table        00000000     <absolute>
 0000:00000000       ___x64_code_ranges_to_entry_points_count 00000000     <absolute>
 0000:00000000       ___guard_eh_cont_table     00000000     <absolute>
 0000:00000000       ___enclave_config          00000000     <absolute>
 0000:00000007       ___safe_se_handler_count   00000007     <absolute>
 0000:00000100       ___guard_flags             00000100     <absolute>
 0000:00000000       ___ImageBase               10000000     <linker-defined>
 0001:00007550       _DllMain@12                10008550 f   xpctarget.obj
 0001:00007560       _RITM_test_RT1007_ChangeStepSize 10008560 f   xpctarget.obj
 0001:000075e0       _SLRTSetErrorStatus        100085e0 f   xpctarget.obj
 0001:00007600       _changeStepSize            10008600 f   xpctarget.obj
 0001:00007680       _getDLMVersion             10008680 f   xpctarget.obj
 0001:00007690       _getFullPathToRefMdl       10008690 f   xpctarget.obj
 0001:00007740       _getRefMdlPath             10008740 f   xpctarget.obj
 0001:000077c0       _getRefMdlSignalNumber     100087c0 f   xpctarget.obj
 0001:00007870       _getrlmdlinfo              10008870 f   xpctarget.obj
 0001:000079d0       _slrtRegisterSignalToLoggingService 100089d0 f   xpctarget.obj
 0001:00007b30       _updateDiscreteEvents      10008b30 f   xpctarget.obj
 0001:00007b90       _getNumRef                 10008b90 f   appmappingData.obj
 0001:00007ba0       ___local_stdio_printf_options 10008ba0 f i legacy_stdio.obj
 0001:00007bb0       __vfprintf_l               10008bb0 f i legacy_stdio.obj
 0001:00007be0       _vprintf                   10008be0 f i legacy_stdio.obj
 0001:00007c20       _rt_mxCreateCharMatrixFromStrings 10008c20 f   rt_matrx.obj
 0001:00007d80       _rt_mxCreateDoubleMatrix   10008d80 f   rt_matrx.obj
 0001:00007de0       _rt_mxCreateNumericArray   10008de0 f   rt_matrx.obj
 0001:00007e50       _rt_mxCreateString         10008e50 f   rt_matrx.obj
 0001:00007ee0       _rt_mxDuplicateArray       10008ee0 f   rt_matrx.obj
 0001:00007f40       _rt_mxGetDimensions        10008f40 f   rt_matrx.obj
 0001:00007f80       _rt_mxGetEps               10008f80 f   rt_matrx.obj
 0001:00007f90       _rt_mxGetString            10008f90 f   rt_matrx.obj
 0001:00008010       _rtPrintfNoOp              10009010 f   rt_printf.obj
 0001:00008020       __vsnprintf_l              10009020 f i rt_logging.obj
 0001:00008060       __vsprintf_l               10009060 f i rt_logging.obj
 0001:000080a0       _fprintf                   100090a0 f i rt_logging.obj
 0001:000085a0       _printf                    100095a0 f i rt_logging.obj
 0001:000085e0       _rt_CreateLogVar           100095e0 f   rt_logging.obj
 0001:00008670       _rt_CreateLogVarWithConvert 10009670 f   rt_logging.obj
 0001:00008fa0       _rt_CreateStructLogVar     10009fa0 f   rt_logging.obj
 0001:00009da0       _rt_GetMxIdFromDTypeId     1000ada0 f   rt_logging.obj
 0001:00009dd0       _rt_GetMxIdFromDTypeIdForRSim 1000add0 f   rt_logging.obj
 0001:0000c960       _rt_StartDataLogging       1000d960 f   rt_logging.obj
 0001:0000ce30       _rt_StartDataLoggingWithStartTime 1000de30 f   rt_logging.obj
 0001:0000d2b0       _rt_StopDataLogging        1000e2b0 f   rt_logging.obj
 0001:0000d2d0       _rt_StopDataLoggingImpl    1000e2d0 f   rt_logging.obj
 0001:0000d9e0       _rt_UpdateLogVar           1000e9e0 f   rt_logging.obj
 0001:0000e9b0       _rt_UpdateLogVarWithDiscontiguousData 1000f9b0 f   rt_logging.obj
 0001:0000ec80       _rt_UpdateStructLogVar     1000fc80 f   rt_logging.obj
 0001:0000ed10       _rt_UpdateTXXFYLogVars     1000fd10 f   rt_logging.obj
 0001:0000f160       _rt_UpdateTXYLogVars       10010160 f   rt_logging.obj
 0001:0000f3a0       _rt_getTempMemory          100103a0 f   rt_logging.obj
 0001:0000f3f0       _rt_preProcessAndLogData   100103f0 f   rt_logging.obj
 0001:0000f490       _rt_preProcessAndLogDataWithIndex 10010490 f   rt_logging.obj
 0001:0000f540       _sprintf                   10010540 f i rt_logging.obj
 0001:0000f580       _MdlInitialize             10010580 f   RITM_test_RT1007.obj
 0001:0000f590       _MdlInitializeSampleTimes  10010590 f   RITM_test_RT1007.obj
 0001:0000f5a0       _MdlInitializeSizes        100105a0 f   RITM_test_RT1007.obj
 0001:0000f5b0       _MdlOutputs                100105b0 f   RITM_test_RT1007.obj
 0001:0000f7d0       _MdlStart                  100107d0 f   RITM_test_RT1007.obj
 0001:0000f7e0       _MdlTerminate              100107e0 f   RITM_test_RT1007.obj
 0001:0000f7f0       _MdlUpdate                 100107f0 f   RITM_test_RT1007.obj
 0001:0000fb00       _RITM_test_RT1007          10010b00 f   RITM_test_RT1007.obj
 0001:00014a50       _RITM_test_RT1007_RS232ISR 10015a50 f   RITM_test_RT1007.obj
 0001:00014e00       _RITM_test_RT1007_RS232ISR_j 10015e00 f   RITM_test_RT1007.obj
 0001:000186e0       _RITM_test_RT1_RS232ISR_Term 100196e0 f   RITM_test_RT1007.obj
 0001:00018710       _RITM_test_RT_RS232ISR_Start 10019710 f   RITM_test_RT1007.obj
 0001:000189b0       _RITM_test_R_RS232ISR_j_Term 100199b0 f   RITM_test_RT1007.obj
 0001:000189e0       _RITM_test__RS232ISR_k_Start 100199e0 f   RITM_test_RT1007.obj
 0001:00018c80       _rate_scheduler            10019c80 f   RITM_test_RT1007.obj
 0001:00018cc0       _rt_SimUpdateDiscreteEvents 10019cc0 f   RITM_test_RT1007.obj
 0001:00018d00       _xPCISR1                   10019d00 f   RITM_test_RT1007.obj
 0001:00018f20       _xPCISR2                   10019f20 f   RITM_test_RT1007.obj
 0001:00019140       _RITM_test_RT1007_GetCAPIStaticMap 1001a140 f   RITM_test_RT1007_capi.obj
 0001:00019150       _RITM_test_RT1007_InitializeDataMapInfo 1001a150 f   RITM_test_RT1007_capi.obj
 0001:00019220       _mdlXcp_GetMdlXcpInfo      1001a220 f   RITM_test_RT1007_xcp.obj
 0001:00019230       _SLRT_update_TET           1001a230 f   RITM_test_RT1007_xcp_TET.obj
 0001:00019300       _rtGetInf                  1001a300 f   rtGetInf.obj
 0001:00019330       _rtGetInfF                 1001a330 f   rtGetInf.obj
 0001:00019340       _rtGetMinusInf             1001a340 f   rtGetInf.obj
 0001:00019370       _rtGetMinusInfF            1001a370 f   rtGetInf.obj
 0001:00019380       _rtGetNaN                  1001a380 f   rtGetNaN.obj
 0001:000193b0       _rtGetNaNF                 1001a3b0 f   rtGetNaN.obj
 0001:000193c0       _rtIsInf                   1001a3c0 f   rt_nonfinite.obj
 0001:00019400       _rtIsInfF                  1001a400 f   rt_nonfinite.obj
 0001:00019440       _rtIsNaN                   1001a440 f   rt_nonfinite.obj
 0001:00019490       _rtIsNaNF                  1001a490 f   rt_nonfinite.obj
 0001:000194d0       _rt_InitInfAndNaN          1001a4d0 f   rt_nonfinite.obj
 0001:00019530       _fiforead                  1001a530 f   fiforeadwrite.obj
 0001:000198a0       _fifowrite                 1001a8a0 f   fiforeadwrite.obj
 0001:00019b00       _rt_CleanUpForStateLogWithMMI 1001ab00 f   rt_logging_mmi.obj
 0001:00019c10       _rt_FillStateSigInfoFromMMI 1001ac10 f   rt_logging_mmi.obj
 0001:0001a060       _rtwCAPI_CountSysRan       1001b060 f   rtw_modelmap_utils.obj
 0001:0001a100       _rtwCAPI_EncodePath        1001b100 f   rtw_modelmap_utils.obj
 0001:0001a1a0       _rtwCAPI_FillSysRan        1001b1a0 f   rtw_modelmap_utils.obj
 0001:0001a290       _rtwCAPI_FreeFullPaths     1001b290 f   rtw_modelmap_utils.obj
 0001:0001a2f0       _rtwCAPI_GetFullStateBlockPath 1001b2f0 f   rtw_modelmap_utils.obj
 0001:0001a470       _rtwCAPI_GetNumContStateRecords 1001b470 f   rtw_modelmap_utils.obj
 0001:0001a4f0       _rtwCAPI_GetNumSigLogRecords 1001b4f0 f   rtw_modelmap_utils.obj
 0001:0001a540       _rtwCAPI_GetNumSigLogRecordsForRTWLogging 1001b540 f   rtw_modelmap_utils.obj
 0001:0001a5e0       _rtwCAPI_GetNumStateRecords 1001b5e0 f   rtw_modelmap_utils.obj
 0001:0001a630       _rtwCAPI_GetNumStateRecordsForRTWLogging 1001b630 f   rtw_modelmap_utils.obj
 0001:0001a6d0       _rtwCAPI_GetSigAddrFromMap 1001b6d0 f   rtw_modelmap_utils.obj
 0001:0001a710       _rtwCAPI_GetSigLogRecordInfo 1001b710 f   rtw_modelmap_utils.obj
 0001:0001aaa0       _rtwCAPI_GetStateRecordInfo 1001baa0 f   rtw_modelmap_utils.obj
 0001:0001af30       _rtwCAPI_GetStateWidth     1001bf30 f   rtw_modelmap_utils.obj
 0001:0001af80       _rtwCAPI_HasStates         1001bf80 f   rtw_modelmap_utils.obj
 0001:0001afe0       _rtwCAPI_UpdateFullPaths   1001bfe0 f   rtw_modelmap_utils.obj
 0001:0001b120       _timestamp_x86             1001c120 f   host_timer_x86.obj
 0001:0001b130       _taskTimeEnd               1001c130 f   xpc_code_profiling_utility_functions.obj
 0001:0001b140       _taskTimeEnd_              1001c140 f   xpc_code_profiling_utility_functions.obj
 0001:0001b150       _taskTimeStart             1001c150 f   xpc_code_profiling_utility_functions.obj
 0001:0001b160       _taskTimeStart_            1001c160 f   xpc_code_profiling_utility_functions.obj
 0001:0001b170       _xilProfilingTimerFreeze   1001c170 f   xpc_code_profiling_utility_functions.obj
 0001:0001b180       _xilProfilingTimerFreezeInternal 1001c180 f   xpc_code_profiling_utility_functions.obj
 0001:0001b190       _xilProfilingTimerUnFreeze 1001c190 f   xpc_code_profiling_utility_functions.obj
 0001:0001b1a0       _xilProfilingTimerUnFreezeInternal 1001c1a0 f   xpc_code_profiling_utility_functions.obj
 0001:0001b1b0       _xilUploadProfilingData    1001c1b0 f   xpc_code_profiling_utility_functions.obj
 0001:0001b1c0       _BA_IS_cap                 1001c1c0 f   BA_IS_cap.obj
 0001:0001b490       _BA_IS_gpio_di             1001c490 f   BA_IS_gpio_di.obj
 0001:0001b870       _BA_IS_gpio_do             1001c870 f   BA_IS_gpio_do.obj
 0001:0001bc40       _BA_IS_i2c_read            1001cc40 f   BA_IS_i2c_read.obj
 0001:0001c030       _BA_IS_pwm                 1001d030 f   BA_IS_pwm.obj
 0001:0001c350       _BA_IS_spi                 1001d350 f   BA_IS_spi.obj
 0001:0001c770       _BA_IS_uart_rx             1001d770 f   BA_IS_uart_rx.obj
 0001:0001caf0       _BA_IS_uart_setup          1001daf0 f   BA_IS_uart_setup.obj
 0001:0001cdd0       _BA_IS_uart_tx             1001ddd0 f   BA_IS_uart_tx.obj
 0001:0001d160       _CA_MA_rx                  1001e160 f   CA_MA_rx.obj
 0001:0001d3a0       _CA_MA_setup               1001e3a0 f   CA_MA_setup.obj
 0001:0001d850       _CA_MA_status              1001e850 f   CA_MA_status.obj
 0001:0001da70       _CA_MA_tx                  1001ea70 f   CA_MA_tx.obj
 0001:0001dce0       ___local_stdio_scanf_options 1001ece0 f i asciidecode.obj
 0001:0001dcf0       __vsscanf_l                1001ecf0 f i asciidecode.obj
 0001:0001dd20       _asciidecode               1001ed20 f   asciidecode.obj
 0001:0001e7e0       _sscanf                    1001f7e0 f i asciidecode.obj
 0001:0001e810       _asciiencode               1001f810 f   asciiencode.obj
 0001:0001f6a0       _sersetupbase              100206a0 f   sersetupbase.obj
 0001:0001f6f0       _GetPCIDeviceFull          100206f0 f   xpcruntime:xpcimports.obj
 0001:0001f860       _GetPCIDeviceFunction      10020860 f   xpcruntime:xpcimports.obj
 0001:0001f9d0       _ShowPCIDevice             100209d0 f   xpcruntime:xpcimports.obj
 0001:00020000       _slrtGetPciConfigAtFunction 10021000 f   xpcruntime:xpcimports.obj
 0001:00020370       _xpcGetPciConfigAtSlot     10021370 f   xpcruntime:xpcimports.obj
 0001:00020390       _xpcInitProcs              10021390 f   xpcruntime:xpcimports.obj
 0001:00021dc0       _xpceuploadevent           10022dc0 f   xpcruntime:xpcimports.obj
 0001:00021dd0       _bais_boardInit            10022dd0 f   BA_IS_lib:BA_IS_lib.obj
 0001:00021f70       _bais_bpi_flash            10022f70 f   BA_IS_lib:BA_IS_lib.obj
 0001:00022570       _bais_cap                  10023570 f   BA_IS_lib:BA_IS_lib.obj
 0001:00022620       _bais_cap_stop             10023620 f   BA_IS_lib:BA_IS_lib.obj
 0001:00022630       _bais_capuart              10023630 f   BA_IS_lib:BA_IS_lib.obj
 0001:000226d0       _bais_capuart_start        100236d0 f   BA_IS_lib:BA_IS_lib.obj
 0001:000226e0       _bais_capuart_stop         100236e0 f   BA_IS_lib:BA_IS_lib.obj
 0001:000226f0       _bais_dma                  100236f0 f   BA_IS_lib:BA_IS_lib.obj
 0001:00022f00       _bais_dma_read             10023f00 f   BA_IS_lib:BA_IS_lib.obj
 0001:00023030       _bais_dma_setup            10024030 f   BA_IS_lib:BA_IS_lib.obj
 0001:00023480       _bais_dma_stop             10024480 f   BA_IS_lib:BA_IS_lib.obj
 0001:00023540       _bais_fc_tx                10024540 f   BA_IS_lib:BA_IS_lib.obj
 0001:000235e0       _bais_fc_tx_rst            100245e0 f   BA_IS_lib:BA_IS_lib.obj
 0001:00023630       _bais_flash                10024630 f   BA_IS_lib:BA_IS_lib.obj
 0001:00024360       _bais_gpio_di              10025360 f   BA_IS_lib:BA_IS_lib.obj
 0001:000243a0       _bais_gpio_do              100253a0 f   BA_IS_lib:BA_IS_lib.obj
 0001:000243d0       _bais_gpio_setup           100253d0 f   BA_IS_lib:BA_IS_lib.obj
 0001:00024490       _bais_gpio_stop            10025490 f   BA_IS_lib:BA_IS_lib.obj
 0001:000244d0       _bais_gth_setup            100254d0 f   BA_IS_lib:BA_IS_lib.obj
 0001:00025230       _bais_i2c_master_read      10026230 f   BA_IS_lib:BA_IS_lib.obj
 0001:00025350       _bais_i2c_master_write     10026350 f   BA_IS_lib:BA_IS_lib.obj
 0001:00025450       _bais_i2c_setup            10026450 f   BA_IS_lib:BA_IS_lib.obj
 0001:000254d0       _bais_i2c_slave_read       100264d0 f   BA_IS_lib:BA_IS_lib.obj
 0001:00025560       _bais_i2c_slave_write      10026560 f   BA_IS_lib:BA_IS_lib.obj
 0001:00025630       _bais_i2c_stop             10026630 f   BA_IS_lib:BA_IS_lib.obj
 0001:00025a20       _bais_pci_read             10026a20 f   BA_IS_lib:BA_IS_lib.obj
 0001:00025a90       _bais_pci_setup            10026a90 f   BA_IS_lib:BA_IS_lib.obj
 0001:00025d70       _bais_pci_stop             10026d70 f   BA_IS_lib:BA_IS_lib.obj
 0001:00025db0       _bais_pci_write            10026db0 f   BA_IS_lib:BA_IS_lib.obj
 0001:00025e30       _bais_pwm                  10026e30 f   BA_IS_lib:BA_IS_lib.obj
 0001:00025f10       _bais_pwm_stop             10026f10 f   BA_IS_lib:BA_IS_lib.obj
 0001:00025f60       _bais_pwmuart              10026f60 f   BA_IS_lib:BA_IS_lib.obj
 0001:00025f90       _bais_qae                  10026f90 f   BA_IS_lib:BA_IS_lib.obj
 0001:00026030       _bais_qae_setup            10027030 f   BA_IS_lib:BA_IS_lib.obj
 0001:00026060       _bais_spi                  10027060 f   BA_IS_lib:BA_IS_lib.obj
 0001:00026130       _bais_spi_setup            10027130 f   BA_IS_lib:BA_IS_lib.obj
 0001:000261d0       _bais_spi_stop             100271d0 f   BA_IS_lib:BA_IS_lib.obj
 0001:00026200       _bais_uart_port_setup      10027200 f   BA_IS_lib:BA_IS_lib.obj
 0001:00026330       _bais_uart_rx              10027330 f   BA_IS_lib:BA_IS_lib.obj
 0001:000263b0       _bais_uart_setup           100273b0 f   BA_IS_lib:BA_IS_lib.obj
 0001:00026590       _bais_uart_stop            10027590 f   BA_IS_lib:BA_IS_lib.obj
 0001:000265d0       _bais_uart_tx              100275d0 f   BA_IS_lib:BA_IS_lib.obj
 0001:000274e0       _cama_boardInit            100284e0 f   CA_MA_lib:CA_MA_lib.obj
 0001:00027790       _cama_get_status           10028790 f   CA_MA_lib:CA_MA_lib.obj
 0001:000277e0       _cama_init                 100287e0 f   CA_MA_lib:CA_MA_lib.obj
 0001:000279d0       _cama_print_info           100289d0 f   CA_MA_lib:CA_MA_lib.obj
 0001:00027d10       _cama_rx_msg               10028d10 f   CA_MA_lib:CA_MA_lib.obj
 0001:00027e40       _cama_stop                 10028e40 f   CA_MA_lib:CA_MA_lib.obj
 0001:00027e80       _cama_tx_msg               10028e80 f   CA_MA_lib:CA_MA_lib.obj
 0001:00028270       __ftoui3                   10029270 f   LIBCMT:ftol3.obj
 0001:000282b6       __ftoul3                   100292b6 f   LIBCMT:ftol3.obj
 0001:00028328       __ftol3                    10029328 f   LIBCMT:ftol3.obj
 0001:00028395       __dtoui3                   10029395 f   LIBCMT:ftol3.obj
 0001:00028409       __dtoul3                   10029409 f   LIBCMT:ftol3.obj
 0001:000284ab       __dtol3                    100294ab f   LIBCMT:ftol3.obj
 0001:00028560       __ultod3                   10029560 f   LIBCMT:ftol3.obj
 0001:000285c0       __ltod3                    100295c0 f   LIBCMT:ftol3.obj
 0001:000286e5       ___raise_securityfailure   100296e5 f   LIBCMT:gs_report.obj
 0001:00028717       ___report_gsfailure        10029717 f   LIBCMT:gs_report.obj
 0001:0002884e       ___report_rangecheckfailure 1002984e f   LIBCMT:gs_report.obj
 0001:0002885d       ___report_securityfailure  1002985d f   LIBCMT:gs_report.obj
 0001:0002895e       ___report_securityfailureEx 1002995e f   LIBCMT:gs_report.obj
 0001:00028ab7       @__security_check_cookie@4 10029ab7 f   LIBCMT:secchk.obj
 0001:00028acc       ___isa_available_init      10029acc f   LIBCMT:cpu_disp.obj
 0001:0002911d       __CRT_INIT@12              1002a11d f   LIBCMT:dll_dllmain.obj
 0001:00029128       __DllMainCRTStartup@12     1002a128 f   LIBCMT:dll_dllmain.obj
 0001:000291b3       ___security_init_cookie    1002a1b3 f   LIBCMT:gs_support.obj
 0001:00029210       ?__scrt_initialize_type_info@@YAXXZ 1002a210 f   LIBCMT:tncleanup.obj
 0001:0002921f       ?__scrt_uninitialize_type_info@@YAXXZ 1002a21f f   LIBCMT:tncleanup.obj
 0001:0002922e       ___scrt_initialize_default_local_stdio_options 1002a22e f   LIBCMT:default_local_stdio_options.obj
 0001:00029252       ?configure_argv@__scrt_narrow_argv_policy@@SAHXZ 1002a252 f i LIBCMT:utility.obj
 0001:000292b7       ?initialize_environment@__scrt_narrow_environment_policy@@SAHXZ 1002a2b7 f i LIBCMT:utility.obj
 0001:000292fd       _NtCurrentTeb              1002a2fd f i LIBCMT:utility.obj
 0001:00029304       ___scrt_acquire_startup_lock 1002a304 f   LIBCMT:utility.obj
 0001:00029342       ___scrt_dllmain_after_initialize_c 1002a342 f   LIBCMT:utility.obj
 0001:00029377       ___scrt_dllmain_before_initialize_c 1002a377 f   LIBCMT:utility.obj
 0001:00029388       ___scrt_dllmain_crt_thread_attach 1002a388 f   LIBCMT:utility.obj
 0001:000293ae       ___scrt_dllmain_crt_thread_detach 1002a3ae f   LIBCMT:utility.obj
 0001:000293be       ___scrt_dllmain_exception_filter 1002a3be f   LIBCMT:utility.obj
 0001:000293ff       ___scrt_dllmain_uninitialize_c 1002a3ff f   LIBCMT:utility.obj
 0001:0002942a       ___scrt_dllmain_uninitialize_critical 1002a42a f   LIBCMT:utility.obj
 0001:0002943a       ___scrt_initialize_crt     1002a43a f   LIBCMT:utility.obj
 0001:00029481       ___scrt_initialize_onexit_tables 1002a481 f   LIBCMT:utility.obj
 0001:00029529       ___scrt_is_nonwritable_in_current_image 1002a529 f   LIBCMT:utility.obj
 0001:000295e2       ___scrt_release_startup_lock 1002a5e2 f   LIBCMT:utility.obj
 0001:00029606       ___scrt_uninitialize_crt   1002a606 f   LIBCMT:utility.obj
 0001:00029638       __onexit                   1002a638 f   LIBCMT:utility.obj
 0001:00029670       _at_quick_exit             1002a670 f   LIBCMT:utility.obj
 0001:0002969b       _atexit                    1002a69b f   LIBCMT:utility.obj
 0001:000296b5       ___scrt_get_dyn_tls_init_callback 1002a6b5 f   LIBCMT:dyn_tls_init.obj
 0001:000296bb       ___scrt_fastfail           1002a6bb f   LIBCMT:utility_desktop.obj
 0001:0002981b       ___scrt_get_show_window_mode 1002a81b f   LIBCMT:utility_desktop.obj
 0001:00029858       ___scrt_initialize_mta     1002a858 f   LIBCMT:utility_desktop.obj
 0001:0002985d       ___scrt_initialize_winrt   1002a85d f   LIBCMT:utility_desktop.obj
 0001:00029860       ___scrt_is_managed_app     1002a860 f   LIBCMT:utility_desktop.obj
 0001:000298b3       ___scrt_set_unhandled_exception_filter 1002a8b3 f   LIBCMT:utility_desktop.obj
 0001:000298c2       ___scrt_exe_initialize_mta 1002a8c2 f   LIBCMT:utility_desktop.obj
 0001:000298c2       ___scrt_stub_for_initialize_mta 1002a8c2 f   LIBCMT:utility_desktop.obj
 0001:000298c5       ___scrt_unhandled_exception_filter@4 1002a8c5 f   LIBCMT:utility_desktop.obj
 0001:00029930       __crt_debugger_hook        1002a930 f   LIBCMT:utility_desktop.obj
 0001:0002993a       __RTC_Initialize           1002a93a f   LIBCMT:initsect.obj
 0001:00029971       __RTC_Terminate            1002a971 f   LIBCMT:initsect.obj
 0001:000299b0       __SEH_prolog4              1002a9b0 f   LIBCMT:sehprolg4.obj
 0001:000299f4       __SEH_epilog4              1002a9f4 f   LIBCMT:sehprolg4.obj
 0001:00029a1e       @_guard_check_icall_nop@4  1002aa1e f i LIBCMT:guard_support.obj
 0001:00029a21       _ReadNoFence               1002aa21 f i LIBCMT:guard_support.obj
 0001:00029a2d       _ReadPointerNoFence        1002aa2d f i LIBCMT:guard_support.obj
 0001:00029a39       ___castguard_check_failure_debugbreak 1002aa39 f i LIBCMT:guard_support.obj
 0001:00029a5a       ___castguard_check_failure_fastfail 1002aa5a f i LIBCMT:guard_support.obj
 0001:00029a80       ___castguard_check_failure_nop 1002aa80 f i LIBCMT:guard_support.obj
 0001:00029a83       ___castguard_check_failure_os_handled 1002aa83 f i LIBCMT:guard_support.obj
 0001:00029aeb       ___castguard_slow_path_check_debugbreak 1002aaeb f i LIBCMT:guard_support.obj
 0001:00029b23       ___castguard_slow_path_check_fastfail 1002ab23 f i LIBCMT:guard_support.obj
 0001:00029b60       ___castguard_slow_path_check_nop 1002ab60 f i LIBCMT:guard_support.obj
 0001:00029b63       ___castguard_slow_path_check_os_handled 1002ab63 f i LIBCMT:guard_support.obj
 0001:00029be2       __guard_icall_checks_enforced 1002abe2 f i LIBCMT:guard_support.obj
 0001:00029bf8       __get_startup_argv_mode    1002abf8 f   LIBCMT:argv_mode.obj
 0001:00029bfc       ___scrt_is_ucrt_dll_in_use 1002abfc f   LIBCMT:ucrt_detection.obj
 0001:00029c0b       _GetModuleHandleA@4        1002ac0b f   kernel32:KERNEL32.dll
 0001:00029c11       _GetProcAddress@8          1002ac11 f   kernel32:KERNEL32.dll
 0001:00029c17       _UnhandledExceptionFilter@4 1002ac17 f   kernel32:KERNEL32.dll
 0001:00029c1d       _SetUnhandledExceptionFilter@4 1002ac1d f   kernel32:KERNEL32.dll
 0001:00029c23       _GetCurrentProcess@0       1002ac23 f   kernel32:KERNEL32.dll
 0001:00029c29       _TerminateProcess@8        1002ac29 f   kernel32:KERNEL32.dll
 0001:00029c2f       _IsProcessorFeaturePresent@4 1002ac2f f   kernel32:KERNEL32.dll
 0001:00029c35       _QueryPerformanceCounter@4 1002ac35 f   kernel32:KERNEL32.dll
 0001:00029c3b       _GetCurrentProcessId@0     1002ac3b f   kernel32:KERNEL32.dll
 0001:00029c41       _GetCurrentThreadId@0      1002ac41 f   kernel32:KERNEL32.dll
 0001:00029c47       _GetSystemTimeAsFileTime@4 1002ac47 f   kernel32:KERNEL32.dll
 0001:00029c4d       _InitializeSListHead@4     1002ac4d f   kernel32:KERNEL32.dll
 0001:00029c53       _IsDebuggerPresent@0       1002ac53 f   kernel32:KERNEL32.dll
 0001:00029c59       _GetStartupInfoW@4         1002ac59 f   kernel32:KERNEL32.dll
 0001:00029c5f       _GetModuleHandleW@4        1002ac5f f   kernel32:KERNEL32.dll
 0001:00029c70       _memcpy                    1002ac70 f   libvcruntime:memcpy.obj
 0001:0002a350       _strchr                    1002b350 f   libvcruntime:strchr.obj
 0001:0002a3be       ___from_strstr_to_strchr   1002b3be     libvcruntime:strchr.obj
 0001:0002a4d0       _memmove                   1002b4d0 f   libvcruntime:memmove.obj
 0001:0002abb0       _memset                    1002bbb0 f   libvcruntime:memset.obj
 0001:0002ada0       __except_handler4          1002bda0 f   libvcruntime:chandler4.obj
 0001:0002af65       ??$?RD@__crt_internal_free_policy@@QBEXQBD@Z 1002bf65 f i libvcruntime:std_type_info.obj
 0001:0002af79       ??$?RX@__crt_internal_free_policy@@QBEXQBX@Z 1002bf79 f i libvcruntime:std_type_info.obj
 0001:0002af8d       ??$__crt_interlocked_compare_exchange_pointer@$$CBDPAD$$T@@YAPBDPDSBDQAD$$T@Z 1002bf8d f i libvcruntime:std_type_info.obj
 0001:0002afa3       ??$__crt_interlocked_read_pointer@$$CBD@@YAPBDPDSBD@Z 1002bfa3 f i libvcruntime:std_type_info.obj
 0001:0002afaf       ??0?$__crt_unique_heap_ptr@DU__crt_internal_free_policy@@@@QAE@QAD@Z 1002bfaf f i libvcruntime:std_type_info.obj
 0001:0002afc0       ??0?$__crt_unique_heap_ptr@XU__crt_internal_free_policy@@@@QAE@QAX@Z 1002bfc0 f i libvcruntime:std_type_info.obj
 0001:0002afd1       ??1?$__crt_unique_heap_ptr@DU__crt_internal_free_policy@@@@QAE@XZ 1002bfd1 f i libvcruntime:std_type_info.obj
 0001:0002afe5       ??1?$__crt_unique_heap_ptr@XU__crt_internal_free_policy@@@@QAE@XZ 1002bfe5 f i libvcruntime:std_type_info.obj
 0001:0002aff9       ??B?$__crt_unique_heap_ptr@DU__crt_internal_free_policy@@@@QBE_NXZ 1002bff9 f i libvcruntime:std_type_info.obj
 0001:0002b000       ??B?$__crt_unique_heap_ptr@XU__crt_internal_free_policy@@@@QBE_NXZ 1002c000 f i libvcruntime:std_type_info.obj
 0001:0002b03b       ?__crt_interlocked_read_32@@YAHPDH@Z 1002c03b f i libvcruntime:std_type_info.obj
 0001:0002b047       ?detach@?$__crt_unique_heap_ptr@XU__crt_internal_free_policy@@@@QAEPAXXZ 1002c047 f i libvcruntime:std_type_info.obj
 0001:0002b04d       ?get@?$__crt_unique_heap_ptr@DU__crt_internal_free_policy@@@@QBEPADXZ 1002c04d f i libvcruntime:std_type_info.obj
 0001:0002b050       ?get@?$__crt_unique_heap_ptr@XU__crt_internal_free_policy@@@@QBEPAXXZ 1002c050 f i libvcruntime:std_type_info.obj
 0001:0002b053       ?is_valid@?$__crt_unique_heap_ptr@DU__crt_internal_free_policy@@@@QBE_NXZ 1002c053 f i libvcruntime:std_type_info.obj
 0001:0002b05a       ?is_valid@?$__crt_unique_heap_ptr@XU__crt_internal_free_policy@@@@QBE_NXZ 1002c05a f i libvcruntime:std_type_info.obj
 0001:0002b061       ?release@?$__crt_unique_heap_ptr@DU__crt_internal_free_policy@@@@QAEXXZ 1002c061 f i libvcruntime:std_type_info.obj
 0001:0002b075       ?release@?$__crt_unique_heap_ptr@XU__crt_internal_free_policy@@@@QAEXXZ 1002c075 f i libvcruntime:std_type_info.obj
 0001:0002b089       ___std_type_info_compare   1002c089 f   libvcruntime:std_type_info.obj
 0001:0002b0d4       ___std_type_info_destroy_list 1002c0d4 f   libvcruntime:std_type_info.obj
 0001:0002b0ff       ___std_type_info_hash      1002c0ff f   libvcruntime:std_type_info.obj
 0001:0002b12e       ___std_type_info_name      1002c12e f   libvcruntime:std_type_info.obj
 0001:0002b224       ___vcrt_initialize         1002c224 f   libvcruntime:initialization.obj
 0001:0002b24a       ___vcrt_thread_attach      1002c24a f   libvcruntime:initialization.obj
 0001:0002b257       ___vcrt_thread_detach      1002c257 f   libvcruntime:initialization.obj
 0001:0002b264       ___vcrt_uninitialize       1002c264 f   libvcruntime:initialization.obj
 0001:0002b280       ___vcrt_uninitialize_critical 1002c280 f   libvcruntime:initialization.obj
 0001:0002b28d       ___DestructExceptionObject 1002c28d f   libvcruntime:ehhelpers.obj
 0001:0002b356       ?_CallMemberFunction0@@YGXQAX0@Z 1002c356 f i libvcruntime:ehhelpers.obj
 0001:0002b3d4       ?raw_name@type_info@@QBEPBDXZ 1002c3d4 f i libvcruntime:ehhelpers.obj
 0001:0002b3d8       __IsExceptionObjectToBeDestroyed 1002c3d8 f   libvcruntime:ehhelpers.obj
 0001:0002b407       __SetWinRTOutOfMemoryExceptionCallback 1002c407 f   libvcruntime:ehhelpers.obj
 0001:0002b417       ___AdjustPointer           1002c417 f   libvcruntime:ehhelpers.obj
 0001:0002b445       ___FrameUnwindFilter       1002c445 f   libvcruntime:ehhelpers.obj
 0001:0002b4b0       ___GetPlatformExceptionInfo 1002c4b0 f   libvcruntime:ehhelpers.obj
 0001:0002b50f       ___current_exception       1002c50f f   libvcruntime:ehhelpers.obj
 0001:0002b51a       ___current_exception_context 1002c51a f   libvcruntime:ehhelpers.obj
 0001:0002b525       ___processing_throw        1002c525 f   libvcruntime:ehhelpers.obj
 0001:0002b530       ___std_terminate           1002c530 f   libvcruntime:ehhelpers.obj
 0001:0002b535       __is_exception_typeof      1002c535 f   libvcruntime:ehhelpers.obj
 0001:0002b610       __local_unwind4            1002c610 f   libvcruntime:exsup4.obj
 0001:0002b6e4       __seh_longjmp_unwind4@4    1002c6e4 f   libvcruntime:exsup4.obj
 0001:0002b70c       @_EH4_CallFilterFunc@8     1002c70c f   libvcruntime:exsup4.obj
 0001:0002b724       @_EH4_TransferToHandler@8  1002c724 f   libvcruntime:exsup4.obj
 0001:0002b740       @_EH4_GlobalUnwind2@8      1002c740 f   libvcruntime:exsup4.obj
 0001:0002b75c       @_EH4_LocalUnwind@16       1002c75c f   libvcruntime:exsup4.obj
 0001:0002b7d8       ___except_validate_context_record 1002c7d8 f   libvcruntime:jbcxrval.obj
 0001:0002b814       ___except_validate_jump_buffer 1002c814 f   libvcruntime:jbcxrval.obj
 0001:0002b84c       ___except_validate_jump_buffer_common 1002c84c f i libvcruntime:jbcxrval.obj
 0001:0002b893       ??$?0$00@DName@@QAE@PBDU?$StringLifeSelector@$00@@@Z 1002c893 f i libvcruntime:undname.obj
 0001:0002b8d2       ??$?0$00@pcharNode@@QAE@PBDHU?$StringLifeSelector@$00@@@Z 1002c8d2 f i libvcruntime:undname.obj
 0001:0002b8f3       ??$?0$01@DName@@QAE@PBDU?$StringLifeSelector@$01@@@Z 1002c8f3 f i libvcruntime:undname.obj
 0001:0002b932       ??$?0$01@pcharNode@@QAE@PBDHU?$StringLifeSelector@$01@@@Z 1002c932 f i libvcruntime:undname.obj
 0001:0002b982       ??$?0$0A@@DName@@QAE@PBDU?$StringLifeSelector@$0A@@@@Z 1002c982 f i libvcruntime:undname.obj
 0001:0002b9c1       ??$?0$0A@@pcharNode@@QAE@PBDHU?$StringLifeSelector@$0A@@@@Z 1002c9c1 f i libvcruntime:undname.obj
 0001:0002ba11       ??$?0_K$0A@@?$optional@_K@std@@QAE@$$QA_K@Z 1002ca11 f i libvcruntime:undname.obj
 0001:0002ba31       ??$?0_K@?$_Optional_construct_base@_K@std@@QAE@Uin_place_t@1@$$QA_K@Z 1002ca31 f i libvcruntime:undname.obj
 0001:0002ba51       ??$?0_K@?$_Optional_destruct_base@_K$00@std@@QAE@Uin_place_t@1@$$QA_K@Z 1002ca51 f i libvcruntime:undname.obj
 0001:0002ba71       ??$append@VDNameNode@@@DName@@AAEXPBVDNameNode@@@Z 1002ca71 f i libvcruntime:undname.obj
 0001:0002bac2       ??$append@VDNameStatusNode@@@DName@@AAEXPBVDNameStatusNode@@@Z 1002cac2 f i libvcruntime:undname.obj
 0001:0002bb13       ??$append@VcharNode@@@DName@@AAEXPBVcharNode@@@Z 1002cb13 f i libvcruntime:undname.obj
 0001:0002bb64       ??$append@VpDNameNode@@@DName@@AAEXPBVpDNameNode@@@Z 1002cb64 f i libvcruntime:undname.obj
 0001:0002bbb5       ??$append@VpcharNode@@@DName@@AAEXPBVpcharNode@@@Z 1002cbb5 f i libvcruntime:undname.obj
 0001:0002bc06       ??$doPchar@$00@DName@@AAEXPBDH@Z 1002cc06 f i libvcruntime:undname.obj
 0001:0002bc8b       ??$doPchar@$01@DName@@AAEXPBDH@Z 1002cc8b f i libvcruntime:undname.obj
 0001:0002bd18       ??$doPchar@$0A@@DName@@AAEXPBDH@Z 1002cd18 f i libvcruntime:undname.obj
 0001:0002bda5       ??$forward@_K@std@@YA$$QA_KAA_K@Z 1002cda5 f i libvcruntime:undname.obj
 0001:0002bdaf       ??$size@D$04@std@@YAIAAY04$$CBD@Z 1002cdaf f i libvcruntime:undname.obj
 0001:0002bdb3       ??$size@D$0EB@@std@@YAIAAY0EB@$$CBD@Z 1002cdb3 f i libvcruntime:undname.obj
 0001:0002bdb7       ??0?$_Optional_construct_base@_K@std@@QAE@XZ 1002cdb7 f i libvcruntime:undname.obj
 0001:0002bdbe       ??0?$_Optional_destruct_base@_K$00@std@@QAE@XZ 1002cdbe f i libvcruntime:undname.obj
 0001:0002bdc5       ??0?$optional@_K@std@@QAE@XZ 1002cdc5 f i libvcruntime:undname.obj
 0001:0002bdcc       ??0Block@_HeapManager@@QAE@XZ 1002cdcc f i libvcruntime:undname.obj
 0001:0002bdd2       ??0DName@@QAE@AAPBDD@Z     1002cdd2 f   libvcruntime:undname.obj
 0001:0002be72       ??0DName@@QAE@ABUStringLiteral@@@Z 1002ce72 f   libvcruntime:undname.obj
 0001:0002bea2       ??0DName@@QAE@ABV0@@Z      1002cea2 f i libvcruntime:undname.obj
 0001:0002bebd       ??0DName@@QAE@D@Z          1002cebd f   libvcruntime:undname.obj
 0001:0002bee0       ??0DName@@QAE@PAV0@@Z      1002cee0 f   libvcruntime:undname.obj
 0001:0002bf38       ??0DName@@QAE@W4DNameStatus@@@Z 1002cf38 f   libvcruntime:undname.obj
 0001:0002bf88       ??0DName@@QAE@XZ           1002cf88 f i libvcruntime:undname.obj
 0001:0002bf94       ??0DName@@QAE@_J@Z         1002cf94 f   libvcruntime:undname.obj
 0001:0002c043       ??0DName@@QAE@_K@Z         1002d043 f   libvcruntime:undname.obj
 0001:0002c0c2       ??0DNameNode@@IAE@XZ       1002d0c2 f i libvcruntime:undname.obj
 0001:0002c0cd       ??0Replicator@@QAE@XZ      1002d0cd f i libvcruntime:undname.obj
 0001:0002c0de       ??0UnDecorator@@QAE@PBDP6APADJ@ZK@Z 1002d0de f i libvcruntime:undname.obj
 0001:0002c13d       ??0_Nontrivial_dummy_type@std@@QAE@XZ 1002d13d f i libvcruntime:undname.obj
 0001:0002c140       ??0charNode@@QAE@D@Z       1002d140 f i libvcruntime:undname.obj
 0001:0002c15a       ??0pDNameNode@@QAE@PAVDName@@@Z 1002d15a f   libvcruntime:undname.obj
 0001:0002c18c       ??0pairNode@@QAE@PBVDNameNode@@0@Z 1002d18c f i libvcruntime:undname.obj
 0001:0002c1b9       ??2@YAPAXIAAV_HeapManager@@H@Z 1002d1b9 f   libvcruntime:undname.obj
 0001:0002c1df       ??4DName@@QAEAAV0@ABUStringLiteral@@@Z 1002d1df f   libvcruntime:undname.obj
 0001:0002c208       ??4DName@@QAEAAV0@ABV0@@Z  1002d208 f   libvcruntime:undname.obj
 0001:0002c223       ??4DName@@QAEAAV0@D@Z      1002d223 f i libvcruntime:undname.obj
 0001:0002c246       ??4DName@@QAEAAV0@PAV0@@Z  1002d246 f   libvcruntime:undname.obj
 0001:0002c299       ??4DName@@QAEAAV0@W4DNameStatus@@@Z 1002d299 f   libvcruntime:undname.obj
 0001:0002c2d7       ??AReplicator@@QBE?AVDName@@H@Z 1002d2d7 f   libvcruntime:undname.obj
 0001:0002c32e       ??B?$optional@_K@std@@QBE_NXZ 1002d32e f i libvcruntime:undname.obj
 0001:0002c332       ??D?$optional@_K@std@@QGAEAA_KXZ 1002d332 f i libvcruntime:undname.obj
 0001:0002c335       ??H@YA?AVDName@@ABUStringLiteral@@ABV0@@Z 1002d335 f i libvcruntime:undname.obj
 0001:0002c35f       ??H@YA?AVDName@@DABV0@@Z   1002d35f f i libvcruntime:undname.obj
 0001:0002c394       ??H@YA?AVDName@@W4DNameStatus@@ABV0@@Z 1002d394 f i libvcruntime:undname.obj
 0001:0002c3be       ??HDName@@QBE?AV0@ABUStringLiteral@@@Z 1002d3be f   libvcruntime:undname.obj
 0001:0002c3e8       ??HDName@@QBE?AV0@ABV0@@Z  1002d3e8 f   libvcruntime:undname.obj
 0001:0002c412       ??HDName@@QBE?AV0@D@Z      1002d412 f   libvcruntime:undname.obj
 0001:0002c43c       ??HDName@@QBE?AV0@PAV0@@Z  1002d43c f   libvcruntime:undname.obj
 0001:0002c466       ??HDName@@QBE?AV0@W4DNameStatus@@@Z 1002d466 f   libvcruntime:undname.obj
 0001:0002c490       ??HStringLiteral@@QBE?AU0@H@Z 1002d490 f i libvcruntime:undname.obj
 0001:0002c4b0       ??YDName@@QAEAAV0@ABUStringLiteral@@@Z 1002d4b0 f   libvcruntime:undname.obj
 0001:0002c51e       ??YDName@@QAEAAV0@ABV0@@Z  1002d51e f   libvcruntime:undname.obj
 0001:0002c58a       ??YDName@@QAEAAV0@D@Z      1002d58a f   libvcruntime:undname.obj
 0001:0002c5f4       ??YDName@@QAEAAV0@PAV0@@Z  1002d5f4 f   libvcruntime:undname.obj
 0001:0002c671       ??YDName@@QAEAAV0@W4DNameStatus@@@Z 1002d671 f   libvcruntime:undname.obj
 0001:0002c6c1       ??YReplicator@@QAEAAV0@ABVDName@@@Z 1002d6c1 f   libvcruntime:undname.obj
 0001:0002c70e       ??_5DName@@QAEAAV0@ABV0@@Z 1002d70e f   libvcruntime:undname.obj
 0001:0002c731       ??__K_l@@YA?AUStringLiteral@@PBDI@Z 1002d731 f i libvcruntime:undname.obj
 0001:0002c73e       ?Constructor@_HeapManager@@QAEXP6APAXI@ZP6AXPAX@Z@Z 1002d73e f i libvcruntime:undname.obj
 0001:0002c762       ?Destructor@_HeapManager@@QAEXXZ 1002d762 f i libvcruntime:undname.obj
 0001:0002c7ba       ?UScore@UnDecorator@@SA?AUStringLiteral@@W4Tokens@@@Z 1002d7ba f   libvcruntime:undname.obj
 0001:0002c7ea       ?composeDeclaration@UnDecorator@@CA?AVDName@@ABV2@@Z 1002d7ea f i libvcruntime:undname.obj
 0001:0002d869       ?doAccessSpecifiers@UnDecorator@@SAHXZ 1002e869 f i libvcruntime:undname.obj
 0001:0002d87a       ?doAllocationLanguage@UnDecorator@@SAHXZ 1002e87a f i libvcruntime:undname.obj
 0001:0002d88b       ?doAllocationModel@UnDecorator@@SAHXZ 1002e88b f i libvcruntime:undname.obj
 0001:0002d89c       ?doEcsu@UnDecorator@@SAHXZ 1002e89c f i libvcruntime:undname.obj
 0001:0002d8ad       ?doEllipsis@UnDecorator@@SAHXZ 1002e8ad f i libvcruntime:undname.obj
 0001:0002d8be       ?doFunctionReturns@UnDecorator@@SAHXZ 1002e8be f i libvcruntime:undname.obj
 0001:0002d8cf       ?doMSKeywords@UnDecorator@@SAHXZ 1002e8cf f i libvcruntime:undname.obj
 0001:0002d8df       ?doMemberTypes@UnDecorator@@SAHXZ 1002e8df f i libvcruntime:undname.obj
 0001:0002d8f0       ?doNameOnly@UnDecorator@@SAHXZ 1002e8f0 f i libvcruntime:undname.obj
 0001:0002d8fd       ?doNoIdentCharCheck@UnDecorator@@SAHXZ 1002e8fd f i libvcruntime:undname.obj
 0001:0002d90a       ?doPchar@DName@@AAEXD@Z    1002e90a f   libvcruntime:undname.obj
 0001:0002d950       ?doPtr64@UnDecorator@@SAHXZ 1002e950 f i libvcruntime:undname.obj
 0001:0002d961       ?doRestrictionSpec@UnDecorator@@SAHXZ 1002e961 f i libvcruntime:undname.obj
 0001:0002d972       ?doThisTypes@UnDecorator@@SAHXZ 1002e972 f i libvcruntime:undname.obj
 0001:0002d988       ?doThrowTypes@UnDecorator@@SAHXZ 1002e988 f i libvcruntime:undname.obj
 0001:0002d999       ?doTypeOnly@UnDecorator@@SAHXZ 1002e999 f i libvcruntime:undname.obj
 0001:0002d9a6       ?doUnderScore@UnDecorator@@SAHXZ 1002e9a6 f i libvcruntime:undname.obj
 0001:0002d9b3       ?getArgumentList@UnDecorator@@CA?AVDName@@XZ 1002e9b3 f   libvcruntime:undname.obj
 0001:0002db03       ?getArgumentTypes@UnDecorator@@CA?AVDName@@XZ 1002eb03 f   libvcruntime:undname.obj
 0001:0002dc62       ?getArrayObject@UnDecorator@@CA?AVDName@@XZ 1002ec62 f   libvcruntime:undname.obj
 0001:0002dd2c       ?getArrayType@UnDecorator@@CA?AVDName@@ABV2@@Z 1002ed2c f i libvcruntime:undname.obj
 0001:0002df30       ?getBasedType@UnDecorator@@CA?AVDName@@XZ 1002ef30 f   libvcruntime:undname.obj
 0001:0002e019       ?getBasicDataType@UnDecorator@@CA?AVDName@@ABV2@@Z 1002f019 f   libvcruntime:undname.obj
 0001:0002e648       ?getCHPEName@UnDecorator@@QAEPADPADH@Z 1002f648 f i libvcruntime:undname.obj
 0001:0002e75c       ?getCallIndex@UnDecorator@@CA?AVDName@@XZ 1002f75c f i libvcruntime:undname.obj
 0001:0002e775       ?getCallingConvention@UnDecorator@@CA?AVDName@@XZ 1002f775 f   libvcruntime:undname.obj
 0001:0002e889       ?getDataIndirectType@UnDecorator@@CA?AVDName@@ABV2@W4IndirectionKind@@0H@Z 1002f889 f   libvcruntime:undname.obj
 0001:0002f0c4       ?getDataIndirectType@UnDecorator@@CA?AVDName@@XZ 100300c4 f i libvcruntime:undname.obj
 0001:0002f0fd       ?getDataType@UnDecorator@@CA?AVDName@@PAV2@@Z 100300fd f   libvcruntime:undname.obj
 0001:0002f209       ?getDecoratedName@UnDecorator@@CA?AVDName@@XZ 10030209 f   libvcruntime:undname.obj
 0001:0002f50d       ?getDimension@UnDecorator@@CA?AVDName@@_N@Z 1003050d f   libvcruntime:undname.obj
 0001:0002f669       ?getDispatchTarget@UnDecorator@@CA?AVDName@@XZ 10030669 f   libvcruntime:undname.obj
 0001:0002f6d2       ?getDisplacement@UnDecorator@@CA?AVDName@@XZ 100306d2 f i libvcruntime:undname.obj
 0001:0002f6eb       ?getECSUDataType@UnDecorator@@CA?AVDName@@XZ 100306eb f   libvcruntime:undname.obj
 0001:0002f8df       ?getECSUName@UnDecorator@@CA?AVDName@@XZ 100308df f i libvcruntime:undname.obj
 0001:0002f8f4       ?getEnumType@UnDecorator@@CA?AVDName@@XZ 100308f4 f i libvcruntime:undname.obj
 0001:0002fa5c       ?getExtendedDataIndirectType@UnDecorator@@CA?AVDName@@AAW4IndirectionKind@@AA_NH@Z 10030a5c f   libvcruntime:undname.obj
 0001:0002fc7b       ?getExternalDataType@UnDecorator@@CA?AVDName@@ABV2@@Z 10030c7b f i libvcruntime:undname.obj
 0001:0002fcf9       ?getFloatingPoint@UnDecorator@@CA?AVDName@@H@Z 10030cf9 f   libvcruntime:undname.obj
 0001:0002fe20       ?getFunctionIndirectType@UnDecorator@@CA?AVDName@@ABV2@@Z 10030e20 f   libvcruntime:undname.obj
 0001:000302c7       ?getGuardNumber@UnDecorator@@CA?AVDName@@XZ 100312c7 f i libvcruntime:undname.obj
 0001:000302e0       ?getLastChar@DName@@QBEDXZ 100312e0 f i libvcruntime:undname.obj
 0001:00030308       ?getLastChar@DNameStatusNode@@UBEDXZ 10031308 f i libvcruntime:undname.obj
 0001:00030317       ?getLastChar@charNode@@UBEDXZ 10031317 f i libvcruntime:undname.obj
 0001:0003031b       ?getLastChar@pDNameNode@@UBEDXZ 1003131b f i libvcruntime:undname.obj
 0001:0003032c       ?getLastChar@pairNode@@UBEDXZ 1003132c f i libvcruntime:undname.obj
 0001:0003036e       ?getLastChar@pcharNode@@UBEDXZ 1003136e f i libvcruntime:undname.obj
 0001:00030384       ?getLexicalFrame@UnDecorator@@CA?AVDName@@XZ 10031384 f i libvcruntime:undname.obj
 0001:000303c1       ?getMemoryWithBuffer@_HeapManager@@QAEPAXI@Z 100313c1 f   libvcruntime:undname.obj
 0001:00030445       ?getMemoryWithoutBuffer@_HeapManager@@QAEPAXI@Z 10031445 f   libvcruntime:undname.obj
 0001:0003046d       ?getNoexcept@UnDecorator@@CA?AVDName@@XZ 1003146d f   libvcruntime:undname.obj
 0001:000304d6       ?getNumberOfDimensions@UnDecorator@@CAHXZ 100314d6 f   libvcruntime:undname.obj
 0001:0003054f       ?getOperatorName@UnDecorator@@CA?AVDName@@_NPA_N@Z 1003154f f i libvcruntime:undname.obj
 0001:00030d9e       ?getPointerType@UnDecorator@@CA?AVDName@@ABV2@0@Z 10031d9e f i libvcruntime:undname.obj
 0001:00030dbf       ?getPointerTypeArray@UnDecorator@@CA?AVDName@@ABV2@0@Z 10031dbf f i libvcruntime:undname.obj
 0001:00030de0       ?getPrimaryDataType@UnDecorator@@CA?AVDName@@ABV2@@Z 10031de0 f   libvcruntime:undname.obj
 0001:000310c2       ?getPtrRefDataType@UnDecorator@@CA?AVDName@@ABV2@H@Z 100320c2 f   libvcruntime:undname.obj
 0001:0003128a       ?getPtrRefType@UnDecorator@@CA?AVDName@@ABV2@0W4IndirectionKind@@@Z 1003228a f   libvcruntime:undname.obj
 0001:000313df       ?getReferenceType@UnDecorator@@CA?AVDName@@ABV2@0W4IndirectionKind@@@Z 100323df f i libvcruntime:undname.obj
 0001:00031402       ?getRestrictionSpec@UnDecorator@@CA?AVDName@@XZ 10032402 f   libvcruntime:undname.obj
 0001:00031575       ?getReturnType@UnDecorator@@CA?AVDName@@PAV2@@Z 10032575 f   libvcruntime:undname.obj
 0001:000315af       ?getScope@UnDecorator@@CA?AVDName@@XZ 100325af f   libvcruntime:undname.obj
 0001:00031a4d       ?getScopedName@UnDecorator@@CA?AVDName@@XZ 10032a4d f   libvcruntime:undname.obj
 0001:00031b72       ?getSignedDimension@UnDecorator@@CA?AVDName@@XZ 10032b72 f   libvcruntime:undname.obj
 0001:00031bd7       ?getStorageConvention@UnDecorator@@CA?AVDName@@XZ 10032bd7 f i libvcruntime:undname.obj
 0001:00031bec       ?getString@DName@@QBEPADPAD0@Z 10032bec f i libvcruntime:undname.obj
 0001:00031c24       ?getString@DName@@QBEPADPADH@Z 10032c24 f i libvcruntime:undname.obj
 0001:00031c8e       ?getString@DNameStatusNode@@UBEPADPAD0@Z 10032c8e f i libvcruntime:undname.obj
 0001:00031ce5       ?getString@charNode@@UBEPADPAD0@Z 10032ce5 f i libvcruntime:undname.obj
 0001:00031cff       ?getString@pDNameNode@@UBEPADPAD0@Z 10032cff f i libvcruntime:undname.obj
 0001:00031d1b       ?getString@pairNode@@UBEPADPAD0@Z 10032d1b f i libvcruntime:undname.obj
 0001:00031d72       ?getString@pcharNode@@UBEPADPAD0@Z 10032d72 f i libvcruntime:undname.obj
 0001:00031d93       ?getStringEncoding@UnDecorator@@CA?AVDName@@W4PrefixKind@@H@Z 10032d93 f   libvcruntime:undname.obj
 0001:00031e79       ?getStringHelper@@YAPADPADPBD1H@Z 10032e79 f i libvcruntime:undname.obj
 0001:00031ead       ?getStringObject@UnDecorator@@CA?AVDName@@XZ 10032ead f   libvcruntime:undname.obj
 0001:00031f19       ?getSymbolName@UnDecorator@@CA?AVDName@@XZ 10032f19 f i libvcruntime:undname.obj
 0001:00031f73       ?getTemplateArgumentList@UnDecorator@@CA?AVDName@@XZ 10032f73 f   libvcruntime:undname.obj
 0001:0003219e       ?getTemplateName@UnDecorator@@CA?AVDName@@_N@Z 1003319e f   libvcruntime:undname.obj
 0001:00032357       ?getTemplateNonTypeArgument@UnDecorator@@CA?AVDName@@XZ 10033357 f   libvcruntime:undname.obj
 0001:0003272c       ?getTemplateTypeArgument@UnDecorator@@CA?AVDName@@XZ 1003372c f   libvcruntime:undname.obj
 0001:00032873       ?getThisType@UnDecorator@@CA?AVDName@@XZ 10033873 f i libvcruntime:undname.obj
 0001:000328ad       ?getThrowTypes@UnDecorator@@CA?AVDName@@XZ 100338ad f   libvcruntime:undname.obj
 0001:000328d8       ?getTypeEncoding@UnDecorator@@CAHXZ 100338d8 f i libvcruntime:undname.obj
 0001:00032cd4       ?getUndecoratedName@UnDecorator@@QAEPADPADH@Z 10033cd4 f i libvcruntime:undname.obj
 0001:00032e3a       ?getVCallThunkType@UnDecorator@@CA?AVDName@@XZ 10033e3a f i libvcruntime:undname.obj
 0001:00032ea5       ?getValue@UnDecorator@@CA?AV?$optional@_K@std@@XZ 10033ea5 f   libvcruntime:undname.obj
 0001:00032f31       ?getValueObject@UnDecorator@@CA?AVDName@@XZ 10033f31 f   libvcruntime:undname.obj
 0001:00033082       ?getVbTableType@UnDecorator@@CA?AVDName@@ABV2@@Z 10034082 f i libvcruntime:undname.obj
 0001:0003309c       ?getVdispMapType@UnDecorator@@CA?AVDName@@ABV2@@Z 1003409c f i libvcruntime:undname.obj
 0001:00033115       ?getVfTableType@UnDecorator@@CA?AVDName@@ABV2@@Z 10034115 f i libvcruntime:undname.obj
 0001:000332c0       ?getZName@UnDecorator@@CA?AVDName@@_N0@Z 100342c0 f   libvcruntime:undname.obj
 0001:0003355a       ?haveTemplateParameters@UnDecorator@@SAHXZ 1003455a f i libvcruntime:undname.obj
 0001:00033567       ?isArray@DName@@QBEHXZ     10034567 f i libvcruntime:undname.obj
 0001:00033573       ?isComArray@DName@@QBEHXZ  10034573 f i libvcruntime:undname.obj
 0001:0003357f       ?isEmpty@DName@@QBEHXZ     1003457f f i libvcruntime:undname.obj
 0001:00033589       ?isFull@Replicator@@QBEHXZ 10034589 f i libvcruntime:undname.obj
 0001:00033594       ?isNoTE@DName@@QBEHXZ      10034594 f i libvcruntime:undname.obj
 0001:000335a0       ?isPinPtr@DName@@QBEHXZ    100345a0 f i libvcruntime:undname.obj
 0001:000335ac       ?isPtrRef@DName@@QBEHXZ    100345ac f i libvcruntime:undname.obj
 0001:000335b8       ?isUDC@DName@@QBEHXZ       100345b8 f i libvcruntime:undname.obj
 0001:000335cd       ?isUDTThunk@DName@@QBEHXZ  100345cd f i libvcruntime:undname.obj
 0001:000335e2       ?isVCallThunk@DName@@QBEHXZ 100345e2 f i libvcruntime:undname.obj
 0001:000335ee       ?isValid@DName@@QBEHXZ     100345ee f i libvcruntime:undname.obj
 0001:000335fa       ?length@DName@@QBEHXZ      100345fa f i libvcruntime:undname.obj
 0001:00033620       ?length@DNameStatusNode@@UBEHXZ 10034620 f i libvcruntime:undname.obj
 0001:00033624       ?length@charNode@@UBEHXZ   10034624 f i libvcruntime:undname.obj
 0001:00033628       ?length@pDNameNode@@UBEHXZ 10034628 f i libvcruntime:undname.obj
 0001:00033639       ?length@pairNode@@UBEHXZ   10034639 f i libvcruntime:undname.obj
 0001:00033694       ?length@pcharNode@@UBEHXZ  10034694 f i libvcruntime:undname.obj
 0001:00033698       ?make@DNameStatusNode@@SAPBV1@W4DNameStatus@@@Z 10034698 f i libvcruntime:undname.obj
 0001:000336bb       ?parseDecoratedName@UnDecorator@@CA?AVDName@@XZ 100346bb f   libvcruntime:undname.obj
 0001:000337f3       ?raw_length@DNameStatusNode@@UBEHXZ 100347f3 f i libvcruntime:undname.obj
 0001:000337f7       ?raw_length@charNode@@UBEHXZ 100347f7 f i libvcruntime:undname.obj
 0001:000337fb       ?raw_length@pDNameNode@@UBEHXZ 100347fb f i libvcruntime:undname.obj
 0001:000337ff       ?raw_length@pairNode@@UBEHXZ 100347ff f i libvcruntime:undname.obj
 0001:00033803       ?raw_length@pcharNode@@UBEHXZ 10034803 f i libvcruntime:undname.obj
 0001:00033807       ?setIsArray@DName@@QAEXXZ  10034807 f i libvcruntime:undname.obj
 0001:00033811       ?setIsComArray@DName@@QAEXXZ 10034811 f i libvcruntime:undname.obj
 0001:0003381b       ?setIsNoTE@DName@@QAEXXZ   1003481b f i libvcruntime:undname.obj
 0001:00033825       ?setIsPinPtr@DName@@QAEXXZ 10034825 f i libvcruntime:undname.obj
 0001:0003382f       ?setIsUDC@DName@@QAEXXZ    1003482f f i libvcruntime:undname.obj
 0001:0003383f       ?setIsVCallThunk@DName@@QAEXXZ 1003483f f i libvcruntime:undname.obj
 0001:00033849       ?setPtrRef@DName@@QAEAAV1@XZ 10034849 f i libvcruntime:undname.obj
 0001:00033855       ?status@DName@@QBE?AW4DNameStatus@@XZ 10034855 f i libvcruntime:undname.obj
 0001:000338da       ___unDName                 100348da f   libvcruntime:undname.obj
 0001:00033905       ___unDNameEx               10034905 f   libvcruntime:undname.obj
 0001:000339cb       __vsprintf_s_l             100349cb f i libvcruntime:undname.obj
 0001:00033a03       _sprintf_s                 10034a03 f i libvcruntime:undname.obj
 0001:00033a26       _unDNameGenerateCHPE       10034a26 f   libvcruntime:undname.obj
 0001:00033aea       ??$?RU__vcrt_ptd@@@__crt_internal_free_policy@@QBEXQBU__vcrt_ptd@@@Z 10034aea f i libvcruntime:per_thread_data.obj
 0001:00033afe       ??0?$__crt_unique_heap_ptr@U__vcrt_ptd@@U__crt_internal_free_policy@@@@QAE@QAU__vcrt_ptd@@@Z 10034afe f i libvcruntime:per_thread_data.obj
 0001:00033b21       ??1?$__crt_unique_heap_ptr@U__vcrt_ptd@@U__crt_internal_free_policy@@@@QAE@XZ 10034b21 f i libvcruntime:per_thread_data.obj
 0001:00033b40       ??B?$__crt_unique_heap_ptr@U__vcrt_ptd@@U__crt_internal_free_policy@@@@QBE_NXZ 10034b40 f i libvcruntime:per_thread_data.obj
 0001:00033b47       ?detach@?$__crt_unique_heap_ptr@U__vcrt_ptd@@U__crt_internal_free_policy@@@@QAEPAU__vcrt_ptd@@XZ 10034b47 f i libvcruntime:per_thread_data.obj
 0001:00033b4d       ?get@?$__crt_unique_heap_ptr@U__vcrt_ptd@@U__crt_internal_free_policy@@@@QBEPAU__vcrt_ptd@@XZ 10034b4d f i libvcruntime:per_thread_data.obj
 0001:00033b50       ?is_valid@?$__crt_unique_heap_ptr@U__vcrt_ptd@@U__crt_internal_free_policy@@@@QBE_NXZ 10034b50 f i libvcruntime:per_thread_data.obj
 0001:00033b57       ?release@?$__crt_unique_heap_ptr@U__vcrt_ptd@@U__crt_internal_free_policy@@@@QAEXXZ 10034b57 f i libvcruntime:per_thread_data.obj
 0001:00033b8b       ___vcrt_freefls@4          10034b8b f   libvcruntime:per_thread_data.obj
 0001:00033bae       ___vcrt_freeptd            10034bae f   libvcruntime:per_thread_data.obj
 0001:00033bf1       ___vcrt_getptd             10034bf1 f   libvcruntime:per_thread_data.obj
 0001:00033c02       ___vcrt_getptd_noexit      10034c02 f   libvcruntime:per_thread_data.obj
 0001:00033cb8       ___vcrt_getptd_noinit      10034cb8 f   libvcruntime:per_thread_data.obj
 0001:00033cfc       ___vcrt_initialize_ptd     10034cfc f   libvcruntime:per_thread_data.obj
 0001:00033d3b       ___vcrt_uninitialize_ptd   10034d3b f   libvcruntime:per_thread_data.obj
 0001:00033d5c       ___vcrt_initialize_locks   10034d5c f   libvcruntime:locks.obj
 0001:00033da7       ___vcrt_lock               10034da7 f   libvcruntime:locks.obj
 0001:00033dc1       ___vcrt_uninitialize_locks 10034dc1 f   libvcruntime:locks.obj
 0001:00033dfb       ___vcrt_unlock             10034dfb f   libvcruntime:locks.obj
 0001:00033e20       __global_unwind2           10034e20 f   libvcruntime:exsup.obj
 0001:00033e86       __local_unwind2            10034e86 f   libvcruntime:exsup.obj
 0001:00033f0a       __abnormal_termination     10034f0a f   libvcruntime:exsup.obj
 0001:00033f30       __NLG_Notify1              10034f30 f   libvcruntime:exsup.obj
 0001:00033f3c       __NLG_Notify               10034f3c f   libvcruntime:exsup.obj
 0001:00033f53       __NLG_Dispatch             10034f53     libvcruntime:exsup.obj
 0001:00033f53       __NLG_Dispatch2            10034f53     libvcruntime:exsup.obj
 0001:00033f5b       __NLG_Call                 10034f5b f   libvcruntime:exsup.obj
 0001:00033f5d       __NLG_Return2              10034f5d     libvcruntime:exsup.obj
 0001:00033fad       ??$__crt_interlocked_exchange_pointer@$$A6AXXZP6AXXZ@@YAP6AXXZPDS6AXXZQ6AXXZ@Z 10034fad f i libvcruntime:purevirt.obj
 0001:00033fbd       ??$__crt_interlocked_read_pointer@$$A6AXXZ@@YAP6AXXZPDS6AXXZ@Z 10034fbd f i libvcruntime:purevirt.obj
 0001:00033fc9       __get_purecall_handler     10034fc9 f   libvcruntime:purevirt.obj
 0001:00033fcf       __purecall                 10034fcf f   libvcruntime:purevirt.obj
 0001:00033ff2       __set_purecall_handler     10034ff2 f   libvcruntime:purevirt.obj
 0001:00034004       ??$?0AAViterator@TryBlockMap@__FrameHandler3@@AAV012@$0A@@?$pair@Viterator@TryBlockMap@__FrameHandler3@@V123@@std@@QAE@AAViterator@TryBlockMap@__FrameHandler3@@0@Z 10035004 f i libvcruntime:trnsctrl.obj
 0001:00034031       ??$forward@AAViterator@TryBlockMap@__FrameHandler3@@@std@@YAAAViterator@TryBlockMap@__FrameHandler3@@AAV123@@Z 10035031 f i libvcruntime:trnsctrl.obj
 0001:0003403b       ??0iterator@TryBlockMap@__FrameHandler3@@QAE@AAV12@I@Z 1003503b f i libvcruntime:trnsctrl.obj
 0001:00034054       ?GetRangeOfTrysToCheck@__FrameHandler3@@SA?AU?$pair@Viterator@TryBlockMap@__FrameHandler3@@V123@@std@@AAVTryBlockMap@1@HPAXPBU_s_FuncInfo@@H@Z 10035054 f   libvcruntime:trnsctrl.obj
 0001:000340e0       ?_CallCatchBlock2@@YAPAXPAUEHRegistrationNode@@PBU_s_FuncInfo@@PAXHK@Z 100350e0 f   libvcruntime:trnsctrl.obj
 0001:00034155       ?_CallSETranslator@@YAHPAUEHExceptionRecord@@PAUEHRegistrationNode@@PAX2PBU_s_FuncInfo@@H1@Z 10035155 f   libvcruntime:trnsctrl.obj
 0001:00034274       ?_JumpToContinuation@@YGXPAXPAUEHRegistrationNode@@@Z 10035274 f   libvcruntime:trnsctrl.obj
 0001:000342b0       ?_UnwindNestedFrames@@YGXPAUEHRegistrationNode@@PAUEHExceptionRecord@@@Z 100352b0 f   libvcruntime:trnsctrl.obj
 0001:00034317       __CatchGuardHandler        10035317 f   libvcruntime:trnsctrl.obj
 0001:00034354       __CreateFrameInfo          10035354 f   libvcruntime:trnsctrl.obj
 0001:00034381       __FindAndUnlinkFrame       10035381 f   libvcruntime:trnsctrl.obj
 0001:000343db       __TranslatorGuardHandler   100353db f   libvcruntime:trnsctrl.obj
 0001:0003449f       ___CxxFrameHandler         1003549f f   libvcruntime:trnsctrl.obj
 0001:000344e2       ___CxxFrameHandler2        100354e2 f   libvcruntime:trnsctrl.obj
 0001:00034525       ___CxxFrameHandler3        10035525 f   libvcruntime:trnsctrl.obj
 0001:00034568       ___CxxLongjmpUnwind@4      10035568 f   libvcruntime:trnsctrl.obj
 0001:00034596       ??$__crt_interlocked_exchange_pointer@UHINSTANCE__@@PAU1@@@YAPAUHINSTANCE__@@PDSAU0@QAU0@@Z 10035596 f i libvcruntime:winapi_downlevel.obj
 0001:000345a6       ??$__crt_interlocked_exchange_pointer@UHINSTANCE__@@PAX@@YAPAUHINSTANCE__@@PDSAU0@QAX@Z 100355a6 f i libvcruntime:winapi_downlevel.obj
 0001:000345b6       ??$__crt_interlocked_exchange_pointer@XPAX@@YAPAXPDSAXQAX@Z 100355b6 f i libvcruntime:winapi_downlevel.obj
 0001:000345c6       ??$__crt_interlocked_read_pointer@UHINSTANCE__@@@@YAPAUHINSTANCE__@@PDSAU0@@Z 100355c6 f i libvcruntime:winapi_downlevel.obj
 0001:000345d2       ??$__crt_interlocked_read_pointer@X@@YAPAXPDSAX@Z 100355d2 f i libvcruntime:winapi_downlevel.obj
 0001:00034886       ___vcrt_FlsAlloc           10035886 f   libvcruntime:winapi_downlevel.obj
 0001:000348cf       ___vcrt_FlsFree            100358cf f   libvcruntime:winapi_downlevel.obj
 0001:00034918       ___vcrt_FlsGetValue        10035918 f   libvcruntime:winapi_downlevel.obj
 0001:00034961       ___vcrt_FlsSetValue        10035961 f   libvcruntime:winapi_downlevel.obj
 0001:000349ae       ___vcrt_InitializeCriticalSectionEx 100359ae f   libvcruntime:winapi_downlevel.obj
 0001:00035318       ??$TypeMatchHelper@V__FrameHandler3@@@@YAHPBU_s_HandlerType@@PBU_s_CatchableType@@PBU_s_ThrowInfo@@@Z 10036318 f i libvcruntime:frame.obj
 0001:000353c9       ??$__InternalCxxFrameHandler@V__FrameHandler3@@@@YA?AW4_EXCEPTION_DISPOSITION@@PAUEHExceptionRecord@@PAUEHRegistrationNode@@PAU_CONTEXT@@PAXPBU_s_FuncInfo@@H1E@Z 100363c9 f i libvcruntime:frame.obj
 0001:0003550b       ??0HandlerMap@__FrameHandler3@@QAE@PBU_s_TryBlockMapEntry@@II@Z 1003650b f i libvcruntime:frame.obj
 0001:00035527       ??0TryBlockMap@__FrameHandler3@@QAE@PBU_s_FuncInfo@@I@Z 10036527 f i libvcruntime:frame.obj
 0001:00035540       ??0bad_exception@std@@QAE@ABV01@@Z 10036540 f i libvcruntime:frame.obj
 0001:00035561       ??0bad_exception@std@@QAE@XZ 10036561 f i libvcruntime:frame.obj
 0001:0003557f       ??0exception@std@@QAE@ABV01@@Z 1003657f f i libvcruntime:frame.obj
 0001:000355b6       ??0exception@std@@QAE@QBDH@Z 100365b6 f i libvcruntime:frame.obj
 0001:000355da       ??0iterator@HandlerMap@__FrameHandler3@@QAE@AAV12@I@Z 100365da f i libvcruntime:frame.obj
 0001:000355f3       ??1bad_exception@std@@UAE@XZ 100365f3 f i libvcruntime:frame.obj
 0001:00035608       ??1exception@std@@UAE@XZ   10036608 f i libvcruntime:frame.obj
 0001:0003561d       ??8iterator@HandlerMap@__FrameHandler3@@QBE_NABV012@@Z 1003661d f i libvcruntime:frame.obj
 0001:00035634       ??8type_info@@QBE_NABV0@@Z 10036634 f i libvcruntime:frame.obj
 0001:0003565a       ??9iterator@HandlerMap@__FrameHandler3@@QBE_NABV012@@Z 1003665a f i libvcruntime:frame.obj
 0001:00035671       ??Diterator@HandlerMap@__FrameHandler3@@QAE?BU_s_HandlerType@@XZ 10036671 f i libvcruntime:frame.obj
 0001:00035697       ??Diterator@TryBlockMap@__FrameHandler3@@QAE?BU_s_TryBlockMapEntry@@XZ 10036697 f i libvcruntime:frame.obj
 0001:000356c1       ??Eiterator@HandlerMap@__FrameHandler3@@QAEAAV012@XZ 100366c1 f i libvcruntime:frame.obj
 0001:000356c7       ??Eiterator@TryBlockMap@__FrameHandler3@@QAEAAV012@XZ 100366c7 f i libvcruntime:frame.obj
 0001:000356cd       ??Miterator@TryBlockMap@__FrameHandler3@@QBE_NABV012@@Z 100366cd f i libvcruntime:frame.obj
 0001:000356e4       ??_Ebad_exception@std@@UAEPAXI@Z 100366e4 f i libvcruntime:frame.obj
 0001:000356e4       ??_Gbad_exception@std@@UAEPAXI@Z 100366e4 f i libvcruntime:frame.obj
 0001:0003571c       ??_Eexception@std@@UAEPAXI@Z 1003671c f i libvcruntime:frame.obj
 0001:0003571c       ??_Gexception@std@@UAEPAXI@Z 1003671c f i libvcruntime:frame.obj
 0001:00035754       ?BuildCatchObject@__FrameHandler3@@SAXPAUEHExceptionRecord@@PAXPBU_s_HandlerType@@PBU_s_CatchableType@@@Z 10036754 f   libvcruntime:frame.obj
 0001:00035759       ?BuildCatchObjectHelper@__FrameHandler3@@SAHPAUEHExceptionRecord@@PAXPBU_s_HandlerType@@PBU_s_CatchableType@@@Z 10036759 f   libvcruntime:frame.obj
 0001:00035a43       ?FrameUnwindToEmptyState@__FrameHandler3@@SAXPAUEHRegistrationNode@@PAXPBU_s_FuncInfo@@@Z 10036a43 f   libvcruntime:frame.obj
 0001:00035a61       ?FrameUnwindToState@__FrameHandler3@@SAXPAUEHRegistrationNode@@PAXPBU_s_FuncInfo@@H@Z 10036a61 f   libvcruntime:frame.obj
 0001:00035b83       ?GetMaxState@__FrameHandler3@@SAHPAXPBU_s_FuncInfo@@@Z 10036b83 f i libvcruntime:frame.obj
 0001:00035c97       ?TypeMatch@__FrameHandler3@@SAHPBU_s_HandlerType@@PBU_s_CatchableType@@PBU_s_ThrowInfo@@@Z 10036c97 f   libvcruntime:frame.obj
 0001:00035ca2       ?_CallMemberFunction1@@YGXQAX00@Z 10036ca2 f i libvcruntime:frame.obj
 0001:00035cb6       ?_CallMemberFunction2@@YGXQAX00H@Z 10036cb6 f i libvcruntime:frame.obj
 0001:00035ccd       ?begin@HandlerMap@__FrameHandler3@@QAE?AViterator@12@XZ 10036ccd f i libvcruntime:frame.obj
 0001:00035ce1       ?end@HandlerMap@__FrameHandler3@@QAE?AViterator@12@XZ 10036ce1 f i libvcruntime:frame.obj
 0001:00035cf6       ?getESTypes@__FrameHandler3@@SAPBU_s_ESTypeList@@PBU_s_FuncInfo@@@Z 10036cf6 f i libvcruntime:frame.obj
 0001:00035d03       ?getLastEntry@HandlerMap@__FrameHandler3@@QAEPBU_s_HandlerType@@XZ 10036d03 f i libvcruntime:frame.obj
 0001:00035d14       ?getMagicNum@__FrameHandler3@@SAIPBU_s_FuncInfo@@@Z 10036d14 f i libvcruntime:frame.obj
 0001:00035d26       ?getNumTryBlocks@TryBlockMap@__FrameHandler3@@QAEIXZ 10036d26 f i libvcruntime:frame.obj
 0001:00035d2c       ?isEHs@__FrameHandler3@@SA_NPBU_s_FuncInfo@@@Z 10036d2c f i libvcruntime:frame.obj
 0001:00035d3c       ?isNoExcept@__FrameHandler3@@SA_NPBU_s_FuncInfo@@@Z 10036d3c f i libvcruntime:frame.obj
 0001:00035d50       ?what@exception@std@@UBEPBDXZ 10036d50 f i libvcruntime:frame.obj
 0001:00035d60       ___BuildCatchObject        10036d60 f   libvcruntime:frame.obj
 0001:00035d65       ___BuildCatchObjectHelper  10036d65 f   libvcruntime:frame.obj
 0001:00035d70       ___TypeMatch               10036d70 f   libvcruntime:frame.obj
 0001:00035d7b       ___vcrt_EncodePointer      10036d7b f i libvcruntime:frame.obj
 0001:00035d90       __CallSettingFrame@12      10036d90 f   libvcruntime:lowhelpr.obj
 0001:00035db7       __NLG_Return               10036db7     libvcruntime:lowhelpr.obj
 0001:00035e08       __get_unexpected           10036e08 f   libvcruntime:unexpected.obj
 0001:00035e1e       _set_unexpected            10036e1e f   libvcruntime:unexpected.obj
 0001:00035e43       _unexpected                10036e43 f   libvcruntime:unexpected.obj
 0001:00035e67       ?GetCurrentState@__FrameHandler3@@SAHPAUEHRegistrationNode@@PAXPBU_s_FuncInfo@@@Z 10036e67 f   libvcruntime:ehstate.obj
 0001:00035e8b       ?SetState@__FrameHandler3@@SAXPAUEHRegistrationNode@@PBU_s_FuncInfo@@H@Z 10036e8b f   libvcruntime:ehstate.obj
 0001:00035e9c       ??$?RD@__crt_public_free_policy@@QBEXQBD@Z 10036e9c f i libvcruntime:std_exception.obj
 0001:00035eb0       ??0?$__crt_unique_heap_ptr@DU__crt_public_free_policy@@@@QAE@QAD@Z 10036eb0 f i libvcruntime:std_exception.obj
 0001:00035ec1       ??1?$__crt_unique_heap_ptr@DU__crt_public_free_policy@@@@QAE@XZ 10036ec1 f i libvcruntime:std_exception.obj
 0001:00035ed5       ??B?$__crt_unique_heap_ptr@DU__crt_public_free_policy@@@@QBE_NXZ 10036ed5 f i libvcruntime:std_exception.obj
 0001:00035edc       ?detach@?$__crt_unique_heap_ptr@DU__crt_public_free_policy@@@@QAEPADXZ 10036edc f i libvcruntime:std_exception.obj
 0001:00035ee2       ?get@?$__crt_unique_heap_ptr@DU__crt_public_free_policy@@@@QBEPADXZ 10036ee2 f i libvcruntime:std_exception.obj
 0001:00035ee5       ?is_valid@?$__crt_unique_heap_ptr@DU__crt_public_free_policy@@@@QBE_NXZ 10036ee5 f i libvcruntime:std_exception.obj
 0001:00035eec       ?release@?$__crt_unique_heap_ptr@DU__crt_public_free_policy@@@@QAEXXZ 10036eec f i libvcruntime:std_exception.obj
 0001:00035f00       ___std_exception_copy      10036f00 f   libvcruntime:std_exception.obj
 0001:00035f7b       ___std_exception_destroy   10036f7b f   libvcruntime:std_exception.obj
 0001:00035fa1       __CxxThrowException@8      10036fa1 f   libvcruntime:throw.obj
 0001:00036028       _malloc                    10037028 f   libucrt:malloc.obj
 0001:00036035       _free                      10037035 f   libucrt:free.obj
 0001:00036056       ??$?RPAU__crt_stdio_stream_data@@@__crt_internal_free_policy@@QBEXQBQAU__crt_stdio_stream_data@@@Z 10037056 f i libucrt:_file.obj
 0001:0003606c       ??0?$__crt_unique_heap_ptr@PAU__crt_stdio_stream_data@@U__crt_internal_free_policy@@@@QAE@QAPAU__crt_stdio_stream_data@@@Z 1003706c f i libucrt:_file.obj
 0001:00036080       ??0__crt_stdio_stream@@QAE@QAU_iobuf@@@Z 10037080 f i libucrt:_file.obj
 0001:00036094       ??1?$__crt_unique_heap_ptr@PAU__crt_stdio_stream_data@@U__crt_internal_free_policy@@@@QAE@XZ 10037094 f i libucrt:_file.obj
 0001:000360aa       ??C__crt_stdio_stream@@QBEPAU__crt_stdio_stream_data@@XZ 100370aa f i libucrt:_file.obj
 0001:000360ad       ?detach@?$__crt_unique_heap_ptr@PAU__crt_stdio_stream_data@@U__crt_internal_free_policy@@@@QAEPAPAU__crt_stdio_stream_data@@XZ 100370ad f i libucrt:_file.obj
 0001:000360b3       ?release@?$__crt_unique_heap_ptr@PAU__crt_stdio_stream_data@@U__crt_internal_free_policy@@@@QAEXXZ 100370b3 f i libucrt:_file.obj
 0001:000360c9       ___acrt_initialize_stdio   100370c9 f   libucrt:_file.obj
 0001:000361c3       ___acrt_iob_func           100371c3 f   libucrt:_file.obj
 0001:000361d7       ___acrt_uninitialize_stdio 100371d7 f   libucrt:_file.obj
 0001:00036236       __get_stream_buffer_pointers 10037236 f   libucrt:_file.obj
 0001:0003628d       __lock_file                1003728d f   libucrt:_file.obj
 0001:000362a6       __unlock_file              100372a6 f   libucrt:_file.obj
 0001:000362bf       ??$?0ABV?$stream_output_adapter@D@__crt_stdio_output@@AB_KABQBDABQAU__crt_locale_pointers@@ABQAD@?$format_validation_base@DV?$stream_output_adapter@D@__crt_stdio_output@@@__crt_stdio_output@@IAE@ABV?$stream_output_adapter@D@1@AB_KABQBDABQAU__crt_locale_pointers@@ABQAD@Z 100372bf f i libucrt:output.obj
 0001:000362ea       ??$?0ABV?$stream_output_adapter@D@__crt_stdio_output@@AB_KABQBDABQAU__crt_locale_pointers@@ABQAD@?$positional_parameter_base@DV?$stream_output_adapter@D@__crt_stdio_output@@@__crt_stdio_output@@IAE@ABV?$stream_output_adapter@D@1@AB_KABQBDABQAU__crt_locale_pointers@@ABQAD@Z 100372ea f i libucrt:output.obj
 0001:00036344       ??$?0ABV?$stream_output_adapter@D@__crt_stdio_output@@AB_KABQBDABQAU__crt_locale_pointers@@ABQAD@?$standard_base@DV?$stream_output_adapter@D@__crt_stdio_output@@@__crt_stdio_output@@IAE@ABV?$stream_output_adapter@D@1@AB_KABQBDABQAU__crt_locale_pointers@@ABQAD@Z 10037344 f i libucrt:output.obj
 0001:00036386       ??$?0ABV?$stream_output_adapter@_W@__crt_stdio_output@@AB_KABQB_WABQAU__crt_locale_pointers@@ABQAD@?$format_validation_base@_WV?$stream_output_adapter@_W@__crt_stdio_output@@@__crt_stdio_output@@IAE@ABV?$stream_output_adapter@_W@1@AB_KABQB_WABQAU__crt_locale_pointers@@ABQAD@Z 10037386 f i libucrt:output.obj
 0001:000363b1       ??$?0ABV?$stream_output_adapter@_W@__crt_stdio_output@@AB_KABQB_WABQAU__crt_locale_pointers@@ABQAD@?$positional_parameter_base@_WV?$stream_output_adapter@_W@__crt_stdio_output@@@__crt_stdio_output@@IAE@ABV?$stream_output_adapter@_W@1@AB_KABQB_WABQAU__crt_locale_pointers@@ABQAD@Z 100373b1 f i libucrt:output.obj
 0001:0003640b       ??$?0ABV?$stream_output_adapter@_W@__crt_stdio_output@@AB_KABQB_WABQAU__crt_locale_pointers@@ABQAD@?$standard_base@_WV?$stream_output_adapter@_W@__crt_stdio_output@@@__crt_stdio_output@@IAE@ABV?$stream_output_adapter@_W@1@AB_KABQB_WABQAU__crt_locale_pointers@@ABQAD@Z 1003740b f i libucrt:output.obj
 0001:0003644d       ??$?0ABV?$string_output_adapter@D@__crt_stdio_output@@AB_KABQBDABQAU__crt_locale_pointers@@ABQAD@?$format_validation_base@DV?$string_output_adapter@D@__crt_stdio_output@@@__crt_stdio_output@@IAE@ABV?$string_output_adapter@D@1@AB_KABQBDABQAU__crt_locale_pointers@@ABQAD@Z 1003744d f i libucrt:output.obj
 0001:00036478       ??$?0ABV?$string_output_adapter@D@__crt_stdio_output@@AB_KABQBDABQAU__crt_locale_pointers@@ABQAD@?$positional_parameter_base@DV?$string_output_adapter@D@__crt_stdio_output@@@__crt_stdio_output@@IAE@ABV?$string_output_adapter@D@1@AB_KABQBDABQAU__crt_locale_pointers@@ABQAD@Z 10037478 f i libucrt:output.obj
 0001:000364d2       ??$?0ABV?$string_output_adapter@D@__crt_stdio_output@@AB_KABQBDABQAU__crt_locale_pointers@@ABQAD@?$standard_base@DV?$string_output_adapter@D@__crt_stdio_output@@@__crt_stdio_output@@IAE@ABV?$string_output_adapter@D@1@AB_KABQBDABQAU__crt_locale_pointers@@ABQAD@Z 100374d2 f i libucrt:output.obj
 0001:00036514       ??$?0ABV?$string_output_adapter@_W@__crt_stdio_output@@AB_KABQB_WABQAU__crt_locale_pointers@@ABQAD@?$format_validation_base@_WV?$string_output_adapter@_W@__crt_stdio_output@@@__crt_stdio_output@@IAE@ABV?$string_output_adapter@_W@1@AB_KABQB_WABQAU__crt_locale_pointers@@ABQAD@Z 10037514 f i libucrt:output.obj
 0001:0003653f       ??$?0ABV?$string_output_adapter@_W@__crt_stdio_output@@AB_KABQB_WABQAU__crt_locale_pointers@@ABQAD@?$positional_parameter_base@_WV?$string_output_adapter@_W@__crt_stdio_output@@@__crt_stdio_output@@IAE@ABV?$string_output_adapter@_W@1@AB_KABQB_WABQAU__crt_locale_pointers@@ABQAD@Z 1003753f f i libucrt:output.obj
 0001:00036599       ??$?0ABV?$string_output_adapter@_W@__crt_stdio_output@@AB_KABQB_WABQAU__crt_locale_pointers@@ABQAD@?$standard_base@_WV?$string_output_adapter@_W@__crt_stdio_output@@@__crt_stdio_output@@IAE@ABV?$string_output_adapter@_W@1@AB_KABQB_WABQAU__crt_locale_pointers@@ABQAD@Z 10037599 f i libucrt:output.obj
 0001:0003699b       ??$__crt_interlocked_read@J@@YAJPDJ@Z 1003799b f i libucrt:output.obj
 0001:00037bdd       ??$count@D@formatting_buffer@__crt_stdio_output@@QBEIXZ 10038bdd f i libucrt:output.obj
 0001:00037bfb       ??$count@_W@formatting_buffer@__crt_stdio_output@@QBEIXZ 10038bfb f i libucrt:output.obj
 0001:00037c1a       ??$data@D@formatting_buffer@__crt_stdio_output@@QAEPADXZ 10038c1a f i libucrt:output.obj
 0001:00037c2a       ??$data@_W@formatting_buffer@__crt_stdio_output@@QAEPA_WXZ 10038c2a f i libucrt:output.obj
 0001:00037c3a       ??$ensure_buffer_is_big_enough@D@formatting_buffer@__crt_stdio_output@@QAE_NI@Z 10038c3a f i libucrt:output.obj
 0001:00037cd6       ??$ensure_buffer_is_big_enough@_W@formatting_buffer@__crt_stdio_output@@QAE_NI@Z 10038cd6 f i libucrt:output.obj
 0001:00037d73       ??$extract_argument_from_va_list@C_J@?$positional_parameter_base@DV?$stream_output_adapter@D@__crt_stdio_output@@@__crt_stdio_output@@IAE_NAA_J@Z 10038d73 f i libucrt:output.obj
 0001:00037e0a       ??$extract_argument_from_va_list@C_J@?$positional_parameter_base@DV?$string_output_adapter@D@__crt_stdio_output@@@__crt_stdio_output@@IAE_NAA_J@Z 10038e0a f i libucrt:output.obj
 0001:00037ea1       ??$extract_argument_from_va_list@C_J@?$positional_parameter_base@_WV?$stream_output_adapter@_W@__crt_stdio_output@@@__crt_stdio_output@@IAE_NAA_J@Z 10038ea1 f i libucrt:output.obj
 0001:00037f38       ??$extract_argument_from_va_list@C_J@?$positional_parameter_base@_WV?$string_output_adapter@_W@__crt_stdio_output@@@__crt_stdio_output@@IAE_NAA_J@Z 10038f38 f i libucrt:output.obj
 0001:00037fcf       ??$extract_argument_from_va_list@C_J@?$standard_base@DV?$stream_output_adapter@D@__crt_stdio_output@@@__crt_stdio_output@@IAE_NAA_J@Z 10038fcf f i libucrt:output.obj
 0001:00037ff5       ??$extract_argument_from_va_list@C_J@?$standard_base@DV?$string_output_adapter@D@__crt_stdio_output@@@__crt_stdio_output@@IAE_NAA_J@Z 10038ff5 f i libucrt:output.obj
 0001:0003801b       ??$extract_argument_from_va_list@C_J@?$standard_base@_WV?$stream_output_adapter@_W@__crt_stdio_output@@@__crt_stdio_output@@IAE_NAA_J@Z 1003901b f i libucrt:output.obj
 0001:00038041       ??$extract_argument_from_va_list@C_J@?$standard_base@_WV?$string_output_adapter@_W@__crt_stdio_output@@@__crt_stdio_output@@IAE_NAA_J@Z 10039041 f i libucrt:output.obj
 0001:00038067       ??$extract_argument_from_va_list@E_J@?$positional_parameter_base@DV?$stream_output_adapter@D@__crt_stdio_output@@@__crt_stdio_output@@IAE_NAA_J@Z 10039067 f i libucrt:output.obj
 0001:000380fe       ??$extract_argument_from_va_list@E_J@?$positional_parameter_base@DV?$string_output_adapter@D@__crt_stdio_output@@@__crt_stdio_output@@IAE_NAA_J@Z 100390fe f i libucrt:output.obj
 0001:00038195       ??$extract_argument_from_va_list@E_J@?$positional_parameter_base@_WV?$stream_output_adapter@_W@__crt_stdio_output@@@__crt_stdio_output@@IAE_NAA_J@Z 10039195 f i libucrt:output.obj
 0001:0003822c       ??$extract_argument_from_va_list@E_J@?$positional_parameter_base@_WV?$string_output_adapter@_W@__crt_stdio_output@@@__crt_stdio_output@@IAE_NAA_J@Z 1003922c f i libucrt:output.obj
 0001:000382c3       ??$extract_argument_from_va_list@E_J@?$standard_base@DV?$stream_output_adapter@D@__crt_stdio_output@@@__crt_stdio_output@@IAE_NAA_J@Z 100392c3 f i libucrt:output.obj
 0001:000382e9       ??$extract_argument_from_va_list@E_J@?$standard_base@DV?$string_output_adapter@D@__crt_stdio_output@@@__crt_stdio_output@@IAE_NAA_J@Z 100392e9 f i libucrt:output.obj
 0001:0003830f       ??$extract_argument_from_va_list@E_J@?$standard_base@_WV?$stream_output_adapter@_W@__crt_stdio_output@@@__crt_stdio_output@@IAE_NAA_J@Z 1003930f f i libucrt:output.obj
 0001:00038335       ??$extract_argument_from_va_list@E_J@?$standard_base@_WV?$string_output_adapter@_W@__crt_stdio_output@@@__crt_stdio_output@@IAE_NAA_J@Z 10039335 f i libucrt:output.obj
 0001:0003835b       ??$extract_argument_from_va_list@F_J@?$positional_parameter_base@DV?$stream_output_adapter@D@__crt_stdio_output@@@__crt_stdio_output@@IAE_NAA_J@Z 1003935b f i libucrt:output.obj
 0001:000383f2       ??$extract_argument_from_va_list@F_J@?$positional_parameter_base@DV?$string_output_adapter@D@__crt_stdio_output@@@__crt_stdio_output@@IAE_NAA_J@Z 100393f2 f i libucrt:output.obj
 0001:00038489       ??$extract_argument_from_va_list@F_J@?$positional_parameter_base@_WV?$stream_output_adapter@_W@__crt_stdio_output@@@__crt_stdio_output@@IAE_NAA_J@Z 10039489 f i libucrt:output.obj
 0001:00038520       ??$extract_argument_from_va_list@F_J@?$positional_parameter_base@_WV?$string_output_adapter@_W@__crt_stdio_output@@@__crt_stdio_output@@IAE_NAA_J@Z 10039520 f i libucrt:output.obj
 0001:000385b7       ??$extract_argument_from_va_list@F_J@?$standard_base@DV?$stream_output_adapter@D@__crt_stdio_output@@@__crt_stdio_output@@IAE_NAA_J@Z 100395b7 f i libucrt:output.obj
 0001:000385dd       ??$extract_argument_from_va_list@F_J@?$standard_base@DV?$string_output_adapter@D@__crt_stdio_output@@@__crt_stdio_output@@IAE_NAA_J@Z 100395dd f i libucrt:output.obj
 0001:00038603       ??$extract_argument_from_va_list@F_J@?$standard_base@_WV?$stream_output_adapter@_W@__crt_stdio_output@@@__crt_stdio_output@@IAE_NAA_J@Z 10039603 f i libucrt:output.obj
 0001:00038629       ??$extract_argument_from_va_list@F_J@?$standard_base@_WV?$string_output_adapter@_W@__crt_stdio_output@@@__crt_stdio_output@@IAE_NAA_J@Z 10039629 f i libucrt:output.obj
 0001:0003864f       ??$extract_argument_from_va_list@GD@?$positional_parameter_base@DV?$stream_output_adapter@D@__crt_stdio_output@@@__crt_stdio_output@@IAE_NAAD@Z 1003964f f i libucrt:output.obj
 0001:000386e5       ??$extract_argument_from_va_list@GD@?$positional_parameter_base@DV?$string_output_adapter@D@__crt_stdio_output@@@__crt_stdio_output@@IAE_NAAD@Z 100396e5 f i libucrt:output.obj
 0001:0003877b       ??$extract_argument_from_va_list@GD@?$standard_base@DV?$stream_output_adapter@D@__crt_stdio_output@@@__crt_stdio_output@@IAE_NAAD@Z 1003977b f i libucrt:output.obj
 0001:0003879b       ??$extract_argument_from_va_list@GD@?$standard_base@DV?$string_output_adapter@D@__crt_stdio_output@@@__crt_stdio_output@@IAE_NAAD@Z 1003979b f i libucrt:output.obj
 0001:000387bb       ??$extract_argument_from_va_list@G_J@?$positional_parameter_base@DV?$stream_output_adapter@D@__crt_stdio_output@@@__crt_stdio_output@@IAE_NAA_J@Z 100397bb f i libucrt:output.obj
 0001:00038852       ??$extract_argument_from_va_list@G_J@?$positional_parameter_base@DV?$string_output_adapter@D@__crt_stdio_output@@@__crt_stdio_output@@IAE_NAA_J@Z 10039852 f i libucrt:output.obj
 0001:000388e9       ??$extract_argument_from_va_list@G_J@?$positional_parameter_base@_WV?$stream_output_adapter@_W@__crt_stdio_output@@@__crt_stdio_output@@IAE_NAA_J@Z 100398e9 f i libucrt:output.obj
 0001:00038980       ??$extract_argument_from_va_list@G_J@?$positional_parameter_base@_WV?$string_output_adapter@_W@__crt_stdio_output@@@__crt_stdio_output@@IAE_NAA_J@Z 10039980 f i libucrt:output.obj
 0001:00038a17       ??$extract_argument_from_va_list@G_J@?$standard_base@DV?$stream_output_adapter@D@__crt_stdio_output@@@__crt_stdio_output@@IAE_NAA_J@Z 10039a17 f i libucrt:output.obj
 0001:00038a3d       ??$extract_argument_from_va_list@G_J@?$standard_base@DV?$string_output_adapter@D@__crt_stdio_output@@@__crt_stdio_output@@IAE_NAA_J@Z 10039a3d f i libucrt:output.obj
 0001:00038a63       ??$extract_argument_from_va_list@G_J@?$standard_base@_WV?$stream_output_adapter@_W@__crt_stdio_output@@@__crt_stdio_output@@IAE_NAA_J@Z 10039a63 f i libucrt:output.obj
 0001:00038a89       ??$extract_argument_from_va_list@G_J@?$standard_base@_WV?$string_output_adapter@_W@__crt_stdio_output@@@__crt_stdio_output@@IAE_NAA_J@Z 10039a89 f i libucrt:output.obj
 0001:00038aaf       ??$extract_argument_from_va_list@H_J@?$positional_parameter_base@DV?$stream_output_adapter@D@__crt_stdio_output@@@__crt_stdio_output@@IAE_NAA_J@Z 10039aaf f i libucrt:output.obj
 0001:00038b43       ??$extract_argument_from_va_list@H_J@?$positional_parameter_base@DV?$string_output_adapter@D@__crt_stdio_output@@@__crt_stdio_output@@IAE_NAA_J@Z 10039b43 f i libucrt:output.obj
 0001:00038bd7       ??$extract_argument_from_va_list@H_J@?$positional_parameter_base@_WV?$stream_output_adapter@_W@__crt_stdio_output@@@__crt_stdio_output@@IAE_NAA_J@Z 10039bd7 f i libucrt:output.obj
 0001:00038c6b       ??$extract_argument_from_va_list@H_J@?$positional_parameter_base@_WV?$string_output_adapter@_W@__crt_stdio_output@@@__crt_stdio_output@@IAE_NAA_J@Z 10039c6b f i libucrt:output.obj
 0001:00038cff       ??$extract_argument_from_va_list@H_J@?$standard_base@DV?$stream_output_adapter@D@__crt_stdio_output@@@__crt_stdio_output@@IAE_NAA_J@Z 10039cff f i libucrt:output.obj
 0001:00038d24       ??$extract_argument_from_va_list@H_J@?$standard_base@DV?$string_output_adapter@D@__crt_stdio_output@@@__crt_stdio_output@@IAE_NAA_J@Z 10039d24 f i libucrt:output.obj
 0001:00038d49       ??$extract_argument_from_va_list@H_J@?$standard_base@_WV?$stream_output_adapter@_W@__crt_stdio_output@@@__crt_stdio_output@@IAE_NAA_J@Z 10039d49 f i libucrt:output.obj
 0001:00038d6e       ??$extract_argument_from_va_list@H_J@?$standard_base@_WV?$string_output_adapter@_W@__crt_stdio_output@@@__crt_stdio_output@@IAE_NAA_J@Z 10039d6e f i libucrt:output.obj
 0001:00038d93       ??$extract_argument_from_va_list@I_J@?$positional_parameter_base@DV?$stream_output_adapter@D@__crt_stdio_output@@@__crt_stdio_output@@IAE_NAA_J@Z 10039d93 f i libucrt:output.obj
 0001:00038e33       ??$extract_argument_from_va_list@I_J@?$positional_parameter_base@DV?$string_output_adapter@D@__crt_stdio_output@@@__crt_stdio_output@@IAE_NAA_J@Z 10039e33 f i libucrt:output.obj
 0001:00038ed3       ??$extract_argument_from_va_list@I_J@?$positional_parameter_base@_WV?$stream_output_adapter@_W@__crt_stdio_output@@@__crt_stdio_output@@IAE_NAA_J@Z 10039ed3 f i libucrt:output.obj
 0001:00038f73       ??$extract_argument_from_va_list@I_J@?$positional_parameter_base@_WV?$string_output_adapter@_W@__crt_stdio_output@@@__crt_stdio_output@@IAE_NAA_J@Z 10039f73 f i libucrt:output.obj
 0001:00039013       ??$extract_argument_from_va_list@I_J@?$standard_base@DV?$stream_output_adapter@D@__crt_stdio_output@@@__crt_stdio_output@@IAE_NAA_J@Z 1003a013 f i libucrt:output.obj
 0001:00039038       ??$extract_argument_from_va_list@I_J@?$standard_base@DV?$string_output_adapter@D@__crt_stdio_output@@@__crt_stdio_output@@IAE_NAA_J@Z 1003a038 f i libucrt:output.obj
 0001:0003905d       ??$extract_argument_from_va_list@I_J@?$standard_base@_WV?$stream_output_adapter@_W@__crt_stdio_output@@@__crt_stdio_output@@IAE_NAA_J@Z 1003a05d f i libucrt:output.obj
 0001:00039082       ??$extract_argument_from_va_list@I_J@?$standard_base@_WV?$string_output_adapter@_W@__crt_stdio_output@@@__crt_stdio_output@@IAE_NAA_J@Z 1003a082 f i libucrt:output.obj
 0001:000390a7       ??$extract_argument_from_va_list@PADPAD@?$positional_parameter_base@DV?$stream_output_adapter@D@__crt_stdio_output@@@__crt_stdio_output@@IAE_NAAPAD@Z 1003a0a7 f i libucrt:output.obj
 0001:0003913d       ??$extract_argument_from_va_list@PADPAD@?$positional_parameter_base@DV?$string_output_adapter@D@__crt_stdio_output@@@__crt_stdio_output@@IAE_NAAPAD@Z 1003a13d f i libucrt:output.obj
 0001:000391d3       ??$extract_argument_from_va_list@PADPAD@?$positional_parameter_base@_WV?$stream_output_adapter@_W@__crt_stdio_output@@@__crt_stdio_output@@IAE_NAAPAD@Z 1003a1d3 f i libucrt:output.obj
 0001:00039269       ??$extract_argument_from_va_list@PADPAD@?$positional_parameter_base@_WV?$string_output_adapter@_W@__crt_stdio_output@@@__crt_stdio_output@@IAE_NAAPAD@Z 1003a269 f i libucrt:output.obj
 0001:000392ff       ??$extract_argument_from_va_list@PADPAD@?$standard_base@DV?$stream_output_adapter@D@__crt_stdio_output@@@__crt_stdio_output@@IAE_NAAPAD@Z 1003a2ff f i libucrt:output.obj
 0001:0003931f       ??$extract_argument_from_va_list@PADPAD@?$standard_base@DV?$string_output_adapter@D@__crt_stdio_output@@@__crt_stdio_output@@IAE_NAAPAD@Z 1003a31f f i libucrt:output.obj
 0001:0003933f       ??$extract_argument_from_va_list@PADPAD@?$standard_base@_WV?$stream_output_adapter@_W@__crt_stdio_output@@@__crt_stdio_output@@IAE_NAAPAD@Z 1003a33f f i libucrt:output.obj
 0001:0003935f       ??$extract_argument_from_va_list@PADPAD@?$standard_base@_WV?$string_output_adapter@_W@__crt_stdio_output@@@__crt_stdio_output@@IAE_NAAPAD@Z 1003a35f f i libucrt:output.obj
 0001:00039757       ??$extract_argument_from_va_list@PAXPAX@?$positional_parameter_base@DV?$stream_output_adapter@D@__crt_stdio_output@@@__crt_stdio_output@@IAE_NAAPAX@Z 1003a757 f i libucrt:output.obj
 0001:000397ed       ??$extract_argument_from_va_list@PAXPAX@?$positional_parameter_base@DV?$string_output_adapter@D@__crt_stdio_output@@@__crt_stdio_output@@IAE_NAAPAX@Z 1003a7ed f i libucrt:output.obj
 0001:00039883       ??$extract_argument_from_va_list@PAXPAX@?$positional_parameter_base@_WV?$stream_output_adapter@_W@__crt_stdio_output@@@__crt_stdio_output@@IAE_NAAPAX@Z 1003a883 f i libucrt:output.obj
 0001:00039919       ??$extract_argument_from_va_list@PAXPAX@?$positional_parameter_base@_WV?$string_output_adapter@_W@__crt_stdio_output@@@__crt_stdio_output@@IAE_NAAPAX@Z 1003a919 f i libucrt:output.obj
 0001:000399af       ??$extract_argument_from_va_list@PAXPAX@?$standard_base@DV?$stream_output_adapter@D@__crt_stdio_output@@@__crt_stdio_output@@IAE_NAAPAX@Z 1003a9af f i libucrt:output.obj
 0001:000399cf       ??$extract_argument_from_va_list@PAXPAX@?$standard_base@DV?$string_output_adapter@D@__crt_stdio_output@@@__crt_stdio_output@@IAE_NAAPAX@Z 1003a9cf f i libucrt:output.obj
 0001:000399ef       ??$extract_argument_from_va_list@PAXPAX@?$standard_base@_WV?$stream_output_adapter@_W@__crt_stdio_output@@@__crt_stdio_output@@IAE_NAAPAX@Z 1003a9ef f i libucrt:output.obj
 0001:00039a0f       ??$extract_argument_from_va_list@PAXPAX@?$standard_base@_WV?$string_output_adapter@_W@__crt_stdio_output@@@__crt_stdio_output@@IAE_NAAPAX@Z 1003aa0f f i libucrt:output.obj
 0001:00039a2f       ??$extract_argument_from_va_list@U_CRT_DOUBLE@@U1@@?$positional_parameter_base@DV?$stream_output_adapter@D@__crt_stdio_output@@@__crt_stdio_output@@IAE_NAAU_CRT_DOUBLE@@@Z 1003aa2f f i libucrt:output.obj
 0001:00039ad6       ??$extract_argument_from_va_list@U_CRT_DOUBLE@@U1@@?$positional_parameter_base@DV?$string_output_adapter@D@__crt_stdio_output@@@__crt_stdio_output@@IAE_NAAU_CRT_DOUBLE@@@Z 1003aad6 f i libucrt:output.obj
 0001:00039b7d       ??$extract_argument_from_va_list@U_CRT_DOUBLE@@U1@@?$positional_parameter_base@_WV?$stream_output_adapter@_W@__crt_stdio_output@@@__crt_stdio_output@@IAE_NAAU_CRT_DOUBLE@@@Z 1003ab7d f i libucrt:output.obj
 0001:00039c24       ??$extract_argument_from_va_list@U_CRT_DOUBLE@@U1@@?$positional_parameter_base@_WV?$string_output_adapter@_W@__crt_stdio_output@@@__crt_stdio_output@@IAE_NAAU_CRT_DOUBLE@@@Z 1003ac24 f i libucrt:output.obj
 0001:00039ccb       ??$extract_argument_from_va_list@U_CRT_DOUBLE@@U1@@?$standard_base@DV?$stream_output_adapter@D@__crt_stdio_output@@@__crt_stdio_output@@IAE_NAAU_CRT_DOUBLE@@@Z 1003accb f i libucrt:output.obj
 0001:00039cf3       ??$extract_argument_from_va_list@U_CRT_DOUBLE@@U1@@?$standard_base@DV?$string_output_adapter@D@__crt_stdio_output@@@__crt_stdio_output@@IAE_NAAU_CRT_DOUBLE@@@Z 1003acf3 f i libucrt:output.obj
 0001:00039d1b       ??$extract_argument_from_va_list@U_CRT_DOUBLE@@U1@@?$standard_base@_WV?$stream_output_adapter@_W@__crt_stdio_output@@@__crt_stdio_output@@IAE_NAAU_CRT_DOUBLE@@@Z 1003ad1b f i libucrt:output.obj
 0001:00039d43       ??$extract_argument_from_va_list@U_CRT_DOUBLE@@U1@@?$standard_base@_WV?$string_output_adapter@_W@__crt_stdio_output@@@__crt_stdio_output@@IAE_NAAU_CRT_DOUBLE@@@Z 1003ad43 f i libucrt:output.obj
 0001:00039d6b       ??$extract_argument_from_va_list@_J_J@?$positional_parameter_base@DV?$stream_output_adapter@D@__crt_stdio_output@@@__crt_stdio_output@@IAE_NAA_J@Z 1003ad6b f i libucrt:output.obj
 0001:00039e12       ??$extract_argument_from_va_list@_J_J@?$positional_parameter_base@DV?$string_output_adapter@D@__crt_stdio_output@@@__crt_stdio_output@@IAE_NAA_J@Z 1003ae12 f i libucrt:output.obj
 0001:00039eb9       ??$extract_argument_from_va_list@_J_J@?$positional_parameter_base@_WV?$stream_output_adapter@_W@__crt_stdio_output@@@__crt_stdio_output@@IAE_NAA_J@Z 1003aeb9 f i libucrt:output.obj
 0001:00039f60       ??$extract_argument_from_va_list@_J_J@?$positional_parameter_base@_WV?$string_output_adapter@_W@__crt_stdio_output@@@__crt_stdio_output@@IAE_NAA_J@Z 1003af60 f i libucrt:output.obj
 0001:0003a007       ??$extract_argument_from_va_list@_J_J@?$standard_base@DV?$stream_output_adapter@D@__crt_stdio_output@@@__crt_stdio_output@@IAE_NAA_J@Z 1003b007 f i libucrt:output.obj
 0001:0003a02f       ??$extract_argument_from_va_list@_J_J@?$standard_base@DV?$string_output_adapter@D@__crt_stdio_output@@@__crt_stdio_output@@IAE_NAA_J@Z 1003b02f f i libucrt:output.obj
 0001:0003a057       ??$extract_argument_from_va_list@_J_J@?$standard_base@_WV?$stream_output_adapter@_W@__crt_stdio_output@@@__crt_stdio_output@@IAE_NAA_J@Z 1003b057 f i libucrt:output.obj
 0001:0003a07f       ??$extract_argument_from_va_list@_J_J@?$standard_base@_WV?$string_output_adapter@_W@__crt_stdio_output@@@__crt_stdio_output@@IAE_NAA_J@Z 1003b07f f i libucrt:output.obj
 0001:0003a0a7       ??$extract_argument_from_va_list@_K_J@?$positional_parameter_base@DV?$stream_output_adapter@D@__crt_stdio_output@@@__crt_stdio_output@@IAE_NAA_J@Z 1003b0a7 f i libucrt:output.obj
 0001:0003a14e       ??$extract_argument_from_va_list@_K_J@?$positional_parameter_base@DV?$string_output_adapter@D@__crt_stdio_output@@@__crt_stdio_output@@IAE_NAA_J@Z 1003b14e f i libucrt:output.obj
 0001:0003a1f5       ??$extract_argument_from_va_list@_K_J@?$positional_parameter_base@_WV?$stream_output_adapter@_W@__crt_stdio_output@@@__crt_stdio_output@@IAE_NAA_J@Z 1003b1f5 f i libucrt:output.obj
 0001:0003a29c       ??$extract_argument_from_va_list@_K_J@?$positional_parameter_base@_WV?$string_output_adapter@_W@__crt_stdio_output@@@__crt_stdio_output@@IAE_NAA_J@Z 1003b29c f i libucrt:output.obj
 0001:0003a343       ??$extract_argument_from_va_list@_K_J@?$standard_base@DV?$stream_output_adapter@D@__crt_stdio_output@@@__crt_stdio_output@@IAE_NAA_J@Z 1003b343 f i libucrt:output.obj
 0001:0003a36b       ??$extract_argument_from_va_list@_K_J@?$standard_base@DV?$string_output_adapter@D@__crt_stdio_output@@@__crt_stdio_output@@IAE_NAA_J@Z 1003b36b f i libucrt:output.obj
 0001:0003a393       ??$extract_argument_from_va_list@_K_J@?$standard_base@_WV?$stream_output_adapter@_W@__crt_stdio_output@@@__crt_stdio_output@@IAE_NAA_J@Z 1003b393 f i libucrt:output.obj
 0001:0003a3bb       ??$extract_argument_from_va_list@_K_J@?$standard_base@_WV?$string_output_adapter@_W@__crt_stdio_output@@@__crt_stdio_output@@IAE_NAA_J@Z 1003b3bb f i libucrt:output.obj
 0001:0003a3e3       ??$extract_argument_from_va_list@_W_W@?$positional_parameter_base@DV?$stream_output_adapter@D@__crt_stdio_output@@@__crt_stdio_output@@IAE_NAA_W@Z 1003b3e3 f i libucrt:output.obj
 0001:0003a47e       ??$extract_argument_from_va_list@_W_W@?$positional_parameter_base@DV?$string_output_adapter@D@__crt_stdio_output@@@__crt_stdio_output@@IAE_NAA_W@Z 1003b47e f i libucrt:output.obj
 0001:0003a519       ??$extract_argument_from_va_list@_W_W@?$positional_parameter_base@_WV?$stream_output_adapter@_W@__crt_stdio_output@@@__crt_stdio_output@@IAE_NAA_W@Z 1003b519 f i libucrt:output.obj
 0001:0003a5b4       ??$extract_argument_from_va_list@_W_W@?$positional_parameter_base@_WV?$string_output_adapter@_W@__crt_stdio_output@@@__crt_stdio_output@@IAE_NAA_W@Z 1003b5b4 f i libucrt:output.obj
 0001:0003a64f       ??$extract_argument_from_va_list@_W_W@?$standard_base@DV?$stream_output_adapter@D@__crt_stdio_output@@@__crt_stdio_output@@IAE_NAA_W@Z 1003b64f f i libucrt:output.obj
 0001:0003a672       ??$extract_argument_from_va_list@_W_W@?$standard_base@DV?$string_output_adapter@D@__crt_stdio_output@@@__crt_stdio_output@@IAE_NAA_W@Z 1003b672 f i libucrt:output.obj
 0001:0003a695       ??$extract_argument_from_va_list@_W_W@?$standard_base@_WV?$stream_output_adapter@_W@__crt_stdio_output@@@__crt_stdio_output@@IAE_NAA_W@Z 1003b695 f i libucrt:output.obj
 0001:0003a6b8       ??$extract_argument_from_va_list@_W_W@?$standard_base@_WV?$string_output_adapter@_W@__crt_stdio_output@@@__crt_stdio_output@@IAE_NAA_W@Z 1003b6b8 f i libucrt:output.obj
 0001:0003a6db       ??$get_parameter_type@D@?$positional_parameter_base@DV?$stream_output_adapter@D@__crt_stdio_output@@@__crt_stdio_output@@CA?AW4parameter_type@01@PAD@Z 1003b6db f i libucrt:output.obj
 0001:0003a6df       ??$get_parameter_type@D@?$positional_parameter_base@DV?$string_output_adapter@D@__crt_stdio_output@@@__crt_stdio_output@@CA?AW4parameter_type@01@PAD@Z 1003b6df f i libucrt:output.obj
 0001:0003a6e3       ??$get_parameter_type@D@?$positional_parameter_base@_WV?$stream_output_adapter@_W@__crt_stdio_output@@@__crt_stdio_output@@CA?AW4parameter_type@01@PAD@Z 1003b6e3 f i libucrt:output.obj
 0001:0003a6e7       ??$get_parameter_type@D@?$positional_parameter_base@_WV?$string_output_adapter@_W@__crt_stdio_output@@@__crt_stdio_output@@CA?AW4parameter_type@01@PAD@Z 1003b6e7 f i libucrt:output.obj
 0001:0003a6fb       ??$get_parameter_type@X@?$positional_parameter_base@DV?$stream_output_adapter@D@__crt_stdio_output@@@__crt_stdio_output@@CA?AW4parameter_type@01@PAX@Z 1003b6fb f i libucrt:output.obj
 0001:0003a6ff       ??$get_parameter_type@X@?$positional_parameter_base@DV?$string_output_adapter@D@__crt_stdio_output@@@__crt_stdio_output@@CA?AW4parameter_type@01@PAX@Z 1003b6ff f i libucrt:output.obj
 0001:0003a703       ??$get_parameter_type@X@?$positional_parameter_base@_WV?$stream_output_adapter@_W@__crt_stdio_output@@@__crt_stdio_output@@CA?AW4parameter_type@01@PAX@Z 1003b703 f i libucrt:output.obj
 0001:0003a707       ??$get_parameter_type@X@?$positional_parameter_base@_WV?$string_output_adapter@_W@__crt_stdio_output@@@__crt_stdio_output@@CA?AW4parameter_type@01@PAX@Z 1003b707 f i libucrt:output.obj
 0001:0003a70b       ??$is_character_specifier@D@?$positional_parameter_base@DV?$stream_output_adapter@D@__crt_stdio_output@@@__crt_stdio_output@@CA_ND@Z 1003b70b f i libucrt:output.obj
 0001:0003a729       ??$is_character_specifier@D@?$positional_parameter_base@DV?$string_output_adapter@D@__crt_stdio_output@@@__crt_stdio_output@@CA_ND@Z 1003b729 f i libucrt:output.obj
 0001:0003a747       ??$is_character_specifier@_W@?$positional_parameter_base@_WV?$stream_output_adapter@_W@__crt_stdio_output@@@__crt_stdio_output@@CA_N_W@Z 1003b747 f i libucrt:output.obj
 0001:0003a768       ??$is_character_specifier@_W@?$positional_parameter_base@_WV?$string_output_adapter@_W@__crt_stdio_output@@@__crt_stdio_output@@CA_N_W@Z 1003b768 f i libucrt:output.obj
 0001:0003a789       ??$is_integral_specifier@D@?$positional_parameter_base@DV?$stream_output_adapter@D@__crt_stdio_output@@@__crt_stdio_output@@CA_ND@Z 1003b789 f i libucrt:output.obj
 0001:0003a7c0       ??$is_integral_specifier@D@?$positional_parameter_base@DV?$string_output_adapter@D@__crt_stdio_output@@@__crt_stdio_output@@CA_ND@Z 1003b7c0 f i libucrt:output.obj
 0001:0003a7f7       ??$is_integral_specifier@_W@?$positional_parameter_base@_WV?$stream_output_adapter@_W@__crt_stdio_output@@@__crt_stdio_output@@CA_N_W@Z 1003b7f7 f i libucrt:output.obj
 0001:0003a840       ??$is_integral_specifier@_W@?$positional_parameter_base@_WV?$string_output_adapter@_W@__crt_stdio_output@@@__crt_stdio_output@@CA_N_W@Z 1003b840 f i libucrt:output.obj
 0001:0003a889       ??$is_pointer_specifier@D@?$positional_parameter_base@DV?$stream_output_adapter@D@__crt_stdio_output@@@__crt_stdio_output@@CA_ND@Z 1003b889 f i libucrt:output.obj
 0001:0003a89a       ??$is_pointer_specifier@D@?$positional_parameter_base@DV?$string_output_adapter@D@__crt_stdio_output@@@__crt_stdio_output@@CA_ND@Z 1003b89a f i libucrt:output.obj
 0001:0003a8ab       ??$is_pointer_specifier@_W@?$positional_parameter_base@_WV?$stream_output_adapter@_W@__crt_stdio_output@@@__crt_stdio_output@@CA_N_W@Z 1003b8ab f i libucrt:output.obj
 0001:0003a8bd       ??$is_pointer_specifier@_W@?$positional_parameter_base@_WV?$string_output_adapter@_W@__crt_stdio_output@@@__crt_stdio_output@@CA_N_W@Z 1003b8bd f i libucrt:output.obj
 0001:0003a8cf       ??$is_string_specifier@D@?$positional_parameter_base@DV?$stream_output_adapter@D@__crt_stdio_output@@@__crt_stdio_output@@CA_ND@Z 1003b8cf f i libucrt:output.obj
 0001:0003a8ed       ??$is_string_specifier@D@?$positional_parameter_base@DV?$string_output_adapter@D@__crt_stdio_output@@@__crt_stdio_output@@CA_ND@Z 1003b8ed f i libucrt:output.obj
 0001:0003a90b       ??$is_string_specifier@_W@?$positional_parameter_base@_WV?$stream_output_adapter@_W@__crt_stdio_output@@@__crt_stdio_output@@CA_N_W@Z 1003b90b f i libucrt:output.obj
 0001:0003a92c       ??$is_string_specifier@_W@?$positional_parameter_base@_WV?$string_output_adapter@_W@__crt_stdio_output@@@__crt_stdio_output@@CA_N_W@Z 1003b92c f i libucrt:output.obj
 0001:0003a94d       ??$is_wide_character_specifier@D@__crt_stdio_output@@YA_N_KDW4length_modifier@0@@Z 1003b94d f i libucrt:output.obj
 0001:0003a98a       ??$is_wide_character_specifier@_W@__crt_stdio_output@@YA_N_K_WW4length_modifier@0@@Z 1003b98a f i libucrt:output.obj
 0001:0003a9eb       ??$peek_va_arg@C@__crt_stdio_output@@YACPAD@Z 1003b9eb f i libucrt:output.obj
 0001:0003a9fa       ??$peek_va_arg@E@__crt_stdio_output@@YAEPAD@Z 1003b9fa f i libucrt:output.obj
 0001:0003aa09       ??$peek_va_arg@F@__crt_stdio_output@@YAFPAD@Z 1003ba09 f i libucrt:output.obj
 0001:0003aa19       ??$peek_va_arg@G@__crt_stdio_output@@YAGPAD@Z 1003ba19 f i libucrt:output.obj
 0001:0003aa29       ??$peek_va_arg@H@__crt_stdio_output@@YAHPAD@Z 1003ba29 f i libucrt:output.obj
 0001:0003aa38       ??$peek_va_arg@I@__crt_stdio_output@@YAIPAD@Z 1003ba38 f i libucrt:output.obj
 0001:0003aa47       ??$peek_va_arg@PAD@__crt_stdio_output@@YAPADPAD@Z 1003ba47 f i libucrt:output.obj
 0001:0003aa92       ??$peek_va_arg@PAX@__crt_stdio_output@@YAPAXPAD@Z 1003ba92 f i libucrt:output.obj
 0001:0003aaa1       ??$peek_va_arg@U_CRT_DOUBLE@@@__crt_stdio_output@@YA?AU_CRT_DOUBLE@@PAD@Z 1003baa1 f i libucrt:output.obj
 0001:0003aab3       ??$peek_va_arg@_J@__crt_stdio_output@@YA_JPAD@Z 1003bab3 f i libucrt:output.obj
 0001:0003aac5       ??$peek_va_arg@_K@__crt_stdio_output@@YA_KPAD@Z 1003bac5 f i libucrt:output.obj
 0001:0003aad7       ??$peek_va_arg@_W@__crt_stdio_output@@YA_WPAD@Z 1003bad7 f i libucrt:output.obj
 0001:0003aae7       ??$puttc_nolock@ABDPAU_iobuf@@@?$__crt_char_traits@D@@SAHABD$$QAPAU_iobuf@@@Z 1003bae7 f i libucrt:output.obj
 0001:0003ab07       ??$puttc_nolock@AB_WPAU_iobuf@@@?$__crt_char_traits@_W@@SAGAB_W$$QAPAU_iobuf@@@Z 1003bb07 f i libucrt:output.obj
 0001:0003ab27       ??$read_va_arg@C@__crt_stdio_output@@YACAAPAD@Z 1003bb27 f i libucrt:output.obj
 0001:0003ab3d       ??$read_va_arg@E@__crt_stdio_output@@YAEAAPAD@Z 1003bb3d f i libucrt:output.obj
 0001:0003ab53       ??$read_va_arg@F@__crt_stdio_output@@YAFAAPAD@Z 1003bb53 f i libucrt:output.obj
 0001:0003ab6a       ??$read_va_arg@G@__crt_stdio_output@@YAGAAPAD@Z 1003bb6a f i libucrt:output.obj
 0001:0003ab81       ??$read_va_arg@H@__crt_stdio_output@@YAHAAPAD@Z 1003bb81 f i libucrt:output.obj
 0001:0003ab97       ??$read_va_arg@I@__crt_stdio_output@@YAIAAPAD@Z 1003bb97 f i libucrt:output.obj
 0001:0003abad       ??$read_va_arg@PAD@__crt_stdio_output@@YAPADAAPAD@Z 1003bbad f i libucrt:output.obj
 0001:0003accb       ??$read_va_arg@PAX@__crt_stdio_output@@YAPAXAAPAD@Z 1003bccb f i libucrt:output.obj
 0001:0003ace1       ??$read_va_arg@U_CRT_DOUBLE@@@__crt_stdio_output@@YA?AU_CRT_DOUBLE@@AAPAD@Z 1003bce1 f i libucrt:output.obj
 0001:0003acfc       ??$read_va_arg@_J@__crt_stdio_output@@YA_JAAPAD@Z 1003bcfc f i libucrt:output.obj
 0001:0003ad16       ??$read_va_arg@_K@__crt_stdio_output@@YA_KAAPAD@Z 1003bd16 f i libucrt:output.obj
 0001:0003ad30       ??$read_va_arg@_W@__crt_stdio_output@@YA_WAAPAD@Z 1003bd30 f i libucrt:output.obj
 0001:0003ad47       ??$scratch_count@D@formatting_buffer@__crt_stdio_output@@QBEIXZ 1003bd47 f i libucrt:output.obj
 0001:0003ad4c       ??$scratch_data@D@formatting_buffer@__crt_stdio_output@@QAEPADXZ 1003bd4c f i libucrt:output.obj
 0001:0003ad71       ??$tcstol@AAPBDPAPADH@?$__crt_char_traits@D@@SAJAAPBD$$QAPAPAD$$QAH@Z 1003bd71 f i libucrt:output.obj
 0001:0003ad96       ??$tcstol@AAPB_WPAPA_WH@?$__crt_char_traits@_W@@SAJAAPB_W$$QAPAPA_W$$QAH@Z 1003bd96 f i libucrt:output.obj
 0001:0003adbb       ??$tcstol@PBDPAPADH@?$__crt_char_traits@D@@SAJ$$QAPBD$$QAPAPAD$$QAH@Z 1003bdbb f i libucrt:output.obj
 0001:0003ade0       ??$tcstol@PB_WPAPA_WH@?$__crt_char_traits@_W@@SAJ$$QAPB_W$$QAPAPA_W$$QAH@Z 1003bde0 f i libucrt:output.obj
 0001:0003ae05       ??$type_case_integer_parse_into_buffer@I@?$output_processor@DV?$stream_output_adapter@D@__crt_stdio_output@@V?$format_validation_base@DV?$stream_output_adapter@D@__crt_stdio_output@@@2@@__crt_stdio_output@@AAEXII_N@Z 1003be05 f i libucrt:output.obj
 0001:0003ae94       ??$type_case_integer_parse_into_buffer@I@?$output_processor@DV?$stream_output_adapter@D@__crt_stdio_output@@V?$positional_parameter_base@DV?$stream_output_adapter@D@__crt_stdio_output@@@2@@__crt_stdio_output@@AAEXII_N@Z 1003be94 f i libucrt:output.obj
 0001:0003af23       ??$type_case_integer_parse_into_buffer@I@?$output_processor@DV?$stream_output_adapter@D@__crt_stdio_output@@V?$standard_base@DV?$stream_output_adapter@D@__crt_stdio_output@@@2@@__crt_stdio_output@@AAEXII_N@Z 1003bf23 f i libucrt:output.obj
 0001:0003afb2       ??$type_case_integer_parse_into_buffer@I@?$output_processor@DV?$string_output_adapter@D@__crt_stdio_output@@V?$format_validation_base@DV?$string_output_adapter@D@__crt_stdio_output@@@2@@__crt_stdio_output@@AAEXII_N@Z 1003bfb2 f i libucrt:output.obj
 0001:0003b041       ??$type_case_integer_parse_into_buffer@I@?$output_processor@DV?$string_output_adapter@D@__crt_stdio_output@@V?$positional_parameter_base@DV?$string_output_adapter@D@__crt_stdio_output@@@2@@__crt_stdio_output@@AAEXII_N@Z 1003c041 f i libucrt:output.obj
 0001:0003b0d0       ??$type_case_integer_parse_into_buffer@I@?$output_processor@DV?$string_output_adapter@D@__crt_stdio_output@@V?$standard_base@DV?$string_output_adapter@D@__crt_stdio_output@@@2@@__crt_stdio_output@@AAEXII_N@Z 1003c0d0 f i libucrt:output.obj
 0001:0003b15f       ??$type_case_integer_parse_into_buffer@I@?$output_processor@_WV?$stream_output_adapter@_W@__crt_stdio_output@@V?$format_validation_base@_WV?$stream_output_adapter@_W@__crt_stdio_output@@@2@@__crt_stdio_output@@AAEXII_N@Z 1003c15f f i libucrt:output.obj
 0001:0003b207       ??$type_case_integer_parse_into_buffer@I@?$output_processor@_WV?$stream_output_adapter@_W@__crt_stdio_output@@V?$positional_parameter_base@_WV?$stream_output_adapter@_W@__crt_stdio_output@@@2@@__crt_stdio_output@@AAEXII_N@Z 1003c207 f i libucrt:output.obj
 0001:0003b2af       ??$type_case_integer_parse_into_buffer@I@?$output_processor@_WV?$stream_output_adapter@_W@__crt_stdio_output@@V?$standard_base@_WV?$stream_output_adapter@_W@__crt_stdio_output@@@2@@__crt_stdio_output@@AAEXII_N@Z 1003c2af f i libucrt:output.obj
 0001:0003b357       ??$type_case_integer_parse_into_buffer@I@?$output_processor@_WV?$string_output_adapter@_W@__crt_stdio_output@@V?$format_validation_base@_WV?$string_output_adapter@_W@__crt_stdio_output@@@2@@__crt_stdio_output@@AAEXII_N@Z 1003c357 f i libucrt:output.obj
 0001:0003b3ff       ??$type_case_integer_parse_into_buffer@I@?$output_processor@_WV?$string_output_adapter@_W@__crt_stdio_output@@V?$positional_parameter_base@_WV?$string_output_adapter@_W@__crt_stdio_output@@@2@@__crt_stdio_output@@AAEXII_N@Z 1003c3ff f i libucrt:output.obj
 0001:0003b4a7       ??$type_case_integer_parse_into_buffer@I@?$output_processor@_WV?$string_output_adapter@_W@__crt_stdio_output@@V?$standard_base@_WV?$string_output_adapter@_W@__crt_stdio_output@@@2@@__crt_stdio_output@@AAEXII_N@Z 1003c4a7 f i libucrt:output.obj
 0001:0003b54f       ??$type_case_integer_parse_into_buffer@_K@?$output_processor@DV?$stream_output_adapter@D@__crt_stdio_output@@V?$format_validation_base@DV?$stream_output_adapter@D@__crt_stdio_output@@@2@@__crt_stdio_output@@AAEX_KI_N@Z 1003c54f f i libucrt:output.obj
 0001:0003b600       ??$type_case_integer_parse_into_buffer@_K@?$output_processor@DV?$stream_output_adapter@D@__crt_stdio_output@@V?$positional_parameter_base@DV?$stream_output_adapter@D@__crt_stdio_output@@@2@@__crt_stdio_output@@AAEX_KI_N@Z 1003c600 f i libucrt:output.obj
 0001:0003b6b1       ??$type_case_integer_parse_into_buffer@_K@?$output_processor@DV?$stream_output_adapter@D@__crt_stdio_output@@V?$standard_base@DV?$stream_output_adapter@D@__crt_stdio_output@@@2@@__crt_stdio_output@@AAEX_KI_N@Z 1003c6b1 f i libucrt:output.obj
 0001:0003b762       ??$type_case_integer_parse_into_buffer@_K@?$output_processor@DV?$string_output_adapter@D@__crt_stdio_output@@V?$format_validation_base@DV?$string_output_adapter@D@__crt_stdio_output@@@2@@__crt_stdio_output@@AAEX_KI_N@Z 1003c762 f i libucrt:output.obj
 0001:0003b813       ??$type_case_integer_parse_into_buffer@_K@?$output_processor@DV?$string_output_adapter@D@__crt_stdio_output@@V?$positional_parameter_base@DV?$string_output_adapter@D@__crt_stdio_output@@@2@@__crt_stdio_output@@AAEX_KI_N@Z 1003c813 f i libucrt:output.obj
 0001:0003b8c4       ??$type_case_integer_parse_into_buffer@_K@?$output_processor@DV?$string_output_adapter@D@__crt_stdio_output@@V?$standard_base@DV?$string_output_adapter@D@__crt_stdio_output@@@2@@__crt_stdio_output@@AAEX_KI_N@Z 1003c8c4 f i libucrt:output.obj
 0001:0003b975       ??$type_case_integer_parse_into_buffer@_K@?$output_processor@_WV?$stream_output_adapter@_W@__crt_stdio_output@@V?$format_validation_base@_WV?$stream_output_adapter@_W@__crt_stdio_output@@@2@@__crt_stdio_output@@AAEX_KI_N@Z 1003c975 f i libucrt:output.obj
 0001:0003ba3f       ??$type_case_integer_parse_into_buffer@_K@?$output_processor@_WV?$stream_output_adapter@_W@__crt_stdio_output@@V?$positional_parameter_base@_WV?$stream_output_adapter@_W@__crt_stdio_output@@@2@@__crt_stdio_output@@AAEX_KI_N@Z 1003ca3f f i libucrt:output.obj
 0001:0003bb09       ??$type_case_integer_parse_into_buffer@_K@?$output_processor@_WV?$stream_output_adapter@_W@__crt_stdio_output@@V?$standard_base@_WV?$stream_output_adapter@_W@__crt_stdio_output@@@2@@__crt_stdio_output@@AAEX_KI_N@Z 1003cb09 f i libucrt:output.obj
 0001:0003bbd3       ??$type_case_integer_parse_into_buffer@_K@?$output_processor@_WV?$string_output_adapter@_W@__crt_stdio_output@@V?$format_validation_base@_WV?$string_output_adapter@_W@__crt_stdio_output@@@2@@__crt_stdio_output@@AAEX_KI_N@Z 1003cbd3 f i libucrt:output.obj
 0001:0003bc9d       ??$type_case_integer_parse_into_buffer@_K@?$output_processor@_WV?$string_output_adapter@_W@__crt_stdio_output@@V?$positional_parameter_base@_WV?$string_output_adapter@_W@__crt_stdio_output@@@2@@__crt_stdio_output@@AAEX_KI_N@Z 1003cc9d f i libucrt:output.obj
 0001:0003bd67       ??$type_case_integer_parse_into_buffer@_K@?$output_processor@_WV?$string_output_adapter@_W@__crt_stdio_output@@V?$standard_base@_WV?$string_output_adapter@_W@__crt_stdio_output@@@2@@__crt_stdio_output@@AAEX_KI_N@Z 1003cd67 f i libucrt:output.obj
 0001:0003be31       ??$write_multiple_characters@V?$stream_output_adapter@D@__crt_stdio_output@@D@__crt_stdio_output@@YAXABV?$stream_output_adapter@D@0@DHQAH@Z 1003ce31 f i libucrt:output.obj
 0001:0003be7a       ??$write_multiple_characters@V?$stream_output_adapter@_W@__crt_stdio_output@@D@__crt_stdio_output@@YAXABV?$stream_output_adapter@_W@0@DHQAH@Z 1003ce7a f i libucrt:output.obj
 0001:0003beca       ??$write_multiple_characters@V?$string_output_adapter@D@__crt_stdio_output@@D@__crt_stdio_output@@YAXABV?$string_output_adapter@D@0@DHQAH@Z 1003ceca f i libucrt:output.obj
 0001:0003bf01       ??$write_multiple_characters@V?$string_output_adapter@_W@__crt_stdio_output@@D@__crt_stdio_output@@YAXABV?$string_output_adapter@_W@0@DHQAH@Z 1003cf01 f i libucrt:output.obj
 0001:0003c172       ??0?$common_data@D@__crt_stdio_output@@IAE@XZ 1003d172 f i libucrt:output.obj
 0001:0003c1c8       ??0?$common_data@_W@__crt_stdio_output@@IAE@XZ 1003d1c8 f i libucrt:output.obj
 0001:0003c224       ??0?$output_adapter_data@DV?$stream_output_adapter@D@__crt_stdio_output@@@__crt_stdio_output@@IAE@ABV?$stream_output_adapter@D@1@_KQBDQAU__crt_locale_pointers@@QAD@Z 1003d224 f i libucrt:output.obj
 0001:0003c26f       ??0?$output_adapter_data@DV?$string_output_adapter@D@__crt_stdio_output@@@__crt_stdio_output@@IAE@ABV?$string_output_adapter@D@1@_KQBDQAU__crt_locale_pointers@@QAD@Z 1003d26f f i libucrt:output.obj
 0001:0003c2ba       ??0?$output_adapter_data@_WV?$stream_output_adapter@_W@__crt_stdio_output@@@__crt_stdio_output@@IAE@ABV?$stream_output_adapter@_W@1@_KQB_WQAU__crt_locale_pointers@@QAD@Z 1003d2ba f i libucrt:output.obj
 0001:0003c305       ??0?$output_adapter_data@_WV?$string_output_adapter@_W@__crt_stdio_output@@@__crt_stdio_output@@IAE@ABV?$string_output_adapter@_W@1@_KQB_WQAU__crt_locale_pointers@@QAD@Z 1003d305 f i libucrt:output.obj
 0001:0003c350       ??0?$output_processor@DV?$stream_output_adapter@D@__crt_stdio_output@@V?$format_validation_base@DV?$stream_output_adapter@D@__crt_stdio_output@@@2@@__crt_stdio_output@@QAE@ABV?$stream_output_adapter@D@1@_KQBDQAU__crt_locale_pointers@@QAD@Z 1003d350 f i libucrt:output.obj
 0001:0003c388       ??0?$output_processor@DV?$stream_output_adapter@D@__crt_stdio_output@@V?$positional_parameter_base@DV?$stream_output_adapter@D@__crt_stdio_output@@@2@@__crt_stdio_output@@QAE@ABV?$stream_output_adapter@D@1@_KQBDQAU__crt_locale_pointers@@QAD@Z 1003d388 f i libucrt:output.obj
 0001:0003c3b8       ??0?$output_processor@DV?$stream_output_adapter@D@__crt_stdio_output@@V?$standard_base@DV?$stream_output_adapter@D@__crt_stdio_output@@@2@@__crt_stdio_output@@QAE@ABV?$stream_output_adapter@D@1@_KQBDQAU__crt_locale_pointers@@QAD@Z 1003d3b8 f i libucrt:output.obj
 0001:0003c3f0       ??0?$output_processor@DV?$string_output_adapter@D@__crt_stdio_output@@V?$format_validation_base@DV?$string_output_adapter@D@__crt_stdio_output@@@2@@__crt_stdio_output@@QAE@ABV?$string_output_adapter@D@1@_KQBDQAU__crt_locale_pointers@@QAD@Z 1003d3f0 f i libucrt:output.obj
 0001:0003c428       ??0?$output_processor@DV?$string_output_adapter@D@__crt_stdio_output@@V?$positional_parameter_base@DV?$string_output_adapter@D@__crt_stdio_output@@@2@@__crt_stdio_output@@QAE@ABV?$string_output_adapter@D@1@_KQBDQAU__crt_locale_pointers@@QAD@Z 1003d428 f i libucrt:output.obj
 0001:0003c458       ??0?$output_processor@DV?$string_output_adapter@D@__crt_stdio_output@@V?$standard_base@DV?$string_output_adapter@D@__crt_stdio_output@@@2@@__crt_stdio_output@@QAE@ABV?$string_output_adapter@D@1@_KQBDQAU__crt_locale_pointers@@QAD@Z 1003d458 f i libucrt:output.obj
 0001:0003c490       ??0?$output_processor@_WV?$stream_output_adapter@_W@__crt_stdio_output@@V?$format_validation_base@_WV?$stream_output_adapter@_W@__crt_stdio_output@@@2@@__crt_stdio_output@@QAE@ABV?$stream_output_adapter@_W@1@_KQB_WQAU__crt_locale_pointers@@QAD@Z 1003d490 f i libucrt:output.obj
 0001:0003c4c8       ??0?$output_processor@_WV?$stream_output_adapter@_W@__crt_stdio_output@@V?$positional_parameter_base@_WV?$stream_output_adapter@_W@__crt_stdio_output@@@2@@__crt_stdio_output@@QAE@ABV?$stream_output_adapter@_W@1@_KQB_WQAU__crt_locale_pointers@@QAD@Z 1003d4c8 f i libucrt:output.obj
 0001:0003c4f8       ??0?$output_processor@_WV?$stream_output_adapter@_W@__crt_stdio_output@@V?$standard_base@_WV?$stream_output_adapter@_W@__crt_stdio_output@@@2@@__crt_stdio_output@@QAE@ABV?$stream_output_adapter@_W@1@_KQB_WQAU__crt_locale_pointers@@QAD@Z 1003d4f8 f i libucrt:output.obj
 0001:0003c530       ??0?$output_processor@_WV?$string_output_adapter@_W@__crt_stdio_output@@V?$format_validation_base@_WV?$string_output_adapter@_W@__crt_stdio_output@@@2@@__crt_stdio_output@@QAE@ABV?$string_output_adapter@_W@1@_KQB_WQAU__crt_locale_pointers@@QAD@Z 1003d530 f i libucrt:output.obj
 0001:0003c568       ??0?$output_processor@_WV?$string_output_adapter@_W@__crt_stdio_output@@V?$positional_parameter_base@_WV?$string_output_adapter@_W@__crt_stdio_output@@@2@@__crt_stdio_output@@QAE@ABV?$string_output_adapter@_W@1@_KQB_WQAU__crt_locale_pointers@@QAD@Z 1003d568 f i libucrt:output.obj
 0001:0003c598       ??0?$output_processor@_WV?$string_output_adapter@_W@__crt_stdio_output@@V?$standard_base@_WV?$string_output_adapter@_W@__crt_stdio_output@@@2@@__crt_stdio_output@@QAE@ABV?$string_output_adapter@_W@1@_KQB_WQAU__crt_locale_pointers@@QAD@Z 1003d598 f i libucrt:output.obj
 0001:0003c5d0       ??0?$stream_output_adapter@D@__crt_stdio_output@@QAE@QAU_iobuf@@@Z 1003d5d0 f i libucrt:output.obj
 0001:0003c5e4       ??0?$stream_output_adapter@_W@__crt_stdio_output@@QAE@QAU_iobuf@@@Z 1003d5e4 f i libucrt:output.obj
 0001:0003c5f8       ??0?$string_output_adapter@D@__crt_stdio_output@@QAE@QAU?$string_output_adapter_context@D@1@@Z 1003d5f8 f i libucrt:output.obj
 0001:0003c60c       ??0?$string_output_adapter@_W@__crt_stdio_output@@QAE@QAU?$string_output_adapter_context@_W@1@@Z 1003d60c f i libucrt:output.obj
 0001:0003c620       ??0_LocaleUpdate@@QAE@QAU__crt_locale_pointers@@@Z 1003d620 f i libucrt:output.obj
 0001:0003c6c3       ??0__acrt_stdio_temporary_buffering_guard@@QAE@QAU_iobuf@@@Z 1003d6c3 f i libucrt:output.obj
 0001:0003c6e8       ??0__crt_deferred_errno_cache@@QAE@XZ 1003d6e8 f i libucrt:output.obj
 0001:0003c6ee       ??0__crt_errno_guard@@QAE@QAH@Z 1003d6ee f i libucrt:output.obj
 0001:0003c70c       ??0formatting_buffer@__crt_stdio_output@@QAE@XZ 1003d70c f i libucrt:output.obj
 0001:0003c721       ??1?$common_data@D@__crt_stdio_output@@QAE@XZ 1003d721 f i libucrt:output.obj
 0001:0003c72b       ??1?$common_data@_W@__crt_stdio_output@@QAE@XZ 1003d72b f i libucrt:output.obj
 0001:0003c735       ??1?$format_validation_base@DV?$stream_output_adapter@D@__crt_stdio_output@@@__crt_stdio_output@@QAE@XZ 1003d735 f i libucrt:output.obj
 0001:0003c73f       ??1?$format_validation_base@DV?$string_output_adapter@D@__crt_stdio_output@@@__crt_stdio_output@@QAE@XZ 1003d73f f i libucrt:output.obj
 0001:0003c749       ??1?$format_validation_base@_WV?$stream_output_adapter@_W@__crt_stdio_output@@@__crt_stdio_output@@QAE@XZ 1003d749 f i libucrt:output.obj
 0001:0003c753       ??1?$format_validation_base@_WV?$string_output_adapter@_W@__crt_stdio_output@@@__crt_stdio_output@@QAE@XZ 1003d753 f i libucrt:output.obj
 0001:0003c75d       ??1?$output_adapter_data@DV?$stream_output_adapter@D@__crt_stdio_output@@@__crt_stdio_output@@QAE@XZ 1003d75d f i libucrt:output.obj
 0001:0003c767       ??1?$output_adapter_data@DV?$string_output_adapter@D@__crt_stdio_output@@@__crt_stdio_output@@QAE@XZ 1003d767 f i libucrt:output.obj
 0001:0003c771       ??1?$output_adapter_data@_WV?$stream_output_adapter@_W@__crt_stdio_output@@@__crt_stdio_output@@QAE@XZ 1003d771 f i libucrt:output.obj
 0001:0003c77b       ??1?$output_adapter_data@_WV?$string_output_adapter@_W@__crt_stdio_output@@@__crt_stdio_output@@QAE@XZ 1003d77b f i libucrt:output.obj
 0001:0003c785       ??1?$output_processor@DV?$stream_output_adapter@D@__crt_stdio_output@@V?$format_validation_base@DV?$stream_output_adapter@D@__crt_stdio_output@@@2@@__crt_stdio_output@@QAE@XZ 1003d785 f i libucrt:output.obj
 0001:0003c78f       ??1?$output_processor@DV?$stream_output_adapter@D@__crt_stdio_output@@V?$positional_parameter_base@DV?$stream_output_adapter@D@__crt_stdio_output@@@2@@__crt_stdio_output@@QAE@XZ 1003d78f f i libucrt:output.obj
 0001:0003c799       ??1?$output_processor@DV?$stream_output_adapter@D@__crt_stdio_output@@V?$standard_base@DV?$stream_output_adapter@D@__crt_stdio_output@@@2@@__crt_stdio_output@@QAE@XZ 1003d799 f i libucrt:output.obj
 0001:0003c7a3       ??1?$output_processor@DV?$string_output_adapter@D@__crt_stdio_output@@V?$format_validation_base@DV?$string_output_adapter@D@__crt_stdio_output@@@2@@__crt_stdio_output@@QAE@XZ 1003d7a3 f i libucrt:output.obj
 0001:0003c7ad       ??1?$output_processor@DV?$string_output_adapter@D@__crt_stdio_output@@V?$positional_parameter_base@DV?$string_output_adapter@D@__crt_stdio_output@@@2@@__crt_stdio_output@@QAE@XZ 1003d7ad f i libucrt:output.obj
 0001:0003c7b7       ??1?$output_processor@DV?$string_output_adapter@D@__crt_stdio_output@@V?$standard_base@DV?$string_output_adapter@D@__crt_stdio_output@@@2@@__crt_stdio_output@@QAE@XZ 1003d7b7 f i libucrt:output.obj
 0001:0003c7c1       ??1?$output_processor@_WV?$stream_output_adapter@_W@__crt_stdio_output@@V?$format_validation_base@_WV?$stream_output_adapter@_W@__crt_stdio_output@@@2@@__crt_stdio_output@@QAE@XZ 1003d7c1 f i libucrt:output.obj
 0001:0003c7cb       ??1?$output_processor@_WV?$stream_output_adapter@_W@__crt_stdio_output@@V?$positional_parameter_base@_WV?$stream_output_adapter@_W@__crt_stdio_output@@@2@@__crt_stdio_output@@QAE@XZ 1003d7cb f i libucrt:output.obj
 0001:0003c7d5       ??1?$output_processor@_WV?$stream_output_adapter@_W@__crt_stdio_output@@V?$standard_base@_WV?$stream_output_adapter@_W@__crt_stdio_output@@@2@@__crt_stdio_output@@QAE@XZ 1003d7d5 f i libucrt:output.obj
 0001:0003c7df       ??1?$output_processor@_WV?$string_output_adapter@_W@__crt_stdio_output@@V?$format_validation_base@_WV?$string_output_adapter@_W@__crt_stdio_output@@@2@@__crt_stdio_output@@QAE@XZ 1003d7df f i libucrt:output.obj
 0001:0003c7e9       ??1?$output_processor@_WV?$string_output_adapter@_W@__crt_stdio_output@@V?$positional_parameter_base@_WV?$string_output_adapter@_W@__crt_stdio_output@@@2@@__crt_stdio_output@@QAE@XZ 1003d7e9 f i libucrt:output.obj
 0001:0003c7f3       ??1?$output_processor@_WV?$string_output_adapter@_W@__crt_stdio_output@@V?$standard_base@_WV?$string_output_adapter@_W@__crt_stdio_output@@@2@@__crt_stdio_output@@QAE@XZ 1003d7f3 f i libucrt:output.obj
 0001:0003c7fd       ??1?$positional_parameter_base@DV?$stream_output_adapter@D@__crt_stdio_output@@@__crt_stdio_output@@QAE@XZ 1003d7fd f i libucrt:output.obj
 0001:0003c807       ??1?$positional_parameter_base@DV?$string_output_adapter@D@__crt_stdio_output@@@__crt_stdio_output@@QAE@XZ 1003d807 f i libucrt:output.obj
 0001:0003c811       ??1?$positional_parameter_base@_WV?$stream_output_adapter@_W@__crt_stdio_output@@@__crt_stdio_output@@QAE@XZ 1003d811 f i libucrt:output.obj
 0001:0003c81b       ??1?$positional_parameter_base@_WV?$string_output_adapter@_W@__crt_stdio_output@@@__crt_stdio_output@@QAE@XZ 1003d81b f i libucrt:output.obj
 0001:0003c825       ??1?$standard_base@DV?$stream_output_adapter@D@__crt_stdio_output@@@__crt_stdio_output@@QAE@XZ 1003d825 f i libucrt:output.obj
 0001:0003c82f       ??1?$standard_base@DV?$string_output_adapter@D@__crt_stdio_output@@@__crt_stdio_output@@QAE@XZ 1003d82f f i libucrt:output.obj
 0001:0003c839       ??1?$standard_base@_WV?$stream_output_adapter@_W@__crt_stdio_output@@@__crt_stdio_output@@QAE@XZ 1003d839 f i libucrt:output.obj
 0001:0003c843       ??1?$standard_base@_WV?$string_output_adapter@_W@__crt_stdio_output@@@__crt_stdio_output@@QAE@XZ 1003d843 f i libucrt:output.obj
 0001:0003c84d       ??1_LocaleUpdate@@QAE@XZ   1003d84d f i libucrt:output.obj
 0001:0003c861       ??1__acrt_stdio_temporary_buffering_guard@@QAE@XZ 1003d861 f i libucrt:output.obj
 0001:0003c873       ??1__crt_errno_guard@@QAE@XZ 1003d873 f i libucrt:output.obj
 0001:0003c888       ??1formatting_buffer@__crt_stdio_output@@QAE@XZ 1003d888 f i libucrt:output.obj
 0001:0003c8a8       ??4?$__crt_unique_heap_ptr@DU__crt_internal_free_policy@@@@QAEAAV0@$$QAV0@@Z 1003d8a8 f i libucrt:output.obj
 0001:0003cf73       ?GetLocaleT@_LocaleUpdate@@QAEPAU__crt_locale_pointers@@XZ 1003df73 f i libucrt:output.obj
 0001:0003cf77       ?adjust_hexit@?$output_processor@DV?$stream_output_adapter@D@__crt_stdio_output@@V?$format_validation_base@DV?$stream_output_adapter@D@__crt_stdio_output@@@2@@__crt_stdio_output@@CADH_N@Z 1003df77 f i libucrt:output.obj
 0001:0003cf90       ?adjust_hexit@?$output_processor@DV?$stream_output_adapter@D@__crt_stdio_output@@V?$positional_parameter_base@DV?$stream_output_adapter@D@__crt_stdio_output@@@2@@__crt_stdio_output@@CADH_N@Z 1003df90 f i libucrt:output.obj
 0001:0003cfa9       ?adjust_hexit@?$output_processor@DV?$stream_output_adapter@D@__crt_stdio_output@@V?$standard_base@DV?$stream_output_adapter@D@__crt_stdio_output@@@2@@__crt_stdio_output@@CADH_N@Z 1003dfa9 f i libucrt:output.obj
 0001:0003cfc2       ?adjust_hexit@?$output_processor@DV?$string_output_adapter@D@__crt_stdio_output@@V?$format_validation_base@DV?$string_output_adapter@D@__crt_stdio_output@@@2@@__crt_stdio_output@@CADH_N@Z 1003dfc2 f i libucrt:output.obj
 0001:0003cfdb       ?adjust_hexit@?$output_processor@DV?$string_output_adapter@D@__crt_stdio_output@@V?$positional_parameter_base@DV?$string_output_adapter@D@__crt_stdio_output@@@2@@__crt_stdio_output@@CADH_N@Z 1003dfdb f i libucrt:output.obj
 0001:0003cff4       ?adjust_hexit@?$output_processor@DV?$string_output_adapter@D@__crt_stdio_output@@V?$standard_base@DV?$string_output_adapter@D@__crt_stdio_output@@@2@@__crt_stdio_output@@CADH_N@Z 1003dff4 f i libucrt:output.obj
 0001:0003d00d       ?adjust_hexit@?$output_processor@_WV?$stream_output_adapter@_W@__crt_stdio_output@@V?$format_validation_base@_WV?$stream_output_adapter@_W@__crt_stdio_output@@@2@@__crt_stdio_output@@CADH_N@Z 1003e00d f i libucrt:output.obj
 0001:0003d026       ?adjust_hexit@?$output_processor@_WV?$stream_output_adapter@_W@__crt_stdio_output@@V?$positional_parameter_base@_WV?$stream_output_adapter@_W@__crt_stdio_output@@@2@@__crt_stdio_output@@CADH_N@Z 1003e026 f i libucrt:output.obj
 0001:0003d03f       ?adjust_hexit@?$output_processor@_WV?$stream_output_adapter@_W@__crt_stdio_output@@V?$standard_base@_WV?$stream_output_adapter@_W@__crt_stdio_output@@@2@@__crt_stdio_output@@CADH_N@Z 1003e03f f i libucrt:output.obj
 0001:0003d058       ?adjust_hexit@?$output_processor@_WV?$string_output_adapter@_W@__crt_stdio_output@@V?$format_validation_base@_WV?$string_output_adapter@_W@__crt_stdio_output@@@2@@__crt_stdio_output@@CADH_N@Z 1003e058 f i libucrt:output.obj
 0001:0003d071       ?adjust_hexit@?$output_processor@_WV?$string_output_adapter@_W@__crt_stdio_output@@V?$positional_parameter_base@_WV?$string_output_adapter@_W@__crt_stdio_output@@@2@@__crt_stdio_output@@CADH_N@Z 1003e071 f i libucrt:output.obj
 0001:0003d08a       ?adjust_hexit@?$output_processor@_WV?$string_output_adapter@_W@__crt_stdio_output@@V?$standard_base@_WV?$string_output_adapter@_W@__crt_stdio_output@@@2@@__crt_stdio_output@@CADH_N@Z 1003e08a f i libucrt:output.obj
 0001:0003d0a3       ?advance_to_next_pass@?$positional_parameter_base@DV?$stream_output_adapter@D@__crt_stdio_output@@@__crt_stdio_output@@IAE_NXZ 1003e0a3 f i libucrt:output.obj
 0001:0003d102       ?advance_to_next_pass@?$positional_parameter_base@DV?$string_output_adapter@D@__crt_stdio_output@@@__crt_stdio_output@@IAE_NXZ 1003e102 f i libucrt:output.obj
 0001:0003d161       ?advance_to_next_pass@?$positional_parameter_base@_WV?$stream_output_adapter@_W@__crt_stdio_output@@@__crt_stdio_output@@IAE_NXZ 1003e161 f i libucrt:output.obj
 0001:0003d1c0       ?advance_to_next_pass@?$positional_parameter_base@_WV?$string_output_adapter@_W@__crt_stdio_output@@@__crt_stdio_output@@IAE_NXZ 1003e1c0 f i libucrt:output.obj
 0001:0003d21f       ?advance_to_next_pass@?$standard_base@DV?$stream_output_adapter@D@__crt_stdio_output@@@__crt_stdio_output@@IAE_NXZ 1003e21f f i libucrt:output.obj
 0001:0003d234       ?advance_to_next_pass@?$standard_base@DV?$string_output_adapter@D@__crt_stdio_output@@@__crt_stdio_output@@IAE_NXZ 1003e234 f i libucrt:output.obj
 0001:0003d249       ?advance_to_next_pass@?$standard_base@_WV?$stream_output_adapter@_W@__crt_stdio_output@@@__crt_stdio_output@@IAE_NXZ 1003e249 f i libucrt:output.obj
 0001:0003d25e       ?advance_to_next_pass@?$standard_base@_WV?$string_output_adapter@_W@__crt_stdio_output@@@__crt_stdio_output@@IAE_NXZ 1003e25e f i libucrt:output.obj
 0001:0003d273       ?crop_zeroes@__crt_stdio_output@@YAXPADQAU__crt_locale_pointers@@@Z 1003e273 f i libucrt:output.obj
 0001:0003d2eb       ?find_next_state@?$output_processor@DV?$stream_output_adapter@D@__crt_stdio_output@@V?$format_validation_base@DV?$stream_output_adapter@D@__crt_stdio_output@@@2@@__crt_stdio_output@@ABE?AW4state@2@DW432@@Z 1003e2eb f i libucrt:output.obj
 0001:0003d33b       ?find_next_state@?$output_processor@DV?$stream_output_adapter@D@__crt_stdio_output@@V?$positional_parameter_base@DV?$stream_output_adapter@D@__crt_stdio_output@@@2@@__crt_stdio_output@@ABE?AW4state@2@DW432@@Z 1003e33b f i libucrt:output.obj
 0001:0003d38b       ?find_next_state@?$output_processor@DV?$stream_output_adapter@D@__crt_stdio_output@@V?$standard_base@DV?$stream_output_adapter@D@__crt_stdio_output@@@2@@__crt_stdio_output@@ABE?AW4state@2@DW432@@Z 1003e38b f i libucrt:output.obj
 0001:0003d3d7       ?find_next_state@?$output_processor@DV?$string_output_adapter@D@__crt_stdio_output@@V?$format_validation_base@DV?$string_output_adapter@D@__crt_stdio_output@@@2@@__crt_stdio_output@@ABE?AW4state@2@DW432@@Z 1003e3d7 f i libucrt:output.obj
 0001:0003d427       ?find_next_state@?$output_processor@DV?$string_output_adapter@D@__crt_stdio_output@@V?$positional_parameter_base@DV?$string_output_adapter@D@__crt_stdio_output@@@2@@__crt_stdio_output@@ABE?AW4state@2@DW432@@Z 1003e427 f i libucrt:output.obj
 0001:0003d477       ?find_next_state@?$output_processor@DV?$string_output_adapter@D@__crt_stdio_output@@V?$standard_base@DV?$string_output_adapter@D@__crt_stdio_output@@@2@@__crt_stdio_output@@ABE?AW4state@2@DW432@@Z 1003e477 f i libucrt:output.obj
 0001:0003d4c3       ?find_next_state@?$output_processor@_WV?$stream_output_adapter@_W@__crt_stdio_output@@V?$format_validation_base@_WV?$stream_output_adapter@_W@__crt_stdio_output@@@2@@__crt_stdio_output@@ABE?AW4state@2@_WW432@@Z 1003e4c3 f i libucrt:output.obj
 0001:0003d515       ?find_next_state@?$output_processor@_WV?$stream_output_adapter@_W@__crt_stdio_output@@V?$positional_parameter_base@_WV?$stream_output_adapter@_W@__crt_stdio_output@@@2@@__crt_stdio_output@@ABE?AW4state@2@_WW432@@Z 1003e515 f i libucrt:output.obj
 0001:0003d567       ?find_next_state@?$output_processor@_WV?$stream_output_adapter@_W@__crt_stdio_output@@V?$standard_base@_WV?$stream_output_adapter@_W@__crt_stdio_output@@@2@@__crt_stdio_output@@ABE?AW4state@2@_WW432@@Z 1003e567 f i libucrt:output.obj
 0001:0003d5b5       ?find_next_state@?$output_processor@_WV?$string_output_adapter@_W@__crt_stdio_output@@V?$format_validation_base@_WV?$string_output_adapter@_W@__crt_stdio_output@@@2@@__crt_stdio_output@@ABE?AW4state@2@_WW432@@Z 1003e5b5 f i libucrt:output.obj
 0001:0003d607       ?find_next_state@?$output_processor@_WV?$string_output_adapter@_W@__crt_stdio_output@@V?$positional_parameter_base@_WV?$string_output_adapter@_W@__crt_stdio_output@@@2@@__crt_stdio_output@@ABE?AW4state@2@_WW432@@Z 1003e607 f i libucrt:output.obj
 0001:0003d659       ?find_next_state@?$output_processor@_WV?$string_output_adapter@_W@__crt_stdio_output@@V?$standard_base@_WV?$string_output_adapter@_W@__crt_stdio_output@@@2@@__crt_stdio_output@@ABE?AW4state@2@_WW432@@Z 1003e659 f i libucrt:output.obj
 0001:0003d6a7       ?force_decimal_point@__crt_stdio_output@@YAXPADQAU__crt_locale_pointers@@@Z 1003e6a7 f i libucrt:output.obj
 0001:0003d71a       ?get@__crt_deferred_errno_cache@@QAEAAHXZ 1003e71a f i libucrt:output.obj
 0001:0003d733       ?get_flags@__crt_stdio_stream@@QBEJXZ 1003e733 f i libucrt:output.obj
 0001:0003d73a       ?get_parameter_type@?$positional_parameter_base@DV?$stream_output_adapter@D@__crt_stdio_output@@@__crt_stdio_output@@CA?AW4parameter_type@12@F@Z 1003e73a f i libucrt:output.obj
 0001:0003d73e       ?get_parameter_type@?$positional_parameter_base@DV?$stream_output_adapter@D@__crt_stdio_output@@@__crt_stdio_output@@CA?AW4parameter_type@12@G@Z 1003e73e f i libucrt:output.obj
 0001:0003d742       ?get_parameter_type@?$positional_parameter_base@DV?$stream_output_adapter@D@__crt_stdio_output@@@__crt_stdio_output@@CA?AW4parameter_type@12@H@Z 1003e742 f i libucrt:output.obj
 0001:0003d746       ?get_parameter_type@?$positional_parameter_base@DV?$stream_output_adapter@D@__crt_stdio_output@@@__crt_stdio_output@@CA?AW4parameter_type@12@I@Z 1003e746 f i libucrt:output.obj
 0001:0003d74a       ?get_parameter_type@?$positional_parameter_base@DV?$stream_output_adapter@D@__crt_stdio_output@@@__crt_stdio_output@@CA?AW4parameter_type@12@U_CRT_DOUBLE@@@Z 1003e74a f i libucrt:output.obj
 0001:0003d74e       ?get_parameter_type@?$positional_parameter_base@DV?$stream_output_adapter@D@__crt_stdio_output@@@__crt_stdio_output@@CA?AW4parameter_type@12@_J@Z 1003e74e f i libucrt:output.obj
 0001:0003d752       ?get_parameter_type@?$positional_parameter_base@DV?$stream_output_adapter@D@__crt_stdio_output@@@__crt_stdio_output@@CA?AW4parameter_type@12@_K@Z 1003e752 f i libucrt:output.obj
 0001:0003d756       ?get_parameter_type@?$positional_parameter_base@DV?$stream_output_adapter@D@__crt_stdio_output@@@__crt_stdio_output@@CA?AW4parameter_type@12@_W@Z 1003e756 f i libucrt:output.obj
 0001:0003d75a       ?get_parameter_type@?$positional_parameter_base@DV?$string_output_adapter@D@__crt_stdio_output@@@__crt_stdio_output@@CA?AW4parameter_type@12@F@Z 1003e75a f i libucrt:output.obj
 0001:0003d75e       ?get_parameter_type@?$positional_parameter_base@DV?$string_output_adapter@D@__crt_stdio_output@@@__crt_stdio_output@@CA?AW4parameter_type@12@G@Z 1003e75e f i libucrt:output.obj
 0001:0003d762       ?get_parameter_type@?$positional_parameter_base@DV?$string_output_adapter@D@__crt_stdio_output@@@__crt_stdio_output@@CA?AW4parameter_type@12@H@Z 1003e762 f i libucrt:output.obj
 0001:0003d766       ?get_parameter_type@?$positional_parameter_base@DV?$string_output_adapter@D@__crt_stdio_output@@@__crt_stdio_output@@CA?AW4parameter_type@12@I@Z 1003e766 f i libucrt:output.obj
 0001:0003d76a       ?get_parameter_type@?$positional_parameter_base@DV?$string_output_adapter@D@__crt_stdio_output@@@__crt_stdio_output@@CA?AW4parameter_type@12@U_CRT_DOUBLE@@@Z 1003e76a f i libucrt:output.obj
 0001:0003d76e       ?get_parameter_type@?$positional_parameter_base@DV?$string_output_adapter@D@__crt_stdio_output@@@__crt_stdio_output@@CA?AW4parameter_type@12@_J@Z 1003e76e f i libucrt:output.obj
 0001:0003d772       ?get_parameter_type@?$positional_parameter_base@DV?$string_output_adapter@D@__crt_stdio_output@@@__crt_stdio_output@@CA?AW4parameter_type@12@_K@Z 1003e772 f i libucrt:output.obj
 0001:0003d776       ?get_parameter_type@?$positional_parameter_base@DV?$string_output_adapter@D@__crt_stdio_output@@@__crt_stdio_output@@CA?AW4parameter_type@12@_W@Z 1003e776 f i libucrt:output.obj
 0001:0003d77a       ?get_parameter_type@?$positional_parameter_base@_WV?$stream_output_adapter@_W@__crt_stdio_output@@@__crt_stdio_output@@CA?AW4parameter_type@12@F@Z 1003e77a f i libucrt:output.obj
 0001:0003d77e       ?get_parameter_type@?$positional_parameter_base@_WV?$stream_output_adapter@_W@__crt_stdio_output@@@__crt_stdio_output@@CA?AW4parameter_type@12@G@Z 1003e77e f i libucrt:output.obj
 0001:0003d782       ?get_parameter_type@?$positional_parameter_base@_WV?$stream_output_adapter@_W@__crt_stdio_output@@@__crt_stdio_output@@CA?AW4parameter_type@12@H@Z 1003e782 f i libucrt:output.obj
 0001:0003d786       ?get_parameter_type@?$positional_parameter_base@_WV?$stream_output_adapter@_W@__crt_stdio_output@@@__crt_stdio_output@@CA?AW4parameter_type@12@I@Z 1003e786 f i libucrt:output.obj
 0001:0003d78a       ?get_parameter_type@?$positional_parameter_base@_WV?$stream_output_adapter@_W@__crt_stdio_output@@@__crt_stdio_output@@CA?AW4parameter_type@12@U_CRT_DOUBLE@@@Z 1003e78a f i libucrt:output.obj
 0001:0003d78e       ?get_parameter_type@?$positional_parameter_base@_WV?$stream_output_adapter@_W@__crt_stdio_output@@@__crt_stdio_output@@CA?AW4parameter_type@12@_J@Z 1003e78e f i libucrt:output.obj
 0001:0003d792       ?get_parameter_type@?$positional_parameter_base@_WV?$stream_output_adapter@_W@__crt_stdio_output@@@__crt_stdio_output@@CA?AW4parameter_type@12@_K@Z 1003e792 f i libucrt:output.obj
 0001:0003d796       ?get_parameter_type@?$positional_parameter_base@_WV?$stream_output_adapter@_W@__crt_stdio_output@@@__crt_stdio_output@@CA?AW4parameter_type@12@_W@Z 1003e796 f i libucrt:output.obj
 0001:0003d79a       ?get_parameter_type@?$positional_parameter_base@_WV?$string_output_adapter@_W@__crt_stdio_output@@@__crt_stdio_output@@CA?AW4parameter_type@12@F@Z 1003e79a f i libucrt:output.obj
 0001:0003d79e       ?get_parameter_type@?$positional_parameter_base@_WV?$string_output_adapter@_W@__crt_stdio_output@@@__crt_stdio_output@@CA?AW4parameter_type@12@G@Z 1003e79e f i libucrt:output.obj
 0001:0003d7a2       ?get_parameter_type@?$positional_parameter_base@_WV?$string_output_adapter@_W@__crt_stdio_output@@@__crt_stdio_output@@CA?AW4parameter_type@12@H@Z 1003e7a2 f i libucrt:output.obj
 0001:0003d7a6       ?get_parameter_type@?$positional_parameter_base@_WV?$string_output_adapter@_W@__crt_stdio_output@@@__crt_stdio_output@@CA?AW4parameter_type@12@I@Z 1003e7a6 f i libucrt:output.obj
 0001:0003d7aa       ?get_parameter_type@?$positional_parameter_base@_WV?$string_output_adapter@_W@__crt_stdio_output@@@__crt_stdio_output@@CA?AW4parameter_type@12@U_CRT_DOUBLE@@@Z 1003e7aa f i libucrt:output.obj
 0001:0003d7ae       ?get_parameter_type@?$positional_parameter_base@_WV?$string_output_adapter@_W@__crt_stdio_output@@@__crt_stdio_output@@CA?AW4parameter_type@12@_J@Z 1003e7ae f i libucrt:output.obj
 0001:0003d7b2       ?get_parameter_type@?$positional_parameter_base@_WV?$string_output_adapter@_W@__crt_stdio_output@@@__crt_stdio_output@@CA?AW4parameter_type@12@_K@Z 1003e7b2 f i libucrt:output.obj
 0001:0003d7b6       ?get_parameter_type@?$positional_parameter_base@_WV?$string_output_adapter@_W@__crt_stdio_output@@@__crt_stdio_output@@CA?AW4parameter_type@12@_W@Z 1003e7b6 f i libucrt:output.obj
 0001:0003d7ba       ?has_flag@?$output_processor@DV?$stream_output_adapter@D@__crt_stdio_output@@V?$format_validation_base@DV?$stream_output_adapter@D@__crt_stdio_output@@@2@@__crt_stdio_output@@ABE_NI@Z 1003e7ba f i libucrt:output.obj
 0001:0003d7d0       ?has_flag@?$output_processor@DV?$stream_output_adapter@D@__crt_stdio_output@@V?$positional_parameter_base@DV?$stream_output_adapter@D@__crt_stdio_output@@@2@@__crt_stdio_output@@ABE_NI@Z 1003e7d0 f i libucrt:output.obj
 0001:0003d7e6       ?has_flag@?$output_processor@DV?$stream_output_adapter@D@__crt_stdio_output@@V?$standard_base@DV?$stream_output_adapter@D@__crt_stdio_output@@@2@@__crt_stdio_output@@ABE_NI@Z 1003e7e6 f i libucrt:output.obj
 0001:0003d7fc       ?has_flag@?$output_processor@DV?$string_output_adapter@D@__crt_stdio_output@@V?$format_validation_base@DV?$string_output_adapter@D@__crt_stdio_output@@@2@@__crt_stdio_output@@ABE_NI@Z 1003e7fc f i libucrt:output.obj
 0001:0003d812       ?has_flag@?$output_processor@DV?$string_output_adapter@D@__crt_stdio_output@@V?$positional_parameter_base@DV?$string_output_adapter@D@__crt_stdio_output@@@2@@__crt_stdio_output@@ABE_NI@Z 1003e812 f i libucrt:output.obj
 0001:0003d828       ?has_flag@?$output_processor@DV?$string_output_adapter@D@__crt_stdio_output@@V?$standard_base@DV?$string_output_adapter@D@__crt_stdio_output@@@2@@__crt_stdio_output@@ABE_NI@Z 1003e828 f i libucrt:output.obj
 0001:0003d83e       ?has_flag@?$output_processor@_WV?$stream_output_adapter@_W@__crt_stdio_output@@V?$format_validation_base@_WV?$stream_output_adapter@_W@__crt_stdio_output@@@2@@__crt_stdio_output@@ABE_NI@Z 1003e83e f i libucrt:output.obj
 0001:0003d854       ?has_flag@?$output_processor@_WV?$stream_output_adapter@_W@__crt_stdio_output@@V?$positional_parameter_base@_WV?$stream_output_adapter@_W@__crt_stdio_output@@@2@@__crt_stdio_output@@ABE_NI@Z 1003e854 f i libucrt:output.obj
 0001:0003d86a       ?has_flag@?$output_processor@_WV?$stream_output_adapter@_W@__crt_stdio_output@@V?$standard_base@_WV?$stream_output_adapter@_W@__crt_stdio_output@@@2@@__crt_stdio_output@@ABE_NI@Z 1003e86a f i libucrt:output.obj
 0001:0003d880       ?has_flag@?$output_processor@_WV?$string_output_adapter@_W@__crt_stdio_output@@V?$format_validation_base@_WV?$string_output_adapter@_W@__crt_stdio_output@@@2@@__crt_stdio_output@@ABE_NI@Z 1003e880 f i libucrt:output.obj
 0001:0003d896       ?has_flag@?$output_processor@_WV?$string_output_adapter@_W@__crt_stdio_output@@V?$positional_parameter_base@_WV?$string_output_adapter@_W@__crt_stdio_output@@@2@@__crt_stdio_output@@ABE_NI@Z 1003e896 f i libucrt:output.obj
 0001:0003d8ac       ?has_flag@?$output_processor@_WV?$string_output_adapter@_W@__crt_stdio_output@@V?$standard_base@_WV?$string_output_adapter@_W@__crt_stdio_output@@@2@@__crt_stdio_output@@ABE_NI@Z 1003e8ac f i libucrt:output.obj
 0001:0003d8c2       ?is_positional_parameter_reappearance_consistent@?$positional_parameter_base@DV?$stream_output_adapter@D@__crt_stdio_output@@@__crt_stdio_output@@AAE_NABUparameter_data@12@W4parameter_type@12@DW4length_modifier@2@@Z 1003e8c2 f i libucrt:output.obj
 0001:0003da20       ?is_positional_parameter_reappearance_consistent@?$positional_parameter_base@DV?$string_output_adapter@D@__crt_stdio_output@@@__crt_stdio_output@@AAE_NABUparameter_data@12@W4parameter_type@12@DW4length_modifier@2@@Z 1003ea20 f i libucrt:output.obj
 0001:0003db7e       ?is_positional_parameter_reappearance_consistent@?$positional_parameter_base@_WV?$stream_output_adapter@_W@__crt_stdio_output@@@__crt_stdio_output@@AAE_NABUparameter_data@12@W4parameter_type@12@_WW4length_modifier@2@@Z 1003eb7e f i libucrt:output.obj
 0001:0003dcdc       ?is_positional_parameter_reappearance_consistent@?$positional_parameter_base@_WV?$string_output_adapter@_W@__crt_stdio_output@@@__crt_stdio_output@@AAE_NABUparameter_data@12@W4parameter_type@12@_WW4length_modifier@2@@Z 1003ecdc f i libucrt:output.obj
 0001:0003de3a       ?is_string_backed@__crt_stdio_stream@@QBE_NXZ 1003ee3a f i libucrt:output.obj
 0001:0003de49       ?narrow_null_string@?$output_processor@DV?$stream_output_adapter@D@__crt_stdio_output@@V?$format_validation_base@DV?$stream_output_adapter@D@__crt_stdio_output@@@2@@__crt_stdio_output@@CAPADXZ 1003ee49 f i libucrt:output.obj
 0001:0003de4f       ?narrow_null_string@?$output_processor@DV?$stream_output_adapter@D@__crt_stdio_output@@V?$positional_parameter_base@DV?$stream_output_adapter@D@__crt_stdio_output@@@2@@__crt_stdio_output@@CAPADXZ 1003ee4f f i libucrt:output.obj
 0001:0003de55       ?narrow_null_string@?$output_processor@DV?$stream_output_adapter@D@__crt_stdio_output@@V?$standard_base@DV?$stream_output_adapter@D@__crt_stdio_output@@@2@@__crt_stdio_output@@CAPADXZ 1003ee55 f i libucrt:output.obj
 0001:0003de5b       ?narrow_null_string@?$output_processor@DV?$string_output_adapter@D@__crt_stdio_output@@V?$format_validation_base@DV?$string_output_adapter@D@__crt_stdio_output@@@2@@__crt_stdio_output@@CAPADXZ 1003ee5b f i libucrt:output.obj
 0001:0003de61       ?narrow_null_string@?$output_processor@DV?$string_output_adapter@D@__crt_stdio_output@@V?$positional_parameter_base@DV?$string_output_adapter@D@__crt_stdio_output@@@2@@__crt_stdio_output@@CAPADXZ 1003ee61 f i libucrt:output.obj
 0001:0003de67       ?narrow_null_string@?$output_processor@DV?$string_output_adapter@D@__crt_stdio_output@@V?$standard_base@DV?$string_output_adapter@D@__crt_stdio_output@@@2@@__crt_stdio_output@@CAPADXZ 1003ee67 f i libucrt:output.obj
 0001:0003de6d       ?narrow_null_string@?$output_processor@_WV?$stream_output_adapter@_W@__crt_stdio_output@@V?$format_validation_base@_WV?$stream_output_adapter@_W@__crt_stdio_output@@@2@@__crt_stdio_output@@CAPADXZ 1003ee6d f i libucrt:output.obj
 0001:0003de73       ?narrow_null_string@?$output_processor@_WV?$stream_output_adapter@_W@__crt_stdio_output@@V?$positional_parameter_base@_WV?$stream_output_adapter@_W@__crt_stdio_output@@@2@@__crt_stdio_output@@CAPADXZ 1003ee73 f i libucrt:output.obj
 0001:0003de79       ?narrow_null_string@?$output_processor@_WV?$stream_output_adapter@_W@__crt_stdio_output@@V?$standard_base@_WV?$stream_output_adapter@_W@__crt_stdio_output@@@2@@__crt_stdio_output@@CAPADXZ 1003ee79 f i libucrt:output.obj
 0001:0003de7f       ?narrow_null_string@?$output_processor@_WV?$string_output_adapter@_W@__crt_stdio_output@@V?$format_validation_base@_WV?$string_output_adapter@_W@__crt_stdio_output@@@2@@__crt_stdio_output@@CAPADXZ 1003ee7f f i libucrt:output.obj
 0001:0003de85       ?narrow_null_string@?$output_processor@_WV?$string_output_adapter@_W@__crt_stdio_output@@V?$positional_parameter_base@_WV?$string_output_adapter@_W@__crt_stdio_output@@@2@@__crt_stdio_output@@CAPADXZ 1003ee85 f i libucrt:output.obj
 0001:0003de8b       ?narrow_null_string@?$output_processor@_WV?$string_output_adapter@_W@__crt_stdio_output@@V?$standard_base@_WV?$string_output_adapter@_W@__crt_stdio_output@@@2@@__crt_stdio_output@@CAPADXZ 1003ee8b f i libucrt:output.obj
 0001:0003de91       ?parse_int_from_format_string@?$output_processor@DV?$stream_output_adapter@D@__crt_stdio_output@@V?$format_validation_base@DV?$stream_output_adapter@D@__crt_stdio_output@@@2@@__crt_stdio_output@@AAE_NQAH@Z 1003ee91 f i libucrt:output.obj
 0001:0003df22       ?parse_int_from_format_string@?$output_processor@DV?$stream_output_adapter@D@__crt_stdio_output@@V?$positional_parameter_base@DV?$stream_output_adapter@D@__crt_stdio_output@@@2@@__crt_stdio_output@@AAE_NQAH@Z 1003ef22 f i libucrt:output.obj
 0001:0003dfb3       ?parse_int_from_format_string@?$output_processor@DV?$stream_output_adapter@D@__crt_stdio_output@@V?$standard_base@DV?$stream_output_adapter@D@__crt_stdio_output@@@2@@__crt_stdio_output@@AAE_NQAH@Z 1003efb3 f i libucrt:output.obj
 0001:0003e044       ?parse_int_from_format_string@?$output_processor@DV?$string_output_adapter@D@__crt_stdio_output@@V?$format_validation_base@DV?$string_output_adapter@D@__crt_stdio_output@@@2@@__crt_stdio_output@@AAE_NQAH@Z 1003f044 f i libucrt:output.obj
 0001:0003e0d5       ?parse_int_from_format_string@?$output_processor@DV?$string_output_adapter@D@__crt_stdio_output@@V?$positional_parameter_base@DV?$string_output_adapter@D@__crt_stdio_output@@@2@@__crt_stdio_output@@AAE_NQAH@Z 1003f0d5 f i libucrt:output.obj
 0001:0003e166       ?parse_int_from_format_string@?$output_processor@DV?$string_output_adapter@D@__crt_stdio_output@@V?$standard_base@DV?$string_output_adapter@D@__crt_stdio_output@@@2@@__crt_stdio_output@@AAE_NQAH@Z 1003f166 f i libucrt:output.obj
 0001:0003e1f7       ?parse_int_from_format_string@?$output_processor@_WV?$stream_output_adapter@_W@__crt_stdio_output@@V?$format_validation_base@_WV?$stream_output_adapter@_W@__crt_stdio_output@@@2@@__crt_stdio_output@@AAE_NQAH@Z 1003f1f7 f i libucrt:output.obj
 0001:0003e28a       ?parse_int_from_format_string@?$output_processor@_WV?$stream_output_adapter@_W@__crt_stdio_output@@V?$positional_parameter_base@_WV?$stream_output_adapter@_W@__crt_stdio_output@@@2@@__crt_stdio_output@@AAE_NQAH@Z 1003f28a f i libucrt:output.obj
 0001:0003e31d       ?parse_int_from_format_string@?$output_processor@_WV?$stream_output_adapter@_W@__crt_stdio_output@@V?$standard_base@_WV?$stream_output_adapter@_W@__crt_stdio_output@@@2@@__crt_stdio_output@@AAE_NQAH@Z 1003f31d f i libucrt:output.obj
 0001:0003e3b0       ?parse_int_from_format_string@?$output_processor@_WV?$string_output_adapter@_W@__crt_stdio_output@@V?$format_validation_base@_WV?$string_output_adapter@_W@__crt_stdio_output@@@2@@__crt_stdio_output@@AAE_NQAH@Z 1003f3b0 f i libucrt:output.obj
 0001:0003e443       ?parse_int_from_format_string@?$output_processor@_WV?$string_output_adapter@_W@__crt_stdio_output@@V?$positional_parameter_base@_WV?$string_output_adapter@_W@__crt_stdio_output@@@2@@__crt_stdio_output@@AAE_NQAH@Z 1003f443 f i libucrt:output.obj
 0001:0003e4d6       ?parse_int_from_format_string@?$output_processor@_WV?$string_output_adapter@_W@__crt_stdio_output@@V?$standard_base@_WV?$string_output_adapter@_W@__crt_stdio_output@@@2@@__crt_stdio_output@@AAE_NQAH@Z 1003f4d6 f i libucrt:output.obj
 0001:0003e569       ?process@?$output_processor@DV?$stream_output_adapter@D@__crt_stdio_output@@V?$format_validation_base@DV?$stream_output_adapter@D@__crt_stdio_output@@@2@@__crt_stdio_output@@QAEHXZ 1003f569 f i libucrt:output.obj
 0001:0003e6d6       ?process@?$output_processor@DV?$stream_output_adapter@D@__crt_stdio_output@@V?$positional_parameter_base@DV?$stream_output_adapter@D@__crt_stdio_output@@@2@@__crt_stdio_output@@QAEHXZ 1003f6d6 f i libucrt:output.obj
 0001:0003e852       ?process@?$output_processor@DV?$stream_output_adapter@D@__crt_stdio_output@@V?$standard_base@DV?$stream_output_adapter@D@__crt_stdio_output@@@2@@__crt_stdio_output@@QAEHXZ 1003f852 f i libucrt:output.obj
 0001:0003e9ab       ?process@?$output_processor@DV?$string_output_adapter@D@__crt_stdio_output@@V?$format_validation_base@DV?$string_output_adapter@D@__crt_stdio_output@@@2@@__crt_stdio_output@@QAEHXZ 1003f9ab f i libucrt:output.obj
 0001:0003eb18       ?process@?$output_processor@DV?$string_output_adapter@D@__crt_stdio_output@@V?$positional_parameter_base@DV?$string_output_adapter@D@__crt_stdio_output@@@2@@__crt_stdio_output@@QAEHXZ 1003fb18 f i libucrt:output.obj
 0001:0003ec94       ?process@?$output_processor@DV?$string_output_adapter@D@__crt_stdio_output@@V?$standard_base@DV?$string_output_adapter@D@__crt_stdio_output@@@2@@__crt_stdio_output@@QAEHXZ 1003fc94 f i libucrt:output.obj
 0001:0003eded       ?process@?$output_processor@_WV?$stream_output_adapter@_W@__crt_stdio_output@@V?$format_validation_base@_WV?$stream_output_adapter@_W@__crt_stdio_output@@@2@@__crt_stdio_output@@QAEHXZ 1003fded f i libucrt:output.obj
 0001:0003ef5f       ?process@?$output_processor@_WV?$stream_output_adapter@_W@__crt_stdio_output@@V?$positional_parameter_base@_WV?$stream_output_adapter@_W@__crt_stdio_output@@@2@@__crt_stdio_output@@QAEHXZ 1003ff5f f i libucrt:output.obj
 0001:0003f0e0       ?process@?$output_processor@_WV?$stream_output_adapter@_W@__crt_stdio_output@@V?$standard_base@_WV?$stream_output_adapter@_W@__crt_stdio_output@@@2@@__crt_stdio_output@@QAEHXZ 100400e0 f i libucrt:output.obj
 0001:0003f243       ?process@?$output_processor@_WV?$string_output_adapter@_W@__crt_stdio_output@@V?$format_validation_base@_WV?$string_output_adapter@_W@__crt_stdio_output@@@2@@__crt_stdio_output@@QAEHXZ 10040243 f i libucrt:output.obj
 0001:0003f3b5       ?process@?$output_processor@_WV?$string_output_adapter@_W@__crt_stdio_output@@V?$positional_parameter_base@_WV?$string_output_adapter@_W@__crt_stdio_output@@@2@@__crt_stdio_output@@QAEHXZ 100403b5 f i libucrt:output.obj
 0001:0003f536       ?process@?$output_processor@_WV?$string_output_adapter@_W@__crt_stdio_output@@V?$standard_base@_WV?$string_output_adapter@_W@__crt_stdio_output@@@2@@__crt_stdio_output@@QAEHXZ 10040536 f i libucrt:output.obj
 0001:0003f699       ?public_stream@__crt_stdio_stream@@QBEPAU_iobuf@@XZ 10040699 f i libucrt:output.obj
 0001:0003f69c       ?set_flag@?$output_processor@DV?$stream_output_adapter@D@__crt_stdio_output@@V?$format_validation_base@DV?$stream_output_adapter@D@__crt_stdio_output@@@2@@__crt_stdio_output@@AAEXI@Z 1004069c f i libucrt:output.obj
 0001:0003f6ae       ?set_flag@?$output_processor@DV?$stream_output_adapter@D@__crt_stdio_output@@V?$positional_parameter_base@DV?$stream_output_adapter@D@__crt_stdio_output@@@2@@__crt_stdio_output@@AAEXI@Z 100406ae f i libucrt:output.obj
 0001:0003f6c0       ?set_flag@?$output_processor@DV?$stream_output_adapter@D@__crt_stdio_output@@V?$standard_base@DV?$stream_output_adapter@D@__crt_stdio_output@@@2@@__crt_stdio_output@@AAEXI@Z 100406c0 f i libucrt:output.obj
 0001:0003f6d2       ?set_flag@?$output_processor@DV?$string_output_adapter@D@__crt_stdio_output@@V?$format_validation_base@DV?$string_output_adapter@D@__crt_stdio_output@@@2@@__crt_stdio_output@@AAEXI@Z 100406d2 f i libucrt:output.obj
 0001:0003f6e4       ?set_flag@?$output_processor@DV?$string_output_adapter@D@__crt_stdio_output@@V?$positional_parameter_base@DV?$string_output_adapter@D@__crt_stdio_output@@@2@@__crt_stdio_output@@AAEXI@Z 100406e4 f i libucrt:output.obj
 0001:0003f6f6       ?set_flag@?$output_processor@DV?$string_output_adapter@D@__crt_stdio_output@@V?$standard_base@DV?$string_output_adapter@D@__crt_stdio_output@@@2@@__crt_stdio_output@@AAEXI@Z 100406f6 f i libucrt:output.obj
 0001:0003f708       ?set_flag@?$output_processor@_WV?$stream_output_adapter@_W@__crt_stdio_output@@V?$format_validation_base@_WV?$stream_output_adapter@_W@__crt_stdio_output@@@2@@__crt_stdio_output@@AAEXI@Z 10040708 f i libucrt:output.obj
 0001:0003f71a       ?set_flag@?$output_processor@_WV?$stream_output_adapter@_W@__crt_stdio_output@@V?$positional_parameter_base@_WV?$stream_output_adapter@_W@__crt_stdio_output@@@2@@__crt_stdio_output@@AAEXI@Z 1004071a f i libucrt:output.obj
 0001:0003f72c       ?set_flag@?$output_processor@_WV?$stream_output_adapter@_W@__crt_stdio_output@@V?$standard_base@_WV?$stream_output_adapter@_W@__crt_stdio_output@@@2@@__crt_stdio_output@@AAEXI@Z 1004072c f i libucrt:output.obj
 0001:0003f73e       ?set_flag@?$output_processor@_WV?$string_output_adapter@_W@__crt_stdio_output@@V?$format_validation_base@_WV?$string_output_adapter@_W@__crt_stdio_output@@@2@@__crt_stdio_output@@AAEXI@Z 1004073e f i libucrt:output.obj
 0001:0003f750       ?set_flag@?$output_processor@_WV?$string_output_adapter@_W@__crt_stdio_output@@V?$positional_parameter_base@_WV?$string_output_adapter@_W@__crt_stdio_output@@@2@@__crt_stdio_output@@AAEXI@Z 10040750 f i libucrt:output.obj
 0001:0003f762       ?set_flag@?$output_processor@_WV?$string_output_adapter@_W@__crt_stdio_output@@V?$standard_base@_WV?$string_output_adapter@_W@__crt_stdio_output@@@2@@__crt_stdio_output@@AAEXI@Z 10040762 f i libucrt:output.obj
 0001:0003f774       ?should_format@?$positional_parameter_base@DV?$stream_output_adapter@D@__crt_stdio_output@@@__crt_stdio_output@@IAE_NXZ 10040774 f i libucrt:output.obj
 0001:0003f78f       ?should_format@?$positional_parameter_base@DV?$string_output_adapter@D@__crt_stdio_output@@@__crt_stdio_output@@IAE_NXZ 1004078f f i libucrt:output.obj
 0001:0003f7aa       ?should_format@?$positional_parameter_base@_WV?$stream_output_adapter@_W@__crt_stdio_output@@@__crt_stdio_output@@IAE_NXZ 100407aa f i libucrt:output.obj
 0001:0003f7c5       ?should_format@?$positional_parameter_base@_WV?$string_output_adapter@_W@__crt_stdio_output@@@__crt_stdio_output@@IAE_NXZ 100407c5 f i libucrt:output.obj
 0001:0003f7e0       ?should_format@?$standard_base@DV?$stream_output_adapter@D@__crt_stdio_output@@@__crt_stdio_output@@IAE_NXZ 100407e0 f i libucrt:output.obj
 0001:0003f7e3       ?should_format@?$standard_base@DV?$string_output_adapter@D@__crt_stdio_output@@@__crt_stdio_output@@IAE_NXZ 100407e3 f i libucrt:output.obj
 0001:0003f7e6       ?should_format@?$standard_base@_WV?$stream_output_adapter@_W@__crt_stdio_output@@@__crt_stdio_output@@IAE_NXZ 100407e6 f i libucrt:output.obj
 0001:0003f7e9       ?should_format@?$standard_base@_WV?$string_output_adapter@_W@__crt_stdio_output@@@__crt_stdio_output@@IAE_NXZ 100407e9 f i libucrt:output.obj
 0001:0003f7ec       ?should_skip_normal_state_processing@?$positional_parameter_base@DV?$stream_output_adapter@D@__crt_stdio_output@@@__crt_stdio_output@@IAE_NXZ 100407ec f i libucrt:output.obj
 0001:0003f81e       ?should_skip_normal_state_processing@?$positional_parameter_base@DV?$string_output_adapter@D@__crt_stdio_output@@@__crt_stdio_output@@IAE_NXZ 1004081e f i libucrt:output.obj
 0001:0003f850       ?should_skip_normal_state_processing@?$positional_parameter_base@_WV?$stream_output_adapter@_W@__crt_stdio_output@@@__crt_stdio_output@@IAE_NXZ 10040850 f i libucrt:output.obj
 0001:0003f882       ?should_skip_normal_state_processing@?$positional_parameter_base@_WV?$string_output_adapter@_W@__crt_stdio_output@@@__crt_stdio_output@@IAE_NXZ 10040882 f i libucrt:output.obj
 0001:0003f8b4       ?should_skip_normal_state_processing@?$standard_base@DV?$stream_output_adapter@D@__crt_stdio_output@@@__crt_stdio_output@@IAE_NXZ 100408b4 f i libucrt:output.obj
 0001:0003f8b7       ?should_skip_normal_state_processing@?$standard_base@DV?$string_output_adapter@D@__crt_stdio_output@@@__crt_stdio_output@@IAE_NXZ 100408b7 f i libucrt:output.obj
 0001:0003f8ba       ?should_skip_normal_state_processing@?$standard_base@_WV?$stream_output_adapter@_W@__crt_stdio_output@@@__crt_stdio_output@@IAE_NXZ 100408ba f i libucrt:output.obj
 0001:0003f8bd       ?should_skip_normal_state_processing@?$standard_base@_WV?$string_output_adapter@_W@__crt_stdio_output@@@__crt_stdio_output@@IAE_NXZ 100408bd f i libucrt:output.obj
 0001:0003f8c0       ?should_skip_type_state_output@?$positional_parameter_base@DV?$stream_output_adapter@D@__crt_stdio_output@@@__crt_stdio_output@@IBE_NXZ 100408c0 f i libucrt:output.obj
 0001:0003f8dc       ?should_skip_type_state_output@?$positional_parameter_base@DV?$string_output_adapter@D@__crt_stdio_output@@@__crt_stdio_output@@IBE_NXZ 100408dc f i libucrt:output.obj
 0001:0003f8f8       ?should_skip_type_state_output@?$positional_parameter_base@_WV?$stream_output_adapter@_W@__crt_stdio_output@@@__crt_stdio_output@@IBE_NXZ 100408f8 f i libucrt:output.obj
 0001:0003f914       ?should_skip_type_state_output@?$positional_parameter_base@_WV?$string_output_adapter@_W@__crt_stdio_output@@@__crt_stdio_output@@IBE_NXZ 10040914 f i libucrt:output.obj
 0001:0003f930       ?should_skip_type_state_output@?$standard_base@DV?$stream_output_adapter@D@__crt_stdio_output@@@__crt_stdio_output@@IBE_NXZ 10040930 f i libucrt:output.obj
 0001:0003f933       ?should_skip_type_state_output@?$standard_base@DV?$string_output_adapter@D@__crt_stdio_output@@@__crt_stdio_output@@IBE_NXZ 10040933 f i libucrt:output.obj
 0001:0003f936       ?should_skip_type_state_output@?$standard_base@_WV?$stream_output_adapter@_W@__crt_stdio_output@@@__crt_stdio_output@@IBE_NXZ 10040936 f i libucrt:output.obj
 0001:0003f939       ?should_skip_type_state_output@?$standard_base@_WV?$string_output_adapter@_W@__crt_stdio_output@@@__crt_stdio_output@@IBE_NXZ 10040939 f i libucrt:output.obj
 0001:0003f93c       ?state_case_dot@?$output_processor@DV?$stream_output_adapter@D@__crt_stdio_output@@V?$format_validation_base@DV?$stream_output_adapter@D@__crt_stdio_output@@@2@@__crt_stdio_output@@AAE_NXZ 1004093c f i libucrt:output.obj
 0001:0003f943       ?state_case_dot@?$output_processor@DV?$stream_output_adapter@D@__crt_stdio_output@@V?$positional_parameter_base@DV?$stream_output_adapter@D@__crt_stdio_output@@@2@@__crt_stdio_output@@AAE_NXZ 10040943 f i libucrt:output.obj
 0001:0003f94a       ?state_case_dot@?$output_processor@DV?$stream_output_adapter@D@__crt_stdio_output@@V?$standard_base@DV?$stream_output_adapter@D@__crt_stdio_output@@@2@@__crt_stdio_output@@AAE_NXZ 1004094a f i libucrt:output.obj
 0001:0003f951       ?state_case_dot@?$output_processor@DV?$string_output_adapter@D@__crt_stdio_output@@V?$format_validation_base@DV?$string_output_adapter@D@__crt_stdio_output@@@2@@__crt_stdio_output@@AAE_NXZ 10040951 f i libucrt:output.obj
 0001:0003f958       ?state_case_dot@?$output_processor@DV?$string_output_adapter@D@__crt_stdio_output@@V?$positional_parameter_base@DV?$string_output_adapter@D@__crt_stdio_output@@@2@@__crt_stdio_output@@AAE_NXZ 10040958 f i libucrt:output.obj
 0001:0003f95f       ?state_case_dot@?$output_processor@DV?$string_output_adapter@D@__crt_stdio_output@@V?$standard_base@DV?$string_output_adapter@D@__crt_stdio_output@@@2@@__crt_stdio_output@@AAE_NXZ 1004095f f i libucrt:output.obj
 0001:0003f966       ?state_case_dot@?$output_processor@_WV?$stream_output_adapter@_W@__crt_stdio_output@@V?$format_validation_base@_WV?$stream_output_adapter@_W@__crt_stdio_output@@@2@@__crt_stdio_output@@AAE_NXZ 10040966 f i libucrt:output.obj
 0001:0003f96d       ?state_case_dot@?$output_processor@_WV?$stream_output_adapter@_W@__crt_stdio_output@@V?$positional_parameter_base@_WV?$stream_output_adapter@_W@__crt_stdio_output@@@2@@__crt_stdio_output@@AAE_NXZ 1004096d f i libucrt:output.obj
 0001:0003f974       ?state_case_dot@?$output_processor@_WV?$stream_output_adapter@_W@__crt_stdio_output@@V?$standard_base@_WV?$stream_output_adapter@_W@__crt_stdio_output@@@2@@__crt_stdio_output@@AAE_NXZ 10040974 f i libucrt:output.obj
 0001:0003f97b       ?state_case_dot@?$output_processor@_WV?$string_output_adapter@_W@__crt_stdio_output@@V?$format_validation_base@_WV?$string_output_adapter@_W@__crt_stdio_output@@@2@@__crt_stdio_output@@AAE_NXZ 1004097b f i libucrt:output.obj
 0001:0003f982       ?state_case_dot@?$output_processor@_WV?$string_output_adapter@_W@__crt_stdio_output@@V?$positional_parameter_base@_WV?$string_output_adapter@_W@__crt_stdio_output@@@2@@__crt_stdio_output@@AAE_NXZ 10040982 f i libucrt:output.obj
 0001:0003f989       ?state_case_dot@?$output_processor@_WV?$string_output_adapter@_W@__crt_stdio_output@@V?$standard_base@_WV?$string_output_adapter@_W@__crt_stdio_output@@@2@@__crt_stdio_output@@AAE_NXZ 10040989 f i libucrt:output.obj
 0001:0003f990       ?state_case_flag@?$output_processor@DV?$stream_output_adapter@D@__crt_stdio_output@@V?$format_validation_base@DV?$stream_output_adapter@D@__crt_stdio_output@@@2@@__crt_stdio_output@@AAE_NXZ 10040990 f i libucrt:output.obj
 0001:0003f9dc       ?state_case_flag@?$output_processor@DV?$stream_output_adapter@D@__crt_stdio_output@@V?$positional_parameter_base@DV?$stream_output_adapter@D@__crt_stdio_output@@@2@@__crt_stdio_output@@AAE_NXZ 100409dc f i libucrt:output.obj
 0001:0003fa28       ?state_case_flag@?$output_processor@DV?$stream_output_adapter@D@__crt_stdio_output@@V?$standard_base@DV?$stream_output_adapter@D@__crt_stdio_output@@@2@@__crt_stdio_output@@AAE_NXZ 10040a28 f i libucrt:output.obj
 0001:0003fa74       ?state_case_flag@?$output_processor@DV?$string_output_adapter@D@__crt_stdio_output@@V?$format_validation_base@DV?$string_output_adapter@D@__crt_stdio_output@@@2@@__crt_stdio_output@@AAE_NXZ 10040a74 f i libucrt:output.obj
 0001:0003fac0       ?state_case_flag@?$output_processor@DV?$string_output_adapter@D@__crt_stdio_output@@V?$positional_parameter_base@DV?$string_output_adapter@D@__crt_stdio_output@@@2@@__crt_stdio_output@@AAE_NXZ 10040ac0 f i libucrt:output.obj
 0001:0003fb0c       ?state_case_flag@?$output_processor@DV?$string_output_adapter@D@__crt_stdio_output@@V?$standard_base@DV?$string_output_adapter@D@__crt_stdio_output@@@2@@__crt_stdio_output@@AAE_NXZ 10040b0c f i libucrt:output.obj
 0001:0003fb58       ?state_case_flag@?$output_processor@_WV?$stream_output_adapter@_W@__crt_stdio_output@@V?$format_validation_base@_WV?$stream_output_adapter@_W@__crt_stdio_output@@@2@@__crt_stdio_output@@AAE_NXZ 10040b58 f i libucrt:output.obj
 0001:0003fba4       ?state_case_flag@?$output_processor@_WV?$stream_output_adapter@_W@__crt_stdio_output@@V?$positional_parameter_base@_WV?$stream_output_adapter@_W@__crt_stdio_output@@@2@@__crt_stdio_output@@AAE_NXZ 10040ba4 f i libucrt:output.obj
 0001:0003fbf0       ?state_case_flag@?$output_processor@_WV?$stream_output_adapter@_W@__crt_stdio_output@@V?$standard_base@_WV?$stream_output_adapter@_W@__crt_stdio_output@@@2@@__crt_stdio_output@@AAE_NXZ 10040bf0 f i libucrt:output.obj
 0001:0003fc3c       ?state_case_flag@?$output_processor@_WV?$string_output_adapter@_W@__crt_stdio_output@@V?$format_validation_base@_WV?$string_output_adapter@_W@__crt_stdio_output@@@2@@__crt_stdio_output@@AAE_NXZ 10040c3c f i libucrt:output.obj
 0001:0003fc88       ?state_case_flag@?$output_processor@_WV?$string_output_adapter@_W@__crt_stdio_output@@V?$positional_parameter_base@_WV?$string_output_adapter@_W@__crt_stdio_output@@@2@@__crt_stdio_output@@AAE_NXZ 10040c88 f i libucrt:output.obj
 0001:0003fcd4       ?state_case_flag@?$output_processor@_WV?$string_output_adapter@_W@__crt_stdio_output@@V?$standard_base@_WV?$string_output_adapter@_W@__crt_stdio_output@@@2@@__crt_stdio_output@@AAE_NXZ 10040cd4 f i libucrt:output.obj
 0001:0003fd20       ?state_case_normal@?$output_processor@DV?$stream_output_adapter@D@__crt_stdio_output@@V?$format_validation_base@DV?$stream_output_adapter@D@__crt_stdio_output@@@2@@__crt_stdio_output@@AAE_NXZ 10040d20 f i libucrt:output.obj
 0001:0003fd46       ?state_case_normal@?$output_processor@DV?$stream_output_adapter@D@__crt_stdio_output@@V?$positional_parameter_base@DV?$stream_output_adapter@D@__crt_stdio_output@@@2@@__crt_stdio_output@@AAE_NXZ 10040d46 f i libucrt:output.obj
 0001:0003fd83       ?state_case_normal@?$output_processor@DV?$stream_output_adapter@D@__crt_stdio_output@@V?$standard_base@DV?$stream_output_adapter@D@__crt_stdio_output@@@2@@__crt_stdio_output@@AAE_NXZ 10040d83 f i libucrt:output.obj
 0001:0003fda9       ?state_case_normal@?$output_processor@DV?$string_output_adapter@D@__crt_stdio_output@@V?$format_validation_base@DV?$string_output_adapter@D@__crt_stdio_output@@@2@@__crt_stdio_output@@AAE_NXZ 10040da9 f i libucrt:output.obj
 0001:0003fdcf       ?state_case_normal@?$output_processor@DV?$string_output_adapter@D@__crt_stdio_output@@V?$positional_parameter_base@DV?$string_output_adapter@D@__crt_stdio_output@@@2@@__crt_stdio_output@@AAE_NXZ 10040dcf f i libucrt:output.obj
 0001:0003fe0c       ?state_case_normal@?$output_processor@DV?$string_output_adapter@D@__crt_stdio_output@@V?$standard_base@DV?$string_output_adapter@D@__crt_stdio_output@@@2@@__crt_stdio_output@@AAE_NXZ 10040e0c f i libucrt:output.obj
 0001:0003fe32       ?state_case_normal@?$output_processor@_WV?$stream_output_adapter@_W@__crt_stdio_output@@V?$format_validation_base@_WV?$stream_output_adapter@_W@__crt_stdio_output@@@2@@__crt_stdio_output@@AAE_NXZ 10040e32 f i libucrt:output.obj
 0001:0003fe58       ?state_case_normal@?$output_processor@_WV?$stream_output_adapter@_W@__crt_stdio_output@@V?$positional_parameter_base@_WV?$stream_output_adapter@_W@__crt_stdio_output@@@2@@__crt_stdio_output@@AAE_NXZ 10040e58 f i libucrt:output.obj
 0001:0003fe95       ?state_case_normal@?$output_processor@_WV?$stream_output_adapter@_W@__crt_stdio_output@@V?$standard_base@_WV?$stream_output_adapter@_W@__crt_stdio_output@@@2@@__crt_stdio_output@@AAE_NXZ 10040e95 f i libucrt:output.obj
 0001:0003febb       ?state_case_normal@?$output_processor@_WV?$string_output_adapter@_W@__crt_stdio_output@@V?$format_validation_base@_WV?$string_output_adapter@_W@__crt_stdio_output@@@2@@__crt_stdio_output@@AAE_NXZ 10040ebb f i libucrt:output.obj
 0001:0003fee1       ?state_case_normal@?$output_processor@_WV?$string_output_adapter@_W@__crt_stdio_output@@V?$positional_parameter_base@_WV?$string_output_adapter@_W@__crt_stdio_output@@@2@@__crt_stdio_output@@AAE_NXZ 10040ee1 f i libucrt:output.obj
 0001:0003ff1e       ?state_case_normal@?$output_processor@_WV?$string_output_adapter@_W@__crt_stdio_output@@V?$standard_base@_WV?$string_output_adapter@_W@__crt_stdio_output@@@2@@__crt_stdio_output@@AAE_NXZ 10040f1e f i libucrt:output.obj
 0001:0003ff44       ?state_case_normal_common@?$output_processor@DV?$stream_output_adapter@D@__crt_stdio_output@@V?$format_validation_base@DV?$stream_output_adapter@D@__crt_stdio_output@@@2@@__crt_stdio_output@@AAE_NXZ 10040f44 f i libucrt:output.obj
 0001:0003ff8c       ?state_case_normal_common@?$output_processor@DV?$stream_output_adapter@D@__crt_stdio_output@@V?$positional_parameter_base@DV?$stream_output_adapter@D@__crt_stdio_output@@@2@@__crt_stdio_output@@AAE_NXZ 10040f8c f i libucrt:output.obj
 0001:0003ffd4       ?state_case_normal_common@?$output_processor@DV?$stream_output_adapter@D@__crt_stdio_output@@V?$standard_base@DV?$stream_output_adapter@D@__crt_stdio_output@@@2@@__crt_stdio_output@@AAE_NXZ 10040fd4 f i libucrt:output.obj
 0001:0004001c       ?state_case_normal_common@?$output_processor@DV?$string_output_adapter@D@__crt_stdio_output@@V?$format_validation_base@DV?$string_output_adapter@D@__crt_stdio_output@@@2@@__crt_stdio_output@@AAE_NXZ 1004101c f i libucrt:output.obj
 0001:00040050       ?state_case_normal_common@?$output_processor@DV?$string_output_adapter@D@__crt_stdio_output@@V?$positional_parameter_base@DV?$string_output_adapter@D@__crt_stdio_output@@@2@@__crt_stdio_output@@AAE_NXZ 10041050 f i libucrt:output.obj
 0001:00040084       ?state_case_normal_common@?$output_processor@DV?$string_output_adapter@D@__crt_stdio_output@@V?$standard_base@DV?$string_output_adapter@D@__crt_stdio_output@@@2@@__crt_stdio_output@@AAE_NXZ 10041084 f i libucrt:output.obj
 0001:000400b8       ?state_case_normal_common@?$output_processor@_WV?$stream_output_adapter@_W@__crt_stdio_output@@V?$format_validation_base@_WV?$stream_output_adapter@_W@__crt_stdio_output@@@2@@__crt_stdio_output@@AAE_NXZ 100410b8 f i libucrt:output.obj
 0001:000400ec       ?state_case_normal_common@?$output_processor@_WV?$stream_output_adapter@_W@__crt_stdio_output@@V?$positional_parameter_base@_WV?$stream_output_adapter@_W@__crt_stdio_output@@@2@@__crt_stdio_output@@AAE_NXZ 100410ec f i libucrt:output.obj
 0001:00040120       ?state_case_normal_common@?$output_processor@_WV?$stream_output_adapter@_W@__crt_stdio_output@@V?$standard_base@_WV?$stream_output_adapter@_W@__crt_stdio_output@@@2@@__crt_stdio_output@@AAE_NXZ 10041120 f i libucrt:output.obj
 0001:00040154       ?state_case_normal_common@?$output_processor@_WV?$string_output_adapter@_W@__crt_stdio_output@@V?$format_validation_base@_WV?$string_output_adapter@_W@__crt_stdio_output@@@2@@__crt_stdio_output@@AAE_NXZ 10041154 f i libucrt:output.obj
 0001:00040175       ?state_case_normal_common@?$output_processor@_WV?$string_output_adapter@_W@__crt_stdio_output@@V?$positional_parameter_base@_WV?$string_output_adapter@_W@__crt_stdio_output@@@2@@__crt_stdio_output@@AAE_NXZ 10041175 f i libucrt:output.obj
 0001:00040196       ?state_case_normal_common@?$output_processor@_WV?$string_output_adapter@_W@__crt_stdio_output@@V?$standard_base@_WV?$string_output_adapter@_W@__crt_stdio_output@@@2@@__crt_stdio_output@@AAE_NXZ 10041196 f i libucrt:output.obj
 0001:000401b7       ?state_case_normal_tchar@?$output_processor@DV?$stream_output_adapter@D@__crt_stdio_output@@V?$format_validation_base@DV?$stream_output_adapter@D@__crt_stdio_output@@@2@@__crt_stdio_output@@AAE_ND@Z 100411b7 f i libucrt:output.obj
 0001:0004023f       ?state_case_normal_tchar@?$output_processor@DV?$stream_output_adapter@D@__crt_stdio_output@@V?$positional_parameter_base@DV?$stream_output_adapter@D@__crt_stdio_output@@@2@@__crt_stdio_output@@AAE_ND@Z 1004123f f i libucrt:output.obj
 0001:000402c7       ?state_case_normal_tchar@?$output_processor@DV?$stream_output_adapter@D@__crt_stdio_output@@V?$standard_base@DV?$stream_output_adapter@D@__crt_stdio_output@@@2@@__crt_stdio_output@@AAE_ND@Z 100412c7 f i libucrt:output.obj
 0001:0004034f       ?state_case_normal_tchar@?$output_processor@DV?$string_output_adapter@D@__crt_stdio_output@@V?$format_validation_base@DV?$string_output_adapter@D@__crt_stdio_output@@@2@@__crt_stdio_output@@AAE_ND@Z 1004134f f i libucrt:output.obj
 0001:000403cc       ?state_case_normal_tchar@?$output_processor@DV?$string_output_adapter@D@__crt_stdio_output@@V?$positional_parameter_base@DV?$string_output_adapter@D@__crt_stdio_output@@@2@@__crt_stdio_output@@AAE_ND@Z 100413cc f i libucrt:output.obj
 0001:00040449       ?state_case_normal_tchar@?$output_processor@DV?$string_output_adapter@D@__crt_stdio_output@@V?$standard_base@DV?$string_output_adapter@D@__crt_stdio_output@@@2@@__crt_stdio_output@@AAE_ND@Z 10041449 f i libucrt:output.obj
 0001:000404c6       ?state_case_normal_tchar@?$output_processor@_WV?$stream_output_adapter@_W@__crt_stdio_output@@V?$format_validation_base@_WV?$stream_output_adapter@_W@__crt_stdio_output@@@2@@__crt_stdio_output@@AAE_N_W@Z 100414c6 f i libucrt:output.obj
 0001:000404d1       ?state_case_normal_tchar@?$output_processor@_WV?$stream_output_adapter@_W@__crt_stdio_output@@V?$positional_parameter_base@_WV?$stream_output_adapter@_W@__crt_stdio_output@@@2@@__crt_stdio_output@@AAE_N_W@Z 100414d1 f i libucrt:output.obj
 0001:000404dc       ?state_case_normal_tchar@?$output_processor@_WV?$stream_output_adapter@_W@__crt_stdio_output@@V?$standard_base@_WV?$stream_output_adapter@_W@__crt_stdio_output@@@2@@__crt_stdio_output@@AAE_N_W@Z 100414dc f i libucrt:output.obj
 0001:000404e7       ?state_case_normal_tchar@?$output_processor@_WV?$string_output_adapter@_W@__crt_stdio_output@@V?$format_validation_base@_WV?$string_output_adapter@_W@__crt_stdio_output@@@2@@__crt_stdio_output@@AAE_N_W@Z 100414e7 f i libucrt:output.obj
 0001:000404f2       ?state_case_normal_tchar@?$output_processor@_WV?$string_output_adapter@_W@__crt_stdio_output@@V?$positional_parameter_base@_WV?$string_output_adapter@_W@__crt_stdio_output@@@2@@__crt_stdio_output@@AAE_N_W@Z 100414f2 f i libucrt:output.obj
 0001:000404fd       ?state_case_normal_tchar@?$output_processor@_WV?$string_output_adapter@_W@__crt_stdio_output@@V?$standard_base@_WV?$string_output_adapter@_W@__crt_stdio_output@@@2@@__crt_stdio_output@@AAE_N_W@Z 100414fd f i libucrt:output.obj
 0001:00040508       ?state_case_percent@?$output_processor@DV?$stream_output_adapter@D@__crt_stdio_output@@V?$format_validation_base@DV?$stream_output_adapter@D@__crt_stdio_output@@@2@@__crt_stdio_output@@AAE_NXZ 10041508 f i libucrt:output.obj
 0001:00040526       ?state_case_percent@?$output_processor@DV?$stream_output_adapter@D@__crt_stdio_output@@V?$positional_parameter_base@DV?$stream_output_adapter@D@__crt_stdio_output@@@2@@__crt_stdio_output@@AAE_NXZ 10041526 f i libucrt:output.obj
 0001:00040544       ?state_case_percent@?$output_processor@DV?$stream_output_adapter@D@__crt_stdio_output@@V?$standard_base@DV?$stream_output_adapter@D@__crt_stdio_output@@@2@@__crt_stdio_output@@AAE_NXZ 10041544 f i libucrt:output.obj
 0001:00040562       ?state_case_percent@?$output_processor@DV?$string_output_adapter@D@__crt_stdio_output@@V?$format_validation_base@DV?$string_output_adapter@D@__crt_stdio_output@@@2@@__crt_stdio_output@@AAE_NXZ 10041562 f i libucrt:output.obj
 0001:00040580       ?state_case_percent@?$output_processor@DV?$string_output_adapter@D@__crt_stdio_output@@V?$positional_parameter_base@DV?$string_output_adapter@D@__crt_stdio_output@@@2@@__crt_stdio_output@@AAE_NXZ 10041580 f i libucrt:output.obj
 0001:0004059e       ?state_case_percent@?$output_processor@DV?$string_output_adapter@D@__crt_stdio_output@@V?$standard_base@DV?$string_output_adapter@D@__crt_stdio_output@@@2@@__crt_stdio_output@@AAE_NXZ 1004159e f i libucrt:output.obj
 0001:000405bc       ?state_case_percent@?$output_processor@_WV?$stream_output_adapter@_W@__crt_stdio_output@@V?$format_validation_base@_WV?$stream_output_adapter@_W@__crt_stdio_output@@@2@@__crt_stdio_output@@AAE_NXZ 100415bc f i libucrt:output.obj
 0001:000405da       ?state_case_percent@?$output_processor@_WV?$stream_output_adapter@_W@__crt_stdio_output@@V?$positional_parameter_base@_WV?$stream_output_adapter@_W@__crt_stdio_output@@@2@@__crt_stdio_output@@AAE_NXZ 100415da f i libucrt:output.obj
 0001:000405f8       ?state_case_percent@?$output_processor@_WV?$stream_output_adapter@_W@__crt_stdio_output@@V?$standard_base@_WV?$stream_output_adapter@_W@__crt_stdio_output@@@2@@__crt_stdio_output@@AAE_NXZ 100415f8 f i libucrt:output.obj
 0001:00040616       ?state_case_percent@?$output_processor@_WV?$string_output_adapter@_W@__crt_stdio_output@@V?$format_validation_base@_WV?$string_output_adapter@_W@__crt_stdio_output@@@2@@__crt_stdio_output@@AAE_NXZ 10041616 f i libucrt:output.obj
 0001:00040634       ?state_case_percent@?$output_processor@_WV?$string_output_adapter@_W@__crt_stdio_output@@V?$positional_parameter_base@_WV?$string_output_adapter@_W@__crt_stdio_output@@@2@@__crt_stdio_output@@AAE_NXZ 10041634 f i libucrt:output.obj
 0001:00040652       ?state_case_percent@?$output_processor@_WV?$string_output_adapter@_W@__crt_stdio_output@@V?$standard_base@_WV?$string_output_adapter@_W@__crt_stdio_output@@@2@@__crt_stdio_output@@AAE_NXZ 10041652 f i libucrt:output.obj
 0001:00040670       ?state_case_precision@?$output_processor@DV?$stream_output_adapter@D@__crt_stdio_output@@V?$format_validation_base@DV?$stream_output_adapter@D@__crt_stdio_output@@@2@@__crt_stdio_output@@AAE_NXZ 10041670 f i libucrt:output.obj
 0001:0004069f       ?state_case_precision@?$output_processor@DV?$stream_output_adapter@D@__crt_stdio_output@@V?$positional_parameter_base@DV?$stream_output_adapter@D@__crt_stdio_output@@@2@@__crt_stdio_output@@AAE_NXZ 1004169f f i libucrt:output.obj
 0001:000406e7       ?state_case_precision@?$output_processor@DV?$stream_output_adapter@D@__crt_stdio_output@@V?$standard_base@DV?$stream_output_adapter@D@__crt_stdio_output@@@2@@__crt_stdio_output@@AAE_NXZ 100416e7 f i libucrt:output.obj
 0001:00040716       ?state_case_precision@?$output_processor@DV?$string_output_adapter@D@__crt_stdio_output@@V?$format_validation_base@DV?$string_output_adapter@D@__crt_stdio_output@@@2@@__crt_stdio_output@@AAE_NXZ 10041716 f i libucrt:output.obj
 0001:00040745       ?state_case_precision@?$output_processor@DV?$string_output_adapter@D@__crt_stdio_output@@V?$positional_parameter_base@DV?$string_output_adapter@D@__crt_stdio_output@@@2@@__crt_stdio_output@@AAE_NXZ 10041745 f i libucrt:output.obj
 0001:0004078d       ?state_case_precision@?$output_processor@DV?$string_output_adapter@D@__crt_stdio_output@@V?$standard_base@DV?$string_output_adapter@D@__crt_stdio_output@@@2@@__crt_stdio_output@@AAE_NXZ 1004178d f i libucrt:output.obj
 0001:000407bc       ?state_case_precision@?$output_processor@_WV?$stream_output_adapter@_W@__crt_stdio_output@@V?$format_validation_base@_WV?$stream_output_adapter@_W@__crt_stdio_output@@@2@@__crt_stdio_output@@AAE_NXZ 100417bc f i libucrt:output.obj
 0001:000407ec       ?state_case_precision@?$output_processor@_WV?$stream_output_adapter@_W@__crt_stdio_output@@V?$positional_parameter_base@_WV?$stream_output_adapter@_W@__crt_stdio_output@@@2@@__crt_stdio_output@@AAE_NXZ 100417ec f i libucrt:output.obj
 0001:00040835       ?state_case_precision@?$output_processor@_WV?$stream_output_adapter@_W@__crt_stdio_output@@V?$standard_base@_WV?$stream_output_adapter@_W@__crt_stdio_output@@@2@@__crt_stdio_output@@AAE_NXZ 10041835 f i libucrt:output.obj
 0001:00040865       ?state_case_precision@?$output_processor@_WV?$string_output_adapter@_W@__crt_stdio_output@@V?$format_validation_base@_WV?$string_output_adapter@_W@__crt_stdio_output@@@2@@__crt_stdio_output@@AAE_NXZ 10041865 f i libucrt:output.obj
 0001:00040895       ?state_case_precision@?$output_processor@_WV?$string_output_adapter@_W@__crt_stdio_output@@V?$positional_parameter_base@_WV?$string_output_adapter@_W@__crt_stdio_output@@@2@@__crt_stdio_output@@AAE_NXZ 10041895 f i libucrt:output.obj
 0001:000408de       ?state_case_precision@?$output_processor@_WV?$string_output_adapter@_W@__crt_stdio_output@@V?$standard_base@_WV?$string_output_adapter@_W@__crt_stdio_output@@@2@@__crt_stdio_output@@AAE_NXZ 100418de f i libucrt:output.obj
 0001:0004090e       ?state_case_size@?$output_processor@DV?$stream_output_adapter@D@__crt_stdio_output@@V?$format_validation_base@DV?$stream_output_adapter@D@__crt_stdio_output@@@2@@__crt_stdio_output@@AAE_NXZ 1004190e f i libucrt:output.obj
 0001:00040aaf       ?state_case_size@?$output_processor@DV?$stream_output_adapter@D@__crt_stdio_output@@V?$positional_parameter_base@DV?$stream_output_adapter@D@__crt_stdio_output@@@2@@__crt_stdio_output@@AAE_NXZ 10041aaf f i libucrt:output.obj
 0001:00040c50       ?state_case_size@?$output_processor@DV?$stream_output_adapter@D@__crt_stdio_output@@V?$standard_base@DV?$stream_output_adapter@D@__crt_stdio_output@@@2@@__crt_stdio_output@@AAE_NXZ 10041c50 f i libucrt:output.obj
 0001:00040df1       ?state_case_size@?$output_processor@DV?$string_output_adapter@D@__crt_stdio_output@@V?$format_validation_base@DV?$string_output_adapter@D@__crt_stdio_output@@@2@@__crt_stdio_output@@AAE_NXZ 10041df1 f i libucrt:output.obj
 0001:00040f92       ?state_case_size@?$output_processor@DV?$string_output_adapter@D@__crt_stdio_output@@V?$positional_parameter_base@DV?$string_output_adapter@D@__crt_stdio_output@@@2@@__crt_stdio_output@@AAE_NXZ 10041f92 f i libucrt:output.obj
 0001:00041133       ?state_case_size@?$output_processor@DV?$string_output_adapter@D@__crt_stdio_output@@V?$standard_base@DV?$string_output_adapter@D@__crt_stdio_output@@@2@@__crt_stdio_output@@AAE_NXZ 10042133 f i libucrt:output.obj
 0001:000412d4       ?state_case_size@?$output_processor@_WV?$stream_output_adapter@_W@__crt_stdio_output@@V?$format_validation_base@_WV?$stream_output_adapter@_W@__crt_stdio_output@@@2@@__crt_stdio_output@@AAE_NXZ 100422d4 f i libucrt:output.obj
 0001:000414aa       ?state_case_size@?$output_processor@_WV?$stream_output_adapter@_W@__crt_stdio_output@@V?$positional_parameter_base@_WV?$stream_output_adapter@_W@__crt_stdio_output@@@2@@__crt_stdio_output@@AAE_NXZ 100424aa f i libucrt:output.obj
 0001:00041680       ?state_case_size@?$output_processor@_WV?$stream_output_adapter@_W@__crt_stdio_output@@V?$standard_base@_WV?$stream_output_adapter@_W@__crt_stdio_output@@@2@@__crt_stdio_output@@AAE_NXZ 10042680 f i libucrt:output.obj
 0001:00041856       ?state_case_size@?$output_processor@_WV?$string_output_adapter@_W@__crt_stdio_output@@V?$format_validation_base@_WV?$string_output_adapter@_W@__crt_stdio_output@@@2@@__crt_stdio_output@@AAE_NXZ 10042856 f i libucrt:output.obj
 0001:00041a2c       ?state_case_size@?$output_processor@_WV?$string_output_adapter@_W@__crt_stdio_output@@V?$positional_parameter_base@_WV?$string_output_adapter@_W@__crt_stdio_output@@@2@@__crt_stdio_output@@AAE_NXZ 10042a2c f i libucrt:output.obj
 0001:00041c02       ?state_case_size@?$output_processor@_WV?$string_output_adapter@_W@__crt_stdio_output@@V?$standard_base@_WV?$string_output_adapter@_W@__crt_stdio_output@@@2@@__crt_stdio_output@@AAE_NXZ 10042c02 f i libucrt:output.obj
 0001:00041dd8       ?state_case_type@?$output_processor@DV?$stream_output_adapter@D@__crt_stdio_output@@V?$format_validation_base@DV?$stream_output_adapter@D@__crt_stdio_output@@@2@@__crt_stdio_output@@AAE_NXZ 10042dd8 f i libucrt:output.obj
 0001:00042096       ?state_case_type@?$output_processor@DV?$stream_output_adapter@D@__crt_stdio_output@@V?$positional_parameter_base@DV?$stream_output_adapter@D@__crt_stdio_output@@@2@@__crt_stdio_output@@AAE_NXZ 10043096 f i libucrt:output.obj
 0001:00042367       ?state_case_type@?$output_processor@DV?$stream_output_adapter@D@__crt_stdio_output@@V?$standard_base@DV?$stream_output_adapter@D@__crt_stdio_output@@@2@@__crt_stdio_output@@AAE_NXZ 10043367 f i libucrt:output.obj
 0001:00042625       ?state_case_type@?$output_processor@DV?$string_output_adapter@D@__crt_stdio_output@@V?$format_validation_base@DV?$string_output_adapter@D@__crt_stdio_output@@@2@@__crt_stdio_output@@AAE_NXZ 10043625 f i libucrt:output.obj
 0001:000428e3       ?state_case_type@?$output_processor@DV?$string_output_adapter@D@__crt_stdio_output@@V?$positional_parameter_base@DV?$string_output_adapter@D@__crt_stdio_output@@@2@@__crt_stdio_output@@AAE_NXZ 100438e3 f i libucrt:output.obj
 0001:00042bb4       ?state_case_type@?$output_processor@DV?$string_output_adapter@D@__crt_stdio_output@@V?$standard_base@DV?$string_output_adapter@D@__crt_stdio_output@@@2@@__crt_stdio_output@@AAE_NXZ 10043bb4 f i libucrt:output.obj
 0001:00042e72       ?state_case_type@?$output_processor@_WV?$stream_output_adapter@_W@__crt_stdio_output@@V?$format_validation_base@_WV?$stream_output_adapter@_W@__crt_stdio_output@@@2@@__crt_stdio_output@@AAE_NXZ 10043e72 f i libucrt:output.obj
 0001:00043170       ?state_case_type@?$output_processor@_WV?$stream_output_adapter@_W@__crt_stdio_output@@V?$positional_parameter_base@_WV?$stream_output_adapter@_W@__crt_stdio_output@@@2@@__crt_stdio_output@@AAE_NXZ 10044170 f i libucrt:output.obj
 0001:00043481       ?state_case_type@?$output_processor@_WV?$stream_output_adapter@_W@__crt_stdio_output@@V?$standard_base@_WV?$stream_output_adapter@_W@__crt_stdio_output@@@2@@__crt_stdio_output@@AAE_NXZ 10044481 f i libucrt:output.obj
 0001:0004377f       ?state_case_type@?$output_processor@_WV?$string_output_adapter@_W@__crt_stdio_output@@V?$format_validation_base@_WV?$string_output_adapter@_W@__crt_stdio_output@@@2@@__crt_stdio_output@@AAE_NXZ 1004477f f i libucrt:output.obj
 0001:00043a7d       ?state_case_type@?$output_processor@_WV?$string_output_adapter@_W@__crt_stdio_output@@V?$positional_parameter_base@_WV?$string_output_adapter@_W@__crt_stdio_output@@@2@@__crt_stdio_output@@AAE_NXZ 10044a7d f i libucrt:output.obj
 0001:00043d8e       ?state_case_type@?$output_processor@_WV?$string_output_adapter@_W@__crt_stdio_output@@V?$standard_base@_WV?$string_output_adapter@_W@__crt_stdio_output@@@2@@__crt_stdio_output@@AAE_NXZ 10044d8e f i libucrt:output.obj
 0001:0004408c       ?state_case_width@?$output_processor@DV?$stream_output_adapter@D@__crt_stdio_output@@V?$format_validation_base@DV?$stream_output_adapter@D@__crt_stdio_output@@@2@@__crt_stdio_output@@AAE_NXZ 1004508c f i libucrt:output.obj
 0001:000440c1       ?state_case_width@?$output_processor@DV?$stream_output_adapter@D@__crt_stdio_output@@V?$positional_parameter_base@DV?$stream_output_adapter@D@__crt_stdio_output@@@2@@__crt_stdio_output@@AAE_NXZ 100450c1 f i libucrt:output.obj
 0001:00044111       ?state_case_width@?$output_processor@DV?$stream_output_adapter@D@__crt_stdio_output@@V?$standard_base@DV?$stream_output_adapter@D@__crt_stdio_output@@@2@@__crt_stdio_output@@AAE_NXZ 10045111 f i libucrt:output.obj
 0001:00044146       ?state_case_width@?$output_processor@DV?$string_output_adapter@D@__crt_stdio_output@@V?$format_validation_base@DV?$string_output_adapter@D@__crt_stdio_output@@@2@@__crt_stdio_output@@AAE_NXZ 10045146 f i libucrt:output.obj
 0001:0004417b       ?state_case_width@?$output_processor@DV?$string_output_adapter@D@__crt_stdio_output@@V?$positional_parameter_base@DV?$string_output_adapter@D@__crt_stdio_output@@@2@@__crt_stdio_output@@AAE_NXZ 1004517b f i libucrt:output.obj
 0001:000441cb       ?state_case_width@?$output_processor@DV?$string_output_adapter@D@__crt_stdio_output@@V?$standard_base@DV?$string_output_adapter@D@__crt_stdio_output@@@2@@__crt_stdio_output@@AAE_NXZ 100451cb f i libucrt:output.obj
 0001:00044200       ?state_case_width@?$output_processor@_WV?$stream_output_adapter@_W@__crt_stdio_output@@V?$format_validation_base@_WV?$stream_output_adapter@_W@__crt_stdio_output@@@2@@__crt_stdio_output@@AAE_NXZ 10045200 f i libucrt:output.obj
 0001:00044237       ?state_case_width@?$output_processor@_WV?$stream_output_adapter@_W@__crt_stdio_output@@V?$positional_parameter_base@_WV?$stream_output_adapter@_W@__crt_stdio_output@@@2@@__crt_stdio_output@@AAE_NXZ 10045237 f i libucrt:output.obj
 0001:00044288       ?state_case_width@?$output_processor@_WV?$stream_output_adapter@_W@__crt_stdio_output@@V?$standard_base@_WV?$stream_output_adapter@_W@__crt_stdio_output@@@2@@__crt_stdio_output@@AAE_NXZ 10045288 f i libucrt:output.obj
 0001:000442bf       ?state_case_width@?$output_processor@_WV?$string_output_adapter@_W@__crt_stdio_output@@V?$format_validation_base@_WV?$string_output_adapter@_W@__crt_stdio_output@@@2@@__crt_stdio_output@@AAE_NXZ 100452bf f i libucrt:output.obj
 0001:000442f6       ?state_case_width@?$output_processor@_WV?$string_output_adapter@_W@__crt_stdio_output@@V?$positional_parameter_base@_WV?$string_output_adapter@_W@__crt_stdio_output@@@2@@__crt_stdio_output@@AAE_NXZ 100452f6 f i libucrt:output.obj
 0001:00044347       ?state_case_width@?$output_processor@_WV?$string_output_adapter@_W@__crt_stdio_output@@V?$standard_base@_WV?$string_output_adapter@_W@__crt_stdio_output@@@2@@__crt_stdio_output@@AAE_NXZ 10045347 f i libucrt:output.obj
 0001:0004437e       ?state_count@?$format_validation_base@DV?$stream_output_adapter@D@__crt_stdio_output@@@__crt_stdio_output@@KAIXZ 1004537e f i libucrt:output.obj
 0001:00044382       ?state_count@?$format_validation_base@DV?$string_output_adapter@D@__crt_stdio_output@@@__crt_stdio_output@@KAIXZ 10045382 f i libucrt:output.obj
 0001:00044386       ?state_count@?$format_validation_base@_WV?$stream_output_adapter@_W@__crt_stdio_output@@@__crt_stdio_output@@KAIXZ 10045386 f i libucrt:output.obj
 0001:0004438a       ?state_count@?$format_validation_base@_WV?$string_output_adapter@_W@__crt_stdio_output@@@__crt_stdio_output@@KAIXZ 1004538a f i libucrt:output.obj
 0001:0004438e       ?state_count@?$standard_base@DV?$stream_output_adapter@D@__crt_stdio_output@@@__crt_stdio_output@@KAIXZ 1004538e f i libucrt:output.obj
 0001:00044392       ?state_count@?$standard_base@DV?$string_output_adapter@D@__crt_stdio_output@@@__crt_stdio_output@@KAIXZ 10045392 f i libucrt:output.obj
 0001:00044396       ?state_count@?$standard_base@_WV?$stream_output_adapter@_W@__crt_stdio_output@@@__crt_stdio_output@@KAIXZ 10045396 f i libucrt:output.obj
 0001:0004439a       ?state_count@?$standard_base@_WV?$string_output_adapter@_W@__crt_stdio_output@@@__crt_stdio_output@@KAIXZ 1004539a f i libucrt:output.obj
 0001:0004439e       ?state_transition_table@?$format_validation_base@DV?$stream_output_adapter@D@__crt_stdio_output@@@__crt_stdio_output@@KAPBEXZ 1004539e f i libucrt:output.obj
 0001:000443a4       ?state_transition_table@?$format_validation_base@DV?$string_output_adapter@D@__crt_stdio_output@@@__crt_stdio_output@@KAPBEXZ 100453a4 f i libucrt:output.obj
 0001:000443aa       ?state_transition_table@?$format_validation_base@_WV?$stream_output_adapter@_W@__crt_stdio_output@@@__crt_stdio_output@@KAPBEXZ 100453aa f i libucrt:output.obj
 0001:000443b0       ?state_transition_table@?$format_validation_base@_WV?$string_output_adapter@_W@__crt_stdio_output@@@__crt_stdio_output@@KAPBEXZ 100453b0 f i libucrt:output.obj
 0001:000443b6       ?state_transition_table@?$standard_base@DV?$stream_output_adapter@D@__crt_stdio_output@@@__crt_stdio_output@@KAPBEXZ 100453b6 f i libucrt:output.obj
 0001:000443bc       ?state_transition_table@?$standard_base@DV?$string_output_adapter@D@__crt_stdio_output@@@__crt_stdio_output@@KAPBEXZ 100453bc f i libucrt:output.obj
 0001:000443c2       ?state_transition_table@?$standard_base@_WV?$stream_output_adapter@_W@__crt_stdio_output@@@__crt_stdio_output@@KAPBEXZ 100453c2 f i libucrt:output.obj
 0001:000443c8       ?state_transition_table@?$standard_base@_WV?$string_output_adapter@_W@__crt_stdio_output@@@__crt_stdio_output@@KAPBEXZ 100453c8 f i libucrt:output.obj
 0001:000443ce       ?tchar_string@?$common_data@D@__crt_stdio_output@@IAEAAPADD@Z 100453ce f i libucrt:output.obj
 0001:000443d4       ?tchar_string@?$common_data@D@__crt_stdio_output@@IAEAAPADXZ 100453d4 f i libucrt:output.obj
 0001:000443d8       ?tchar_string@?$common_data@_W@__crt_stdio_output@@IAEAAPA_WXZ 100453d8 f i libucrt:output.obj
 0001:000443dc       ?tchar_string@?$common_data@_W@__crt_stdio_output@@IAEAAPA_W_W@Z 100453dc f i libucrt:output.obj
 0001:000443e2       ?to_integer_size@__crt_stdio_output@@YAIW4length_modifier@1@@Z 100453e2 f i libucrt:output.obj
 0001:0004444b       ?type_case_X@?$output_processor@DV?$stream_output_adapter@D@__crt_stdio_output@@V?$format_validation_base@DV?$stream_output_adapter@D@__crt_stdio_output@@@2@@__crt_stdio_output@@AAE_NXZ 1004544b f i libucrt:output.obj
 0001:00044457       ?type_case_X@?$output_processor@DV?$stream_output_adapter@D@__crt_stdio_output@@V?$positional_parameter_base@DV?$stream_output_adapter@D@__crt_stdio_output@@@2@@__crt_stdio_output@@AAE_NXZ 10045457 f i libucrt:output.obj
 0001:00044463       ?type_case_X@?$output_processor@DV?$stream_output_adapter@D@__crt_stdio_output@@V?$standard_base@DV?$stream_output_adapter@D@__crt_stdio_output@@@2@@__crt_stdio_output@@AAE_NXZ 10045463 f i libucrt:output.obj
 0001:0004446f       ?type_case_X@?$output_processor@DV?$string_output_adapter@D@__crt_stdio_output@@V?$format_validation_base@DV?$string_output_adapter@D@__crt_stdio_output@@@2@@__crt_stdio_output@@AAE_NXZ 1004546f f i libucrt:output.obj
 0001:0004447b       ?type_case_X@?$output_processor@DV?$string_output_adapter@D@__crt_stdio_output@@V?$positional_parameter_base@DV?$string_output_adapter@D@__crt_stdio_output@@@2@@__crt_stdio_output@@AAE_NXZ 1004547b f i libucrt:output.obj
 0001:00044487       ?type_case_X@?$output_processor@DV?$string_output_adapter@D@__crt_stdio_output@@V?$standard_base@DV?$string_output_adapter@D@__crt_stdio_output@@@2@@__crt_stdio_output@@AAE_NXZ 10045487 f i libucrt:output.obj
 0001:00044493       ?type_case_X@?$output_processor@_WV?$stream_output_adapter@_W@__crt_stdio_output@@V?$format_validation_base@_WV?$stream_output_adapter@_W@__crt_stdio_output@@@2@@__crt_stdio_output@@AAE_NXZ 10045493 f i libucrt:output.obj
 0001:0004449f       ?type_case_X@?$output_processor@_WV?$stream_output_adapter@_W@__crt_stdio_output@@V?$positional_parameter_base@_WV?$stream_output_adapter@_W@__crt_stdio_output@@@2@@__crt_stdio_output@@AAE_NXZ 1004549f f i libucrt:output.obj
 0001:000444ab       ?type_case_X@?$output_processor@_WV?$stream_output_adapter@_W@__crt_stdio_output@@V?$standard_base@_WV?$stream_output_adapter@_W@__crt_stdio_output@@@2@@__crt_stdio_output@@AAE_NXZ 100454ab f i libucrt:output.obj
 0001:000444b7       ?type_case_X@?$output_processor@_WV?$string_output_adapter@_W@__crt_stdio_output@@V?$format_validation_base@_WV?$string_output_adapter@_W@__crt_stdio_output@@@2@@__crt_stdio_output@@AAE_NXZ 100454b7 f i libucrt:output.obj
 0001:000444c3       ?type_case_X@?$output_processor@_WV?$string_output_adapter@_W@__crt_stdio_output@@V?$positional_parameter_base@_WV?$string_output_adapter@_W@__crt_stdio_output@@@2@@__crt_stdio_output@@AAE_NXZ 100454c3 f i libucrt:output.obj
 0001:000444cf       ?type_case_X@?$output_processor@_WV?$string_output_adapter@_W@__crt_stdio_output@@V?$standard_base@_WV?$string_output_adapter@_W@__crt_stdio_output@@@2@@__crt_stdio_output@@AAE_NXZ 100454cf f i libucrt:output.obj
 0001:000444db       ?type_case_Z@?$output_processor@DV?$stream_output_adapter@D@__crt_stdio_output@@V?$format_validation_base@DV?$stream_output_adapter@D@__crt_stdio_output@@@2@@__crt_stdio_output@@AAE_NXZ 100454db f i libucrt:output.obj
 0001:0004454b       ?type_case_Z@?$output_processor@DV?$stream_output_adapter@D@__crt_stdio_output@@V?$positional_parameter_base@DV?$stream_output_adapter@D@__crt_stdio_output@@@2@@__crt_stdio_output@@AAE_NXZ 1004554b f i libucrt:output.obj
 0001:00044659       ?type_case_Z@?$output_processor@DV?$stream_output_adapter@D@__crt_stdio_output@@V?$standard_base@DV?$stream_output_adapter@D@__crt_stdio_output@@@2@@__crt_stdio_output@@AAE_NXZ 10045659 f i libucrt:output.obj
 0001:000446c9       ?type_case_Z@?$output_processor@DV?$string_output_adapter@D@__crt_stdio_output@@V?$format_validation_base@DV?$string_output_adapter@D@__crt_stdio_output@@@2@@__crt_stdio_output@@AAE_NXZ 100456c9 f i libucrt:output.obj
 0001:00044739       ?type_case_Z@?$output_processor@DV?$string_output_adapter@D@__crt_stdio_output@@V?$positional_parameter_base@DV?$string_output_adapter@D@__crt_stdio_output@@@2@@__crt_stdio_output@@AAE_NXZ 10045739 f i libucrt:output.obj
 0001:00044847       ?type_case_Z@?$output_processor@DV?$string_output_adapter@D@__crt_stdio_output@@V?$standard_base@DV?$string_output_adapter@D@__crt_stdio_output@@@2@@__crt_stdio_output@@AAE_NXZ 10045847 f i libucrt:output.obj
 0001:000448b7       ?type_case_Z@?$output_processor@_WV?$stream_output_adapter@_W@__crt_stdio_output@@V?$format_validation_base@_WV?$stream_output_adapter@_W@__crt_stdio_output@@@2@@__crt_stdio_output@@AAE_NXZ 100458b7 f i libucrt:output.obj
 0001:00044927       ?type_case_Z@?$output_processor@_WV?$stream_output_adapter@_W@__crt_stdio_output@@V?$positional_parameter_base@_WV?$stream_output_adapter@_W@__crt_stdio_output@@@2@@__crt_stdio_output@@AAE_NXZ 10045927 f i libucrt:output.obj
 0001:00044a35       ?type_case_Z@?$output_processor@_WV?$stream_output_adapter@_W@__crt_stdio_output@@V?$standard_base@_WV?$stream_output_adapter@_W@__crt_stdio_output@@@2@@__crt_stdio_output@@AAE_NXZ 10045a35 f i libucrt:output.obj
 0001:00044aa5       ?type_case_Z@?$output_processor@_WV?$string_output_adapter@_W@__crt_stdio_output@@V?$format_validation_base@_WV?$string_output_adapter@_W@__crt_stdio_output@@@2@@__crt_stdio_output@@AAE_NXZ 10045aa5 f i libucrt:output.obj
 0001:00044b15       ?type_case_Z@?$output_processor@_WV?$string_output_adapter@_W@__crt_stdio_output@@V?$positional_parameter_base@_WV?$string_output_adapter@_W@__crt_stdio_output@@@2@@__crt_stdio_output@@AAE_NXZ 10045b15 f i libucrt:output.obj
 0001:00044c23       ?type_case_Z@?$output_processor@_WV?$string_output_adapter@_W@__crt_stdio_output@@V?$standard_base@_WV?$string_output_adapter@_W@__crt_stdio_output@@@2@@__crt_stdio_output@@AAE_NXZ 10045c23 f i libucrt:output.obj
 0001:00044c93       ?type_case_a@?$output_processor@DV?$stream_output_adapter@D@__crt_stdio_output@@V?$format_validation_base@DV?$stream_output_adapter@D@__crt_stdio_output@@@2@@__crt_stdio_output@@AAE_NXZ 10045c93 f i libucrt:output.obj
 0001:00044e35       ?type_case_a@?$output_processor@DV?$stream_output_adapter@D@__crt_stdio_output@@V?$positional_parameter_base@DV?$stream_output_adapter@D@__crt_stdio_output@@@2@@__crt_stdio_output@@AAE_NXZ 10045e35 f i libucrt:output.obj
 0001:0004500e       ?type_case_a@?$output_processor@DV?$stream_output_adapter@D@__crt_stdio_output@@V?$standard_base@DV?$stream_output_adapter@D@__crt_stdio_output@@@2@@__crt_stdio_output@@AAE_NXZ 1004600e f i libucrt:output.obj
 0001:000451b0       ?type_case_a@?$output_processor@DV?$string_output_adapter@D@__crt_stdio_output@@V?$format_validation_base@DV?$string_output_adapter@D@__crt_stdio_output@@@2@@__crt_stdio_output@@AAE_NXZ 100461b0 f i libucrt:output.obj
 0001:00045352       ?type_case_a@?$output_processor@DV?$string_output_adapter@D@__crt_stdio_output@@V?$positional_parameter_base@DV?$string_output_adapter@D@__crt_stdio_output@@@2@@__crt_stdio_output@@AAE_NXZ 10046352 f i libucrt:output.obj
 0001:0004552b       ?type_case_a@?$output_processor@DV?$string_output_adapter@D@__crt_stdio_output@@V?$standard_base@DV?$string_output_adapter@D@__crt_stdio_output@@@2@@__crt_stdio_output@@AAE_NXZ 1004652b f i libucrt:output.obj
 0001:000456cd       ?type_case_a@?$output_processor@_WV?$stream_output_adapter@_W@__crt_stdio_output@@V?$format_validation_base@_WV?$stream_output_adapter@_W@__crt_stdio_output@@@2@@__crt_stdio_output@@AAE_NXZ 100466cd f i libucrt:output.obj
 0001:0004588b       ?type_case_a@?$output_processor@_WV?$stream_output_adapter@_W@__crt_stdio_output@@V?$positional_parameter_base@_WV?$stream_output_adapter@_W@__crt_stdio_output@@@2@@__crt_stdio_output@@AAE_NXZ 1004688b f i libucrt:output.obj
 0001:00045a80       ?type_case_a@?$output_processor@_WV?$stream_output_adapter@_W@__crt_stdio_output@@V?$standard_base@_WV?$stream_output_adapter@_W@__crt_stdio_output@@@2@@__crt_stdio_output@@AAE_NXZ 10046a80 f i libucrt:output.obj
 0001:00045c3e       ?type_case_a@?$output_processor@_WV?$string_output_adapter@_W@__crt_stdio_output@@V?$format_validation_base@_WV?$string_output_adapter@_W@__crt_stdio_output@@@2@@__crt_stdio_output@@AAE_NXZ 10046c3e f i libucrt:output.obj
 0001:00045dfc       ?type_case_a@?$output_processor@_WV?$string_output_adapter@_W@__crt_stdio_output@@V?$positional_parameter_base@_WV?$string_output_adapter@_W@__crt_stdio_output@@@2@@__crt_stdio_output@@AAE_NXZ 10046dfc f i libucrt:output.obj
 0001:00045ff1       ?type_case_a@?$output_processor@_WV?$string_output_adapter@_W@__crt_stdio_output@@V?$standard_base@_WV?$string_output_adapter@_W@__crt_stdio_output@@@2@@__crt_stdio_output@@AAE_NXZ 10046ff1 f i libucrt:output.obj
 0001:000461af       ?type_case_c@?$output_processor@DV?$stream_output_adapter@D@__crt_stdio_output@@V?$format_validation_base@DV?$stream_output_adapter@D@__crt_stdio_output@@@2@@__crt_stdio_output@@AAE_NXZ 100471af f i libucrt:output.obj
 0001:000461b9       ?type_case_c@?$output_processor@DV?$stream_output_adapter@D@__crt_stdio_output@@V?$positional_parameter_base@DV?$stream_output_adapter@D@__crt_stdio_output@@@2@@__crt_stdio_output@@AAE_NXZ 100471b9 f i libucrt:output.obj
 0001:000461c3       ?type_case_c@?$output_processor@DV?$stream_output_adapter@D@__crt_stdio_output@@V?$standard_base@DV?$stream_output_adapter@D@__crt_stdio_output@@@2@@__crt_stdio_output@@AAE_NXZ 100471c3 f i libucrt:output.obj
 0001:000461cd       ?type_case_c@?$output_processor@DV?$string_output_adapter@D@__crt_stdio_output@@V?$format_validation_base@DV?$string_output_adapter@D@__crt_stdio_output@@@2@@__crt_stdio_output@@AAE_NXZ 100471cd f i libucrt:output.obj
 0001:000461d7       ?type_case_c@?$output_processor@DV?$string_output_adapter@D@__crt_stdio_output@@V?$positional_parameter_base@DV?$string_output_adapter@D@__crt_stdio_output@@@2@@__crt_stdio_output@@AAE_NXZ 100471d7 f i libucrt:output.obj
 0001:000461e1       ?type_case_c@?$output_processor@DV?$string_output_adapter@D@__crt_stdio_output@@V?$standard_base@DV?$string_output_adapter@D@__crt_stdio_output@@@2@@__crt_stdio_output@@AAE_NXZ 100471e1 f i libucrt:output.obj
 0001:000461eb       ?type_case_c@?$output_processor@_WV?$stream_output_adapter@_W@__crt_stdio_output@@V?$format_validation_base@_WV?$stream_output_adapter@_W@__crt_stdio_output@@@2@@__crt_stdio_output@@AAE_NXZ 100471eb f i libucrt:output.obj
 0001:000461f5       ?type_case_c@?$output_processor@_WV?$stream_output_adapter@_W@__crt_stdio_output@@V?$positional_parameter_base@_WV?$stream_output_adapter@_W@__crt_stdio_output@@@2@@__crt_stdio_output@@AAE_NXZ 100471f5 f i libucrt:output.obj
 0001:000461ff       ?type_case_c@?$output_processor@_WV?$stream_output_adapter@_W@__crt_stdio_output@@V?$standard_base@_WV?$stream_output_adapter@_W@__crt_stdio_output@@@2@@__crt_stdio_output@@AAE_NXZ 100471ff f i libucrt:output.obj
 0001:00046209       ?type_case_c@?$output_processor@_WV?$string_output_adapter@_W@__crt_stdio_output@@V?$format_validation_base@_WV?$string_output_adapter@_W@__crt_stdio_output@@@2@@__crt_stdio_output@@AAE_NXZ 10047209 f i libucrt:output.obj
 0001:00046213       ?type_case_c@?$output_processor@_WV?$string_output_adapter@_W@__crt_stdio_output@@V?$positional_parameter_base@_WV?$string_output_adapter@_W@__crt_stdio_output@@@2@@__crt_stdio_output@@AAE_NXZ 10047213 f i libucrt:output.obj
 0001:0004621d       ?type_case_c@?$output_processor@_WV?$string_output_adapter@_W@__crt_stdio_output@@V?$standard_base@_WV?$string_output_adapter@_W@__crt_stdio_output@@@2@@__crt_stdio_output@@AAE_NXZ 1004721d f i libucrt:output.obj
 0001:00046227       ?type_case_c_tchar@?$output_processor@DV?$stream_output_adapter@D@__crt_stdio_output@@V?$format_validation_base@DV?$stream_output_adapter@D@__crt_stdio_output@@@2@@__crt_stdio_output@@AAE_ND@Z 10047227 f i libucrt:output.obj
 0001:000462db       ?type_case_c_tchar@?$output_processor@DV?$stream_output_adapter@D@__crt_stdio_output@@V?$positional_parameter_base@DV?$stream_output_adapter@D@__crt_stdio_output@@@2@@__crt_stdio_output@@AAE_ND@Z 100472db f i libucrt:output.obj
 0001:000463c8       ?type_case_c_tchar@?$output_processor@DV?$stream_output_adapter@D@__crt_stdio_output@@V?$standard_base@DV?$stream_output_adapter@D@__crt_stdio_output@@@2@@__crt_stdio_output@@AAE_ND@Z 100473c8 f i libucrt:output.obj
 0001:0004647c       ?type_case_c_tchar@?$output_processor@DV?$string_output_adapter@D@__crt_stdio_output@@V?$format_validation_base@DV?$string_output_adapter@D@__crt_stdio_output@@@2@@__crt_stdio_output@@AAE_ND@Z 1004747c f i libucrt:output.obj
 0001:00046530       ?type_case_c_tchar@?$output_processor@DV?$string_output_adapter@D@__crt_stdio_output@@V?$positional_parameter_base@DV?$string_output_adapter@D@__crt_stdio_output@@@2@@__crt_stdio_output@@AAE_ND@Z 10047530 f i libucrt:output.obj
 0001:0004661d       ?type_case_c_tchar@?$output_processor@DV?$string_output_adapter@D@__crt_stdio_output@@V?$standard_base@DV?$string_output_adapter@D@__crt_stdio_output@@@2@@__crt_stdio_output@@AAE_ND@Z 1004761d f i libucrt:output.obj
 0001:000466d1       ?type_case_c_tchar@?$output_processor@_WV?$stream_output_adapter@_W@__crt_stdio_output@@V?$format_validation_base@_WV?$stream_output_adapter@_W@__crt_stdio_output@@@2@@__crt_stdio_output@@AAE_N_W@Z 100476d1 f i libucrt:output.obj
 0001:0004678c       ?type_case_c_tchar@?$output_processor@_WV?$stream_output_adapter@_W@__crt_stdio_output@@V?$positional_parameter_base@_WV?$stream_output_adapter@_W@__crt_stdio_output@@@2@@__crt_stdio_output@@AAE_N_W@Z 1004778c f i libucrt:output.obj
 0001:00046864       ?type_case_c_tchar@?$output_processor@_WV?$stream_output_adapter@_W@__crt_stdio_output@@V?$standard_base@_WV?$stream_output_adapter@_W@__crt_stdio_output@@@2@@__crt_stdio_output@@AAE_N_W@Z 10047864 f i libucrt:output.obj
 0001:0004691f       ?type_case_c_tchar@?$output_processor@_WV?$string_output_adapter@_W@__crt_stdio_output@@V?$format_validation_base@_WV?$string_output_adapter@_W@__crt_stdio_output@@@2@@__crt_stdio_output@@AAE_N_W@Z 1004791f f i libucrt:output.obj
 0001:000469da       ?type_case_c_tchar@?$output_processor@_WV?$string_output_adapter@_W@__crt_stdio_output@@V?$positional_parameter_base@_WV?$string_output_adapter@_W@__crt_stdio_output@@@2@@__crt_stdio_output@@AAE_N_W@Z 100479da f i libucrt:output.obj
 0001:00046ab2       ?type_case_c_tchar@?$output_processor@_WV?$string_output_adapter@_W@__crt_stdio_output@@V?$standard_base@_WV?$string_output_adapter@_W@__crt_stdio_output@@@2@@__crt_stdio_output@@AAE_N_W@Z 10047ab2 f i libucrt:output.obj
 0001:00046b6d       ?type_case_d@?$output_processor@DV?$stream_output_adapter@D@__crt_stdio_output@@V?$format_validation_base@DV?$stream_output_adapter@D@__crt_stdio_output@@@2@@__crt_stdio_output@@AAE_NXZ 10047b6d f i libucrt:output.obj
 0001:00046b7e       ?type_case_d@?$output_processor@DV?$stream_output_adapter@D@__crt_stdio_output@@V?$positional_parameter_base@DV?$stream_output_adapter@D@__crt_stdio_output@@@2@@__crt_stdio_output@@AAE_NXZ 10047b7e f i libucrt:output.obj
 0001:00046b8f       ?type_case_d@?$output_processor@DV?$stream_output_adapter@D@__crt_stdio_output@@V?$standard_base@DV?$stream_output_adapter@D@__crt_stdio_output@@@2@@__crt_stdio_output@@AAE_NXZ 10047b8f f i libucrt:output.obj
 0001:00046ba0       ?type_case_d@?$output_processor@DV?$string_output_adapter@D@__crt_stdio_output@@V?$format_validation_base@DV?$string_output_adapter@D@__crt_stdio_output@@@2@@__crt_stdio_output@@AAE_NXZ 10047ba0 f i libucrt:output.obj
 0001:00046bb1       ?type_case_d@?$output_processor@DV?$string_output_adapter@D@__crt_stdio_output@@V?$positional_parameter_base@DV?$string_output_adapter@D@__crt_stdio_output@@@2@@__crt_stdio_output@@AAE_NXZ 10047bb1 f i libucrt:output.obj
 0001:00046bc2       ?type_case_d@?$output_processor@DV?$string_output_adapter@D@__crt_stdio_output@@V?$standard_base@DV?$string_output_adapter@D@__crt_stdio_output@@@2@@__crt_stdio_output@@AAE_NXZ 10047bc2 f i libucrt:output.obj
 0001:00046bd3       ?type_case_d@?$output_processor@_WV?$stream_output_adapter@_W@__crt_stdio_output@@V?$format_validation_base@_WV?$stream_output_adapter@_W@__crt_stdio_output@@@2@@__crt_stdio_output@@AAE_NXZ 10047bd3 f i libucrt:output.obj
 0001:00046be4       ?type_case_d@?$output_processor@_WV?$stream_output_adapter@_W@__crt_stdio_output@@V?$positional_parameter_base@_WV?$stream_output_adapter@_W@__crt_stdio_output@@@2@@__crt_stdio_output@@AAE_NXZ 10047be4 f i libucrt:output.obj
 0001:00046bf5       ?type_case_d@?$output_processor@_WV?$stream_output_adapter@_W@__crt_stdio_output@@V?$standard_base@_WV?$stream_output_adapter@_W@__crt_stdio_output@@@2@@__crt_stdio_output@@AAE_NXZ 10047bf5 f i libucrt:output.obj
 0001:00046c06       ?type_case_d@?$output_processor@_WV?$string_output_adapter@_W@__crt_stdio_output@@V?$format_validation_base@_WV?$string_output_adapter@_W@__crt_stdio_output@@@2@@__crt_stdio_output@@AAE_NXZ 10047c06 f i libucrt:output.obj
 0001:00046c17       ?type_case_d@?$output_processor@_WV?$string_output_adapter@_W@__crt_stdio_output@@V?$positional_parameter_base@_WV?$string_output_adapter@_W@__crt_stdio_output@@@2@@__crt_stdio_output@@AAE_NXZ 10047c17 f i libucrt:output.obj
 0001:00046c28       ?type_case_d@?$output_processor@_WV?$string_output_adapter@_W@__crt_stdio_output@@V?$standard_base@_WV?$string_output_adapter@_W@__crt_stdio_output@@@2@@__crt_stdio_output@@AAE_NXZ 10047c28 f i libucrt:output.obj
 0001:00046c39       ?type_case_integer@?$output_processor@DV?$stream_output_adapter@D@__crt_stdio_output@@V?$format_validation_base@DV?$stream_output_adapter@D@__crt_stdio_output@@@2@@__crt_stdio_output@@AAE_NI_N@Z 10047c39 f i libucrt:output.obj
 0001:00046dde       ?type_case_integer@?$output_processor@DV?$stream_output_adapter@D@__crt_stdio_output@@V?$positional_parameter_base@DV?$stream_output_adapter@D@__crt_stdio_output@@@2@@__crt_stdio_output@@AAE_NI_N@Z 10047dde f i libucrt:output.obj
 0001:00046fbf       ?type_case_integer@?$output_processor@DV?$stream_output_adapter@D@__crt_stdio_output@@V?$standard_base@DV?$stream_output_adapter@D@__crt_stdio_output@@@2@@__crt_stdio_output@@AAE_NI_N@Z 10047fbf f i libucrt:output.obj
 0001:00047164       ?type_case_integer@?$output_processor@DV?$string_output_adapter@D@__crt_stdio_output@@V?$format_validation_base@DV?$string_output_adapter@D@__crt_stdio_output@@@2@@__crt_stdio_output@@AAE_NI_N@Z 10048164 f i libucrt:output.obj
 0001:00047309       ?type_case_integer@?$output_processor@DV?$string_output_adapter@D@__crt_stdio_output@@V?$positional_parameter_base@DV?$string_output_adapter@D@__crt_stdio_output@@@2@@__crt_stdio_output@@AAE_NI_N@Z 10048309 f i libucrt:output.obj
 0001:000474ea       ?type_case_integer@?$output_processor@DV?$string_output_adapter@D@__crt_stdio_output@@V?$standard_base@DV?$string_output_adapter@D@__crt_stdio_output@@@2@@__crt_stdio_output@@AAE_NI_N@Z 100484ea f i libucrt:output.obj
 0001:0004768f       ?type_case_integer@?$output_processor@_WV?$stream_output_adapter@_W@__crt_stdio_output@@V?$format_validation_base@_WV?$stream_output_adapter@_W@__crt_stdio_output@@@2@@__crt_stdio_output@@AAE_NI_N@Z 1004868f f i libucrt:output.obj
 0001:00047839       ?type_case_integer@?$output_processor@_WV?$stream_output_adapter@_W@__crt_stdio_output@@V?$positional_parameter_base@_WV?$stream_output_adapter@_W@__crt_stdio_output@@@2@@__crt_stdio_output@@AAE_NI_N@Z 10048839 f i libucrt:output.obj
 0001:00047a1f       ?type_case_integer@?$output_processor@_WV?$stream_output_adapter@_W@__crt_stdio_output@@V?$standard_base@_WV?$stream_output_adapter@_W@__crt_stdio_output@@@2@@__crt_stdio_output@@AAE_NI_N@Z 10048a1f f i libucrt:output.obj
 0001:00047bc9       ?type_case_integer@?$output_processor@_WV?$string_output_adapter@_W@__crt_stdio_output@@V?$format_validation_base@_WV?$string_output_adapter@_W@__crt_stdio_output@@@2@@__crt_stdio_output@@AAE_NI_N@Z 10048bc9 f i libucrt:output.obj
 0001:00047d73       ?type_case_integer@?$output_processor@_WV?$string_output_adapter@_W@__crt_stdio_output@@V?$positional_parameter_base@_WV?$string_output_adapter@_W@__crt_stdio_output@@@2@@__crt_stdio_output@@AAE_NI_N@Z 10048d73 f i libucrt:output.obj
 0001:00047f59       ?type_case_integer@?$output_processor@_WV?$string_output_adapter@_W@__crt_stdio_output@@V?$standard_base@_WV?$string_output_adapter@_W@__crt_stdio_output@@@2@@__crt_stdio_output@@AAE_NI_N@Z 10048f59 f i libucrt:output.obj
 0001:00048103       ?type_case_n@?$output_processor@DV?$stream_output_adapter@D@__crt_stdio_output@@V?$format_validation_base@DV?$stream_output_adapter@D@__crt_stdio_output@@@2@@__crt_stdio_output@@AAE_NXZ 10049103 f i libucrt:output.obj
 0001:00048194       ?type_case_n@?$output_processor@DV?$stream_output_adapter@D@__crt_stdio_output@@V?$positional_parameter_base@DV?$stream_output_adapter@D@__crt_stdio_output@@@2@@__crt_stdio_output@@AAE_NXZ 10049194 f i libucrt:output.obj
 0001:00048250       ?type_case_n@?$output_processor@DV?$stream_output_adapter@D@__crt_stdio_output@@V?$standard_base@DV?$stream_output_adapter@D@__crt_stdio_output@@@2@@__crt_stdio_output@@AAE_NXZ 10049250 f i libucrt:output.obj
 0001:000482e1       ?type_case_n@?$output_processor@DV?$string_output_adapter@D@__crt_stdio_output@@V?$format_validation_base@DV?$string_output_adapter@D@__crt_stdio_output@@@2@@__crt_stdio_output@@AAE_NXZ 100492e1 f i libucrt:output.obj
 0001:00048372       ?type_case_n@?$output_processor@DV?$string_output_adapter@D@__crt_stdio_output@@V?$positional_parameter_base@DV?$string_output_adapter@D@__crt_stdio_output@@@2@@__crt_stdio_output@@AAE_NXZ 10049372 f i libucrt:output.obj
 0001:0004842e       ?type_case_n@?$output_processor@DV?$string_output_adapter@D@__crt_stdio_output@@V?$standard_base@DV?$string_output_adapter@D@__crt_stdio_output@@@2@@__crt_stdio_output@@AAE_NXZ 1004942e f i libucrt:output.obj
 0001:000484bf       ?type_case_n@?$output_processor@_WV?$stream_output_adapter@_W@__crt_stdio_output@@V?$format_validation_base@_WV?$stream_output_adapter@_W@__crt_stdio_output@@@2@@__crt_stdio_output@@AAE_NXZ 100494bf f i libucrt:output.obj
 0001:00048550       ?type_case_n@?$output_processor@_WV?$stream_output_adapter@_W@__crt_stdio_output@@V?$positional_parameter_base@_WV?$stream_output_adapter@_W@__crt_stdio_output@@@2@@__crt_stdio_output@@AAE_NXZ 10049550 f i libucrt:output.obj
 0001:0004860c       ?type_case_n@?$output_processor@_WV?$stream_output_adapter@_W@__crt_stdio_output@@V?$standard_base@_WV?$stream_output_adapter@_W@__crt_stdio_output@@@2@@__crt_stdio_output@@AAE_NXZ 1004960c f i libucrt:output.obj
 0001:0004869d       ?type_case_n@?$output_processor@_WV?$string_output_adapter@_W@__crt_stdio_output@@V?$format_validation_base@_WV?$string_output_adapter@_W@__crt_stdio_output@@@2@@__crt_stdio_output@@AAE_NXZ 1004969d f i libucrt:output.obj
 0001:0004872e       ?type_case_n@?$output_processor@_WV?$string_output_adapter@_W@__crt_stdio_output@@V?$positional_parameter_base@_WV?$string_output_adapter@_W@__crt_stdio_output@@@2@@__crt_stdio_output@@AAE_NXZ 1004972e f i libucrt:output.obj
 0001:000487ea       ?type_case_n@?$output_processor@_WV?$string_output_adapter@_W@__crt_stdio_output@@V?$standard_base@_WV?$string_output_adapter@_W@__crt_stdio_output@@@2@@__crt_stdio_output@@AAE_NXZ 100497ea f i libucrt:output.obj
 0001:0004887b       ?type_case_o@?$output_processor@DV?$stream_output_adapter@D@__crt_stdio_output@@V?$format_validation_base@DV?$stream_output_adapter@D@__crt_stdio_output@@@2@@__crt_stdio_output@@AAE_NXZ 1004987b f i libucrt:output.obj
 0001:000488a1       ?type_case_o@?$output_processor@DV?$stream_output_adapter@D@__crt_stdio_output@@V?$positional_parameter_base@DV?$stream_output_adapter@D@__crt_stdio_output@@@2@@__crt_stdio_output@@AAE_NXZ 100498a1 f i libucrt:output.obj
 0001:000488c7       ?type_case_o@?$output_processor@DV?$stream_output_adapter@D@__crt_stdio_output@@V?$standard_base@DV?$stream_output_adapter@D@__crt_stdio_output@@@2@@__crt_stdio_output@@AAE_NXZ 100498c7 f i libucrt:output.obj
 0001:000488ed       ?type_case_o@?$output_processor@DV?$string_output_adapter@D@__crt_stdio_output@@V?$format_validation_base@DV?$string_output_adapter@D@__crt_stdio_output@@@2@@__crt_stdio_output@@AAE_NXZ 100498ed f i libucrt:output.obj
 0001:00048913       ?type_case_o@?$output_processor@DV?$string_output_adapter@D@__crt_stdio_output@@V?$positional_parameter_base@DV?$string_output_adapter@D@__crt_stdio_output@@@2@@__crt_stdio_output@@AAE_NXZ 10049913 f i libucrt:output.obj
 0001:00048939       ?type_case_o@?$output_processor@DV?$string_output_adapter@D@__crt_stdio_output@@V?$standard_base@DV?$string_output_adapter@D@__crt_stdio_output@@@2@@__crt_stdio_output@@AAE_NXZ 10049939 f i libucrt:output.obj
 0001:0004895f       ?type_case_o@?$output_processor@_WV?$stream_output_adapter@_W@__crt_stdio_output@@V?$format_validation_base@_WV?$stream_output_adapter@_W@__crt_stdio_output@@@2@@__crt_stdio_output@@AAE_NXZ 1004995f f i libucrt:output.obj
 0001:00048985       ?type_case_o@?$output_processor@_WV?$stream_output_adapter@_W@__crt_stdio_output@@V?$positional_parameter_base@_WV?$stream_output_adapter@_W@__crt_stdio_output@@@2@@__crt_stdio_output@@AAE_NXZ 10049985 f i libucrt:output.obj
 0001:000489ab       ?type_case_o@?$output_processor@_WV?$stream_output_adapter@_W@__crt_stdio_output@@V?$standard_base@_WV?$stream_output_adapter@_W@__crt_stdio_output@@@2@@__crt_stdio_output@@AAE_NXZ 100499ab f i libucrt:output.obj
 0001:000489d1       ?type_case_o@?$output_processor@_WV?$string_output_adapter@_W@__crt_stdio_output@@V?$format_validation_base@_WV?$string_output_adapter@_W@__crt_stdio_output@@@2@@__crt_stdio_output@@AAE_NXZ 100499d1 f i libucrt:output.obj
 0001:000489f7       ?type_case_o@?$output_processor@_WV?$string_output_adapter@_W@__crt_stdio_output@@V?$positional_parameter_base@_WV?$string_output_adapter@_W@__crt_stdio_output@@@2@@__crt_stdio_output@@AAE_NXZ 100499f7 f i libucrt:output.obj
 0001:00048a1d       ?type_case_o@?$output_processor@_WV?$string_output_adapter@_W@__crt_stdio_output@@V?$standard_base@_WV?$string_output_adapter@_W@__crt_stdio_output@@@2@@__crt_stdio_output@@AAE_NXZ 10049a1d f i libucrt:output.obj
 0001:00048a43       ?type_case_p@?$output_processor@DV?$stream_output_adapter@D@__crt_stdio_output@@V?$format_validation_base@DV?$stream_output_adapter@D@__crt_stdio_output@@@2@@__crt_stdio_output@@AAE_NXZ 10049a43 f i libucrt:output.obj
 0001:00048a61       ?type_case_p@?$output_processor@DV?$stream_output_adapter@D@__crt_stdio_output@@V?$positional_parameter_base@DV?$stream_output_adapter@D@__crt_stdio_output@@@2@@__crt_stdio_output@@AAE_NXZ 10049a61 f i libucrt:output.obj
 0001:00048a7f       ?type_case_p@?$output_processor@DV?$stream_output_adapter@D@__crt_stdio_output@@V?$standard_base@DV?$stream_output_adapter@D@__crt_stdio_output@@@2@@__crt_stdio_output@@AAE_NXZ 10049a7f f i libucrt:output.obj
 0001:00048a9d       ?type_case_p@?$output_processor@DV?$string_output_adapter@D@__crt_stdio_output@@V?$format_validation_base@DV?$string_output_adapter@D@__crt_stdio_output@@@2@@__crt_stdio_output@@AAE_NXZ 10049a9d f i libucrt:output.obj
 0001:00048abb       ?type_case_p@?$output_processor@DV?$string_output_adapter@D@__crt_stdio_output@@V?$positional_parameter_base@DV?$string_output_adapter@D@__crt_stdio_output@@@2@@__crt_stdio_output@@AAE_NXZ 10049abb f i libucrt:output.obj
 0001:00048ad9       ?type_case_p@?$output_processor@DV?$string_output_adapter@D@__crt_stdio_output@@V?$standard_base@DV?$string_output_adapter@D@__crt_stdio_output@@@2@@__crt_stdio_output@@AAE_NXZ 10049ad9 f i libucrt:output.obj
 0001:00048af7       ?type_case_p@?$output_processor@_WV?$stream_output_adapter@_W@__crt_stdio_output@@V?$format_validation_base@_WV?$stream_output_adapter@_W@__crt_stdio_output@@@2@@__crt_stdio_output@@AAE_NXZ 10049af7 f i libucrt:output.obj
 0001:00048b15       ?type_case_p@?$output_processor@_WV?$stream_output_adapter@_W@__crt_stdio_output@@V?$positional_parameter_base@_WV?$stream_output_adapter@_W@__crt_stdio_output@@@2@@__crt_stdio_output@@AAE_NXZ 10049b15 f i libucrt:output.obj
 0001:00048b33       ?type_case_p@?$output_processor@_WV?$stream_output_adapter@_W@__crt_stdio_output@@V?$standard_base@_WV?$stream_output_adapter@_W@__crt_stdio_output@@@2@@__crt_stdio_output@@AAE_NXZ 10049b33 f i libucrt:output.obj
 0001:00048b51       ?type_case_p@?$output_processor@_WV?$string_output_adapter@_W@__crt_stdio_output@@V?$format_validation_base@_WV?$string_output_adapter@_W@__crt_stdio_output@@@2@@__crt_stdio_output@@AAE_NXZ 10049b51 f i libucrt:output.obj
 0001:00048b6f       ?type_case_p@?$output_processor@_WV?$string_output_adapter@_W@__crt_stdio_output@@V?$positional_parameter_base@_WV?$string_output_adapter@_W@__crt_stdio_output@@@2@@__crt_stdio_output@@AAE_NXZ 10049b6f f i libucrt:output.obj
 0001:00048b8d       ?type_case_p@?$output_processor@_WV?$string_output_adapter@_W@__crt_stdio_output@@V?$standard_base@_WV?$string_output_adapter@_W@__crt_stdio_output@@@2@@__crt_stdio_output@@AAE_NXZ 10049b8d f i libucrt:output.obj
 0001:00048bab       ?type_case_s@?$output_processor@DV?$stream_output_adapter@D@__crt_stdio_output@@V?$format_validation_base@DV?$stream_output_adapter@D@__crt_stdio_output@@@2@@__crt_stdio_output@@AAE_NXZ 10049bab f i libucrt:output.obj
 0001:00048c38       ?type_case_s@?$output_processor@DV?$stream_output_adapter@D@__crt_stdio_output@@V?$positional_parameter_base@DV?$stream_output_adapter@D@__crt_stdio_output@@@2@@__crt_stdio_output@@AAE_NXZ 10049c38 f i libucrt:output.obj
 0001:00048cd5       ?type_case_s@?$output_processor@DV?$stream_output_adapter@D@__crt_stdio_output@@V?$standard_base@DV?$stream_output_adapter@D@__crt_stdio_output@@@2@@__crt_stdio_output@@AAE_NXZ 10049cd5 f i libucrt:output.obj
 0001:00048d62       ?type_case_s@?$output_processor@DV?$string_output_adapter@D@__crt_stdio_output@@V?$format_validation_base@DV?$string_output_adapter@D@__crt_stdio_output@@@2@@__crt_stdio_output@@AAE_NXZ 10049d62 f i libucrt:output.obj
 0001:00048def       ?type_case_s@?$output_processor@DV?$string_output_adapter@D@__crt_stdio_output@@V?$positional_parameter_base@DV?$string_output_adapter@D@__crt_stdio_output@@@2@@__crt_stdio_output@@AAE_NXZ 10049def f i libucrt:output.obj
 0001:00048e8c       ?type_case_s@?$output_processor@DV?$string_output_adapter@D@__crt_stdio_output@@V?$standard_base@DV?$string_output_adapter@D@__crt_stdio_output@@@2@@__crt_stdio_output@@AAE_NXZ 10049e8c f i libucrt:output.obj
 0001:00048f19       ?type_case_s@?$output_processor@_WV?$stream_output_adapter@_W@__crt_stdio_output@@V?$format_validation_base@_WV?$stream_output_adapter@_W@__crt_stdio_output@@@2@@__crt_stdio_output@@AAE_NXZ 10049f19 f i libucrt:output.obj
 0001:00048fa8       ?type_case_s@?$output_processor@_WV?$stream_output_adapter@_W@__crt_stdio_output@@V?$positional_parameter_base@_WV?$stream_output_adapter@_W@__crt_stdio_output@@@2@@__crt_stdio_output@@AAE_NXZ 10049fa8 f i libucrt:output.obj
 0001:00049048       ?type_case_s@?$output_processor@_WV?$stream_output_adapter@_W@__crt_stdio_output@@V?$standard_base@_WV?$stream_output_adapter@_W@__crt_stdio_output@@@2@@__crt_stdio_output@@AAE_NXZ 1004a048 f i libucrt:output.obj
 0001:000490d7       ?type_case_s@?$output_processor@_WV?$string_output_adapter@_W@__crt_stdio_output@@V?$format_validation_base@_WV?$string_output_adapter@_W@__crt_stdio_output@@@2@@__crt_stdio_output@@AAE_NXZ 1004a0d7 f i libucrt:output.obj
 0001:00049166       ?type_case_s@?$output_processor@_WV?$string_output_adapter@_W@__crt_stdio_output@@V?$positional_parameter_base@_WV?$string_output_adapter@_W@__crt_stdio_output@@@2@@__crt_stdio_output@@AAE_NXZ 1004a166 f i libucrt:output.obj
 0001:00049206       ?type_case_s@?$output_processor@_WV?$string_output_adapter@_W@__crt_stdio_output@@V?$standard_base@_WV?$string_output_adapter@_W@__crt_stdio_output@@@2@@__crt_stdio_output@@AAE_NXZ 1004a206 f i libucrt:output.obj
 0001:00049295       ?type_case_s_compute_narrow_string_length@?$output_processor@DV?$stream_output_adapter@D@__crt_stdio_output@@V?$format_validation_base@DV?$stream_output_adapter@D@__crt_stdio_output@@@2@@__crt_stdio_output@@ABEHHD@Z 1004a295 f i libucrt:output.obj
 0001:000492b0       ?type_case_s_compute_narrow_string_length@?$output_processor@DV?$stream_output_adapter@D@__crt_stdio_output@@V?$positional_parameter_base@DV?$stream_output_adapter@D@__crt_stdio_output@@@2@@__crt_stdio_output@@ABEHHD@Z 1004a2b0 f i libucrt:output.obj
 0001:000492cb       ?type_case_s_compute_narrow_string_length@?$output_processor@DV?$stream_output_adapter@D@__crt_stdio_output@@V?$standard_base@DV?$stream_output_adapter@D@__crt_stdio_output@@@2@@__crt_stdio_output@@ABEHHD@Z 1004a2cb f i libucrt:output.obj
 0001:000492e6       ?type_case_s_compute_narrow_string_length@?$output_processor@DV?$string_output_adapter@D@__crt_stdio_output@@V?$format_validation_base@DV?$string_output_adapter@D@__crt_stdio_output@@@2@@__crt_stdio_output@@ABEHHD@Z 1004a2e6 f i libucrt:output.obj
 0001:00049301       ?type_case_s_compute_narrow_string_length@?$output_processor@DV?$string_output_adapter@D@__crt_stdio_output@@V?$positional_parameter_base@DV?$string_output_adapter@D@__crt_stdio_output@@@2@@__crt_stdio_output@@ABEHHD@Z 1004a301 f i libucrt:output.obj
 0001:0004931c       ?type_case_s_compute_narrow_string_length@?$output_processor@DV?$string_output_adapter@D@__crt_stdio_output@@V?$standard_base@DV?$string_output_adapter@D@__crt_stdio_output@@@2@@__crt_stdio_output@@ABEHHD@Z 1004a31c f i libucrt:output.obj
 0001:00049337       ?type_case_s_compute_narrow_string_length@?$output_processor@_WV?$stream_output_adapter@_W@__crt_stdio_output@@V?$format_validation_base@_WV?$stream_output_adapter@_W@__crt_stdio_output@@@2@@__crt_stdio_output@@ABEHH_W@Z 1004a337 f i libucrt:output.obj
 0001:0004938f       ?type_case_s_compute_narrow_string_length@?$output_processor@_WV?$stream_output_adapter@_W@__crt_stdio_output@@V?$positional_parameter_base@_WV?$stream_output_adapter@_W@__crt_stdio_output@@@2@@__crt_stdio_output@@ABEHH_W@Z 1004a38f f i libucrt:output.obj
 0001:000493e7       ?type_case_s_compute_narrow_string_length@?$output_processor@_WV?$stream_output_adapter@_W@__crt_stdio_output@@V?$standard_base@_WV?$stream_output_adapter@_W@__crt_stdio_output@@@2@@__crt_stdio_output@@ABEHH_W@Z 1004a3e7 f i libucrt:output.obj
 0001:0004943f       ?type_case_s_compute_narrow_string_length@?$output_processor@_WV?$string_output_adapter@_W@__crt_stdio_output@@V?$format_validation_base@_WV?$string_output_adapter@_W@__crt_stdio_output@@@2@@__crt_stdio_output@@ABEHH_W@Z 1004a43f f i libucrt:output.obj
 0001:00049497       ?type_case_s_compute_narrow_string_length@?$output_processor@_WV?$string_output_adapter@_W@__crt_stdio_output@@V?$positional_parameter_base@_WV?$string_output_adapter@_W@__crt_stdio_output@@@2@@__crt_stdio_output@@ABEHH_W@Z 1004a497 f i libucrt:output.obj
 0001:000494ef       ?type_case_s_compute_narrow_string_length@?$output_processor@_WV?$string_output_adapter@_W@__crt_stdio_output@@V?$standard_base@_WV?$string_output_adapter@_W@__crt_stdio_output@@@2@@__crt_stdio_output@@ABEHH_W@Z 1004a4ef f i libucrt:output.obj
 0001:00049547       ?type_case_u@?$output_processor@DV?$stream_output_adapter@D@__crt_stdio_output@@V?$format_validation_base@DV?$stream_output_adapter@D@__crt_stdio_output@@@2@@__crt_stdio_output@@AAE_NXZ 1004a547 f i libucrt:output.obj
 0001:00049553       ?type_case_u@?$output_processor@DV?$stream_output_adapter@D@__crt_stdio_output@@V?$positional_parameter_base@DV?$stream_output_adapter@D@__crt_stdio_output@@@2@@__crt_stdio_output@@AAE_NXZ 1004a553 f i libucrt:output.obj
 0001:0004955f       ?type_case_u@?$output_processor@DV?$stream_output_adapter@D@__crt_stdio_output@@V?$standard_base@DV?$stream_output_adapter@D@__crt_stdio_output@@@2@@__crt_stdio_output@@AAE_NXZ 1004a55f f i libucrt:output.obj
 0001:0004956b       ?type_case_u@?$output_processor@DV?$string_output_adapter@D@__crt_stdio_output@@V?$format_validation_base@DV?$string_output_adapter@D@__crt_stdio_output@@@2@@__crt_stdio_output@@AAE_NXZ 1004a56b f i libucrt:output.obj
 0001:00049577       ?type_case_u@?$output_processor@DV?$string_output_adapter@D@__crt_stdio_output@@V?$positional_parameter_base@DV?$string_output_adapter@D@__crt_stdio_output@@@2@@__crt_stdio_output@@AAE_NXZ 1004a577 f i libucrt:output.obj
 0001:00049583       ?type_case_u@?$output_processor@DV?$string_output_adapter@D@__crt_stdio_output@@V?$standard_base@DV?$string_output_adapter@D@__crt_stdio_output@@@2@@__crt_stdio_output@@AAE_NXZ 1004a583 f i libucrt:output.obj
 0001:0004958f       ?type_case_u@?$output_processor@_WV?$stream_output_adapter@_W@__crt_stdio_output@@V?$format_validation_base@_WV?$stream_output_adapter@_W@__crt_stdio_output@@@2@@__crt_stdio_output@@AAE_NXZ 1004a58f f i libucrt:output.obj
 0001:0004959b       ?type_case_u@?$output_processor@_WV?$stream_output_adapter@_W@__crt_stdio_output@@V?$positional_parameter_base@_WV?$stream_output_adapter@_W@__crt_stdio_output@@@2@@__crt_stdio_output@@AAE_NXZ 1004a59b f i libucrt:output.obj
 0001:000495a7       ?type_case_u@?$output_processor@_WV?$stream_output_adapter@_W@__crt_stdio_output@@V?$standard_base@_WV?$stream_output_adapter@_W@__crt_stdio_output@@@2@@__crt_stdio_output@@AAE_NXZ 1004a5a7 f i libucrt:output.obj
 0001:000495b3       ?type_case_u@?$output_processor@_WV?$string_output_adapter@_W@__crt_stdio_output@@V?$format_validation_base@_WV?$string_output_adapter@_W@__crt_stdio_output@@@2@@__crt_stdio_output@@AAE_NXZ 1004a5b3 f i libucrt:output.obj
 0001:000495bf       ?type_case_u@?$output_processor@_WV?$string_output_adapter@_W@__crt_stdio_output@@V?$positional_parameter_base@_WV?$string_output_adapter@_W@__crt_stdio_output@@@2@@__crt_stdio_output@@AAE_NXZ 1004a5bf f i libucrt:output.obj
 0001:000495cb       ?type_case_u@?$output_processor@_WV?$string_output_adapter@_W@__crt_stdio_output@@V?$standard_base@_WV?$string_output_adapter@_W@__crt_stdio_output@@@2@@__crt_stdio_output@@AAE_NXZ 1004a5cb f i libucrt:output.obj
 0001:000495d7       ?type_case_x@?$output_processor@DV?$stream_output_adapter@D@__crt_stdio_output@@V?$format_validation_base@DV?$stream_output_adapter@D@__crt_stdio_output@@@2@@__crt_stdio_output@@AAE_NXZ 1004a5d7 f i libucrt:output.obj
 0001:000495e3       ?type_case_x@?$output_processor@DV?$stream_output_adapter@D@__crt_stdio_output@@V?$positional_parameter_base@DV?$stream_output_adapter@D@__crt_stdio_output@@@2@@__crt_stdio_output@@AAE_NXZ 1004a5e3 f i libucrt:output.obj
 0001:000495ef       ?type_case_x@?$output_processor@DV?$stream_output_adapter@D@__crt_stdio_output@@V?$standard_base@DV?$stream_output_adapter@D@__crt_stdio_output@@@2@@__crt_stdio_output@@AAE_NXZ 1004a5ef f i libucrt:output.obj
 0001:000495fb       ?type_case_x@?$output_processor@DV?$string_output_adapter@D@__crt_stdio_output@@V?$format_validation_base@DV?$string_output_adapter@D@__crt_stdio_output@@@2@@__crt_stdio_output@@AAE_NXZ 1004a5fb f i libucrt:output.obj
 0001:00049607       ?type_case_x@?$output_processor@DV?$string_output_adapter@D@__crt_stdio_output@@V?$positional_parameter_base@DV?$string_output_adapter@D@__crt_stdio_output@@@2@@__crt_stdio_output@@AAE_NXZ 1004a607 f i libucrt:output.obj
 0001:00049613       ?type_case_x@?$output_processor@DV?$string_output_adapter@D@__crt_stdio_output@@V?$standard_base@DV?$string_output_adapter@D@__crt_stdio_output@@@2@@__crt_stdio_output@@AAE_NXZ 1004a613 f i libucrt:output.obj
 0001:0004961f       ?type_case_x@?$output_processor@_WV?$stream_output_adapter@_W@__crt_stdio_output@@V?$format_validation_base@_WV?$stream_output_adapter@_W@__crt_stdio_output@@@2@@__crt_stdio_output@@AAE_NXZ 1004a61f f i libucrt:output.obj
 0001:0004962b       ?type_case_x@?$output_processor@_WV?$stream_output_adapter@_W@__crt_stdio_output@@V?$positional_parameter_base@_WV?$stream_output_adapter@_W@__crt_stdio_output@@@2@@__crt_stdio_output@@AAE_NXZ 1004a62b f i libucrt:output.obj
 0001:00049637       ?type_case_x@?$output_processor@_WV?$stream_output_adapter@_W@__crt_stdio_output@@V?$standard_base@_WV?$stream_output_adapter@_W@__crt_stdio_output@@@2@@__crt_stdio_output@@AAE_NXZ 1004a637 f i libucrt:output.obj
 0001:00049643       ?type_case_x@?$output_processor@_WV?$string_output_adapter@_W@__crt_stdio_output@@V?$format_validation_base@_WV?$string_output_adapter@_W@__crt_stdio_output@@@2@@__crt_stdio_output@@AAE_NXZ 1004a643 f i libucrt:output.obj
 0001:0004964f       ?type_case_x@?$output_processor@_WV?$string_output_adapter@_W@__crt_stdio_output@@V?$positional_parameter_base@_WV?$string_output_adapter@_W@__crt_stdio_output@@@2@@__crt_stdio_output@@AAE_NXZ 1004a64f f i libucrt:output.obj
 0001:0004965b       ?type_case_x@?$output_processor@_WV?$string_output_adapter@_W@__crt_stdio_output@@V?$standard_base@_WV?$string_output_adapter@_W@__crt_stdio_output@@@2@@__crt_stdio_output@@AAE_NXZ 1004a65b f i libucrt:output.obj
 0001:00049667       ?unset_flag@?$output_processor@DV?$stream_output_adapter@D@__crt_stdio_output@@V?$format_validation_base@DV?$stream_output_adapter@D@__crt_stdio_output@@@2@@__crt_stdio_output@@AAEXI@Z 1004a667 f i libucrt:output.obj
 0001:0004967c       ?unset_flag@?$output_processor@DV?$stream_output_adapter@D@__crt_stdio_output@@V?$positional_parameter_base@DV?$stream_output_adapter@D@__crt_stdio_output@@@2@@__crt_stdio_output@@AAEXI@Z 1004a67c f i libucrt:output.obj
 0001:00049691       ?unset_flag@?$output_processor@DV?$stream_output_adapter@D@__crt_stdio_output@@V?$standard_base@DV?$stream_output_adapter@D@__crt_stdio_output@@@2@@__crt_stdio_output@@AAEXI@Z 1004a691 f i libucrt:output.obj
 0001:000496a6       ?unset_flag@?$output_processor@DV?$string_output_adapter@D@__crt_stdio_output@@V?$format_validation_base@DV?$string_output_adapter@D@__crt_stdio_output@@@2@@__crt_stdio_output@@AAEXI@Z 1004a6a6 f i libucrt:output.obj
 0001:000496bb       ?unset_flag@?$output_processor@DV?$string_output_adapter@D@__crt_stdio_output@@V?$positional_parameter_base@DV?$string_output_adapter@D@__crt_stdio_output@@@2@@__crt_stdio_output@@AAEXI@Z 1004a6bb f i libucrt:output.obj
 0001:000496d0       ?unset_flag@?$output_processor@DV?$string_output_adapter@D@__crt_stdio_output@@V?$standard_base@DV?$string_output_adapter@D@__crt_stdio_output@@@2@@__crt_stdio_output@@AAEXI@Z 1004a6d0 f i libucrt:output.obj
 0001:000496e5       ?unset_flag@?$output_processor@_WV?$stream_output_adapter@_W@__crt_stdio_output@@V?$format_validation_base@_WV?$stream_output_adapter@_W@__crt_stdio_output@@@2@@__crt_stdio_output@@AAEXI@Z 1004a6e5 f i libucrt:output.obj
 0001:000496fa       ?unset_flag@?$output_processor@_WV?$stream_output_adapter@_W@__crt_stdio_output@@V?$positional_parameter_base@_WV?$stream_output_adapter@_W@__crt_stdio_output@@@2@@__crt_stdio_output@@AAEXI@Z 1004a6fa f i libucrt:output.obj
 0001:0004970f       ?unset_flag@?$output_processor@_WV?$stream_output_adapter@_W@__crt_stdio_output@@V?$standard_base@_WV?$stream_output_adapter@_W@__crt_stdio_output@@@2@@__crt_stdio_output@@AAEXI@Z 1004a70f f i libucrt:output.obj
 0001:00049724       ?unset_flag@?$output_processor@_WV?$string_output_adapter@_W@__crt_stdio_output@@V?$format_validation_base@_WV?$string_output_adapter@_W@__crt_stdio_output@@@2@@__crt_stdio_output@@AAEXI@Z 1004a724 f i libucrt:output.obj
 0001:00049739       ?unset_flag@?$output_processor@_WV?$string_output_adapter@_W@__crt_stdio_output@@V?$positional_parameter_base@_WV?$string_output_adapter@_W@__crt_stdio_output@@@2@@__crt_stdio_output@@AAEXI@Z 1004a739 f i libucrt:output.obj
 0001:0004974e       ?unset_flag@?$output_processor@_WV?$string_output_adapter@_W@__crt_stdio_output@@V?$standard_base@_WV?$string_output_adapter@_W@__crt_stdio_output@@@2@@__crt_stdio_output@@AAEXI@Z 1004a74e f i libucrt:output.obj
 0001:00049763       ?update_field_width@?$positional_parameter_base@DV?$stream_output_adapter@D@__crt_stdio_output@@@__crt_stdio_output@@IAE_NXZ 1004a763 f i libucrt:output.obj
 0001:00049844       ?update_field_width@?$positional_parameter_base@DV?$string_output_adapter@D@__crt_stdio_output@@@__crt_stdio_output@@IAE_NXZ 1004a844 f i libucrt:output.obj
 0001:00049925       ?update_field_width@?$positional_parameter_base@_WV?$stream_output_adapter@_W@__crt_stdio_output@@@__crt_stdio_output@@IAE_NXZ 1004a925 f i libucrt:output.obj
 0001:00049a07       ?update_field_width@?$positional_parameter_base@_WV?$string_output_adapter@_W@__crt_stdio_output@@@__crt_stdio_output@@IAE_NXZ 1004aa07 f i libucrt:output.obj
 0001:00049ae9       ?update_field_width@?$standard_base@DV?$stream_output_adapter@D@__crt_stdio_output@@@__crt_stdio_output@@IAE_NXZ 1004aae9 f i libucrt:output.obj
 0001:00049afd       ?update_field_width@?$standard_base@DV?$string_output_adapter@D@__crt_stdio_output@@@__crt_stdio_output@@IAE_NXZ 1004aafd f i libucrt:output.obj
 0001:00049b11       ?update_field_width@?$standard_base@_WV?$stream_output_adapter@_W@__crt_stdio_output@@@__crt_stdio_output@@IAE_NXZ 1004ab11 f i libucrt:output.obj
 0001:00049b25       ?update_field_width@?$standard_base@_WV?$string_output_adapter@_W@__crt_stdio_output@@@__crt_stdio_output@@IAE_NXZ 1004ab25 f i libucrt:output.obj
 0001:00049b39       ?update_precision@?$positional_parameter_base@DV?$stream_output_adapter@D@__crt_stdio_output@@@__crt_stdio_output@@IAE_NXZ 1004ab39 f i libucrt:output.obj
 0001:00049c1a       ?update_precision@?$positional_parameter_base@DV?$string_output_adapter@D@__crt_stdio_output@@@__crt_stdio_output@@IAE_NXZ 1004ac1a f i libucrt:output.obj
 0001:00049cfb       ?update_precision@?$positional_parameter_base@_WV?$stream_output_adapter@_W@__crt_stdio_output@@@__crt_stdio_output@@IAE_NXZ 1004acfb f i libucrt:output.obj
 0001:00049ddd       ?update_precision@?$positional_parameter_base@_WV?$string_output_adapter@_W@__crt_stdio_output@@@__crt_stdio_output@@IAE_NXZ 1004addd f i libucrt:output.obj
 0001:00049ebf       ?update_precision@?$standard_base@DV?$stream_output_adapter@D@__crt_stdio_output@@@__crt_stdio_output@@IAE_NXZ 1004aebf f i libucrt:output.obj
 0001:00049ed3       ?update_precision@?$standard_base@DV?$string_output_adapter@D@__crt_stdio_output@@@__crt_stdio_output@@IAE_NXZ 1004aed3 f i libucrt:output.obj
 0001:00049ee7       ?update_precision@?$standard_base@_WV?$stream_output_adapter@_W@__crt_stdio_output@@@__crt_stdio_output@@IAE_NXZ 1004aee7 f i libucrt:output.obj
 0001:00049efb       ?update_precision@?$standard_base@_WV?$string_output_adapter@_W@__crt_stdio_output@@@__crt_stdio_output@@IAE_NXZ 1004aefb f i libucrt:output.obj
 0001:00049f0f       ?valid@__crt_stdio_stream@@QBE_NXZ 1004af0f f i libucrt:output.obj
 0001:00049f16       ?validate@?$stream_output_adapter@D@__crt_stdio_output@@QBE_NXZ 1004af16 f i libucrt:output.obj
 0001:00049f3f       ?validate@?$stream_output_adapter@_W@__crt_stdio_output@@QBE_NXZ 1004af3f f i libucrt:output.obj
 0001:00049f60       ?validate@?$string_output_adapter@D@__crt_stdio_output@@QBE_NXZ 1004af60 f i libucrt:output.obj
 0001:00049f81       ?validate@?$string_output_adapter@_W@__crt_stdio_output@@QBE_NXZ 1004af81 f i libucrt:output.obj
 0001:00049fa2       ?validate_and_store_parameter_data@?$positional_parameter_base@DV?$stream_output_adapter@D@__crt_stdio_output@@@__crt_stdio_output@@AAE_NAAUparameter_data@12@W4parameter_type@12@DW4length_modifier@2@@Z 1004afa2 f i libucrt:output.obj
 0001:00049fff       ?validate_and_store_parameter_data@?$positional_parameter_base@DV?$string_output_adapter@D@__crt_stdio_output@@@__crt_stdio_output@@AAE_NAAUparameter_data@12@W4parameter_type@12@DW4length_modifier@2@@Z 1004afff f i libucrt:output.obj
 0001:0004a05c       ?validate_and_store_parameter_data@?$positional_parameter_base@_WV?$stream_output_adapter@_W@__crt_stdio_output@@@__crt_stdio_output@@AAE_NAAUparameter_data@12@W4parameter_type@12@_WW4length_modifier@2@@Z 1004b05c f i libucrt:output.obj
 0001:0004a0bc       ?validate_and_store_parameter_data@?$positional_parameter_base@_WV?$string_output_adapter@_W@__crt_stdio_output@@@__crt_stdio_output@@AAE_NAAUparameter_data@12@W4parameter_type@12@_WW4length_modifier@2@@Z 1004b0bc f i libucrt:output.obj
 0001:0004a11c       ?validate_and_update_state_at_beginning_of_format_character@?$positional_parameter_base@DV?$stream_output_adapter@D@__crt_stdio_output@@@__crt_stdio_output@@IAE_NXZ 1004b11c f i libucrt:output.obj
 0001:0004a252       ?validate_and_update_state_at_beginning_of_format_character@?$positional_parameter_base@DV?$string_output_adapter@D@__crt_stdio_output@@@__crt_stdio_output@@IAE_NXZ 1004b252 f i libucrt:output.obj
 0001:0004a388       ?validate_and_update_state_at_beginning_of_format_character@?$positional_parameter_base@_WV?$stream_output_adapter@_W@__crt_stdio_output@@@__crt_stdio_output@@IAE_NXZ 1004b388 f i libucrt:output.obj
 0001:0004a4c9       ?validate_and_update_state_at_beginning_of_format_character@?$positional_parameter_base@_WV?$string_output_adapter@_W@__crt_stdio_output@@@__crt_stdio_output@@IAE_NXZ 1004b4c9 f i libucrt:output.obj
 0001:0004a60a       ?validate_and_update_state_at_beginning_of_format_character@?$standard_base@DV?$stream_output_adapter@D@__crt_stdio_output@@@__crt_stdio_output@@IAE_NXZ 1004b60a f i libucrt:output.obj
 0001:0004a60d       ?validate_and_update_state_at_beginning_of_format_character@?$standard_base@DV?$string_output_adapter@D@__crt_stdio_output@@@__crt_stdio_output@@IAE_NXZ 1004b60d f i libucrt:output.obj
 0001:0004a610       ?validate_and_update_state_at_beginning_of_format_character@?$standard_base@_WV?$stream_output_adapter@_W@__crt_stdio_output@@@__crt_stdio_output@@IAE_NXZ 1004b610 f i libucrt:output.obj
 0001:0004a613       ?validate_and_update_state_at_beginning_of_format_character@?$standard_base@_WV?$string_output_adapter@_W@__crt_stdio_output@@@__crt_stdio_output@@IAE_NXZ 1004b613 f i libucrt:output.obj
 0001:0004a616       ?validate_and_update_state_at_end_of_format_string@?$format_validation_base@DV?$stream_output_adapter@D@__crt_stdio_output@@@__crt_stdio_output@@IBE_NXZ 1004b616 f i libucrt:output.obj
 0001:0004a640       ?validate_and_update_state_at_end_of_format_string@?$format_validation_base@DV?$string_output_adapter@D@__crt_stdio_output@@@__crt_stdio_output@@IBE_NXZ 1004b640 f i libucrt:output.obj
 0001:0004a66a       ?validate_and_update_state_at_end_of_format_string@?$format_validation_base@_WV?$stream_output_adapter@_W@__crt_stdio_output@@@__crt_stdio_output@@IBE_NXZ 1004b66a f i libucrt:output.obj
 0001:0004a694       ?validate_and_update_state_at_end_of_format_string@?$format_validation_base@_WV?$string_output_adapter@_W@__crt_stdio_output@@@__crt_stdio_output@@IBE_NXZ 1004b694 f i libucrt:output.obj
 0001:0004a6be       ?validate_and_update_state_at_end_of_format_string@?$positional_parameter_base@DV?$stream_output_adapter@D@__crt_stdio_output@@@__crt_stdio_output@@IAE_NXZ 1004b6be f i libucrt:output.obj
 0001:0004a772       ?validate_and_update_state_at_end_of_format_string@?$positional_parameter_base@DV?$string_output_adapter@D@__crt_stdio_output@@@__crt_stdio_output@@IAE_NXZ 1004b772 f i libucrt:output.obj
 0001:0004a826       ?validate_and_update_state_at_end_of_format_string@?$positional_parameter_base@_WV?$stream_output_adapter@_W@__crt_stdio_output@@@__crt_stdio_output@@IAE_NXZ 1004b826 f i libucrt:output.obj
 0001:0004a8da       ?validate_and_update_state_at_end_of_format_string@?$positional_parameter_base@_WV?$string_output_adapter@_W@__crt_stdio_output@@@__crt_stdio_output@@IAE_NXZ 1004b8da f i libucrt:output.obj
 0001:0004a98e       ?validate_and_update_state_at_end_of_format_string@?$standard_base@DV?$stream_output_adapter@D@__crt_stdio_output@@@__crt_stdio_output@@IBE_NXZ 1004b98e f i libucrt:output.obj
 0001:0004a991       ?validate_and_update_state_at_end_of_format_string@?$standard_base@DV?$string_output_adapter@D@__crt_stdio_output@@@__crt_stdio_output@@IBE_NXZ 1004b991 f i libucrt:output.obj
 0001:0004a994       ?validate_and_update_state_at_end_of_format_string@?$standard_base@_WV?$stream_output_adapter@_W@__crt_stdio_output@@@__crt_stdio_output@@IBE_NXZ 1004b994 f i libucrt:output.obj
 0001:0004a997       ?validate_and_update_state_at_end_of_format_string@?$standard_base@_WV?$string_output_adapter@_W@__crt_stdio_output@@@__crt_stdio_output@@IBE_NXZ 1004b997 f i libucrt:output.obj
 0001:0004a99a       ?validate_state_for_type_case_a@?$positional_parameter_base@DV?$stream_output_adapter@D@__crt_stdio_output@@@__crt_stdio_output@@IAE_NXZ 1004b99a f i libucrt:output.obj
 0001:0004a9fc       ?validate_state_for_type_case_a@?$positional_parameter_base@DV?$string_output_adapter@D@__crt_stdio_output@@@__crt_stdio_output@@IAE_NXZ 1004b9fc f i libucrt:output.obj
 0001:0004aa5e       ?validate_state_for_type_case_a@?$positional_parameter_base@_WV?$stream_output_adapter@_W@__crt_stdio_output@@@__crt_stdio_output@@IAE_NXZ 1004ba5e f i libucrt:output.obj
 0001:0004aac0       ?validate_state_for_type_case_a@?$positional_parameter_base@_WV?$string_output_adapter@_W@__crt_stdio_output@@@__crt_stdio_output@@IAE_NXZ 1004bac0 f i libucrt:output.obj
 0001:0004ab22       ?validate_state_for_type_case_a@?$standard_base@DV?$stream_output_adapter@D@__crt_stdio_output@@@__crt_stdio_output@@IBE_NXZ 1004bb22 f i libucrt:output.obj
 0001:0004ab25       ?validate_state_for_type_case_a@?$standard_base@DV?$string_output_adapter@D@__crt_stdio_output@@@__crt_stdio_output@@IBE_NXZ 1004bb25 f i libucrt:output.obj
 0001:0004ab28       ?validate_state_for_type_case_a@?$standard_base@_WV?$stream_output_adapter@_W@__crt_stdio_output@@@__crt_stdio_output@@IBE_NXZ 1004bb28 f i libucrt:output.obj
 0001:0004ab2b       ?validate_state_for_type_case_a@?$standard_base@_WV?$string_output_adapter@_W@__crt_stdio_output@@@__crt_stdio_output@@IBE_NXZ 1004bb2b f i libucrt:output.obj
 0001:0004ab2e       ?validate_stream_is_ansi_if_required@?$__acrt_stdio_char_traits@D@@SA_NQAU_iobuf@@@Z 1004bb2e f i libucrt:output.obj
 0001:0004abd6       ?validate_stream_is_ansi_if_required@?$__acrt_stdio_char_traits@_W@@SA_NQAU_iobuf@@@Z 1004bbd6 f i libucrt:output.obj
 0001:0004abd9       ?wide_null_string@?$output_processor@DV?$stream_output_adapter@D@__crt_stdio_output@@V?$format_validation_base@DV?$stream_output_adapter@D@__crt_stdio_output@@@2@@__crt_stdio_output@@CAPA_WXZ 1004bbd9 f i libucrt:output.obj
 0001:0004abdf       ?wide_null_string@?$output_processor@DV?$stream_output_adapter@D@__crt_stdio_output@@V?$positional_parameter_base@DV?$stream_output_adapter@D@__crt_stdio_output@@@2@@__crt_stdio_output@@CAPA_WXZ 1004bbdf f i libucrt:output.obj
 0001:0004abe5       ?wide_null_string@?$output_processor@DV?$stream_output_adapter@D@__crt_stdio_output@@V?$standard_base@DV?$stream_output_adapter@D@__crt_stdio_output@@@2@@__crt_stdio_output@@CAPA_WXZ 1004bbe5 f i libucrt:output.obj
 0001:0004abeb       ?wide_null_string@?$output_processor@DV?$string_output_adapter@D@__crt_stdio_output@@V?$format_validation_base@DV?$string_output_adapter@D@__crt_stdio_output@@@2@@__crt_stdio_output@@CAPA_WXZ 1004bbeb f i libucrt:output.obj
 0001:0004abf1       ?wide_null_string@?$output_processor@DV?$string_output_adapter@D@__crt_stdio_output@@V?$positional_parameter_base@DV?$string_output_adapter@D@__crt_stdio_output@@@2@@__crt_stdio_output@@CAPA_WXZ 1004bbf1 f i libucrt:output.obj
 0001:0004abf7       ?wide_null_string@?$output_processor@DV?$string_output_adapter@D@__crt_stdio_output@@V?$standard_base@DV?$string_output_adapter@D@__crt_stdio_output@@@2@@__crt_stdio_output@@CAPA_WXZ 1004bbf7 f i libucrt:output.obj
 0001:0004abfd       ?wide_null_string@?$output_processor@_WV?$stream_output_adapter@_W@__crt_stdio_output@@V?$format_validation_base@_WV?$stream_output_adapter@_W@__crt_stdio_output@@@2@@__crt_stdio_output@@CAPA_WXZ 1004bbfd f i libucrt:output.obj
 0001:0004ac03       ?wide_null_string@?$output_processor@_WV?$stream_output_adapter@_W@__crt_stdio_output@@V?$positional_parameter_base@_WV?$stream_output_adapter@_W@__crt_stdio_output@@@2@@__crt_stdio_output@@CAPA_WXZ 1004bc03 f i libucrt:output.obj
 0001:0004ac09       ?wide_null_string@?$output_processor@_WV?$stream_output_adapter@_W@__crt_stdio_output@@V?$standard_base@_WV?$stream_output_adapter@_W@__crt_stdio_output@@@2@@__crt_stdio_output@@CAPA_WXZ 1004bc09 f i libucrt:output.obj
 0001:0004ac0f       ?wide_null_string@?$output_processor@_WV?$string_output_adapter@_W@__crt_stdio_output@@V?$format_validation_base@_WV?$string_output_adapter@_W@__crt_stdio_output@@@2@@__crt_stdio_output@@CAPA_WXZ 1004bc0f f i libucrt:output.obj
 0001:0004ac15       ?wide_null_string@?$output_processor@_WV?$string_output_adapter@_W@__crt_stdio_output@@V?$positional_parameter_base@_WV?$string_output_adapter@_W@__crt_stdio_output@@@2@@__crt_stdio_output@@CAPA_WXZ 1004bc15 f i libucrt:output.obj
 0001:0004ac1b       ?wide_null_string@?$output_processor@_WV?$string_output_adapter@_W@__crt_stdio_output@@V?$standard_base@_WV?$string_output_adapter@_W@__crt_stdio_output@@@2@@__crt_stdio_output@@CAPA_WXZ 1004bc1b f i libucrt:output.obj
 0001:0004ac21       ?write_character@?$output_adapter_common@DV?$stream_output_adapter@D@__crt_stdio_output@@@__crt_stdio_output@@QBEXDQAH@Z 1004bc21 f i libucrt:output.obj
 0001:0004ac47       ?write_character@?$output_adapter_common@_WV?$stream_output_adapter@_W@__crt_stdio_output@@@__crt_stdio_output@@QBEX_WQAH@Z 1004bc47 f i libucrt:output.obj
 0001:0004ac6d       ?write_character@?$string_output_adapter@D@__crt_stdio_output@@QBE_NDQAH@Z 1004bc6d f i libucrt:output.obj
 0001:0004acbf       ?write_character@?$string_output_adapter@_W@__crt_stdio_output@@QBE_N_WQAH@Z 1004bcbf f i libucrt:output.obj
 0001:0004ad15       ?write_character_without_count_update@?$stream_output_adapter@D@__crt_stdio_output@@QBE_ND@Z 1004bd15 f i libucrt:output.obj
 0001:0004ad58       ?write_character_without_count_update@?$stream_output_adapter@_W@__crt_stdio_output@@QBE_N_W@Z 1004bd58 f i libucrt:output.obj
 0001:0004ad9f       ?write_stored_string_tchar@?$output_processor@DV?$stream_output_adapter@D@__crt_stdio_output@@V?$format_validation_base@DV?$stream_output_adapter@D@__crt_stdio_output@@@2@@__crt_stdio_output@@AAE_ND@Z 1004bd9f f i libucrt:output.obj
 0001:0004ae6f       ?write_stored_string_tchar@?$output_processor@DV?$stream_output_adapter@D@__crt_stdio_output@@V?$positional_parameter_base@DV?$stream_output_adapter@D@__crt_stdio_output@@@2@@__crt_stdio_output@@AAE_ND@Z 1004be6f f i libucrt:output.obj
 0001:0004af3f       ?write_stored_string_tchar@?$output_processor@DV?$stream_output_adapter@D@__crt_stdio_output@@V?$standard_base@DV?$stream_output_adapter@D@__crt_stdio_output@@@2@@__crt_stdio_output@@AAE_ND@Z 1004bf3f f i libucrt:output.obj
 0001:0004b00f       ?write_stored_string_tchar@?$output_processor@DV?$string_output_adapter@D@__crt_stdio_output@@V?$format_validation_base@DV?$string_output_adapter@D@__crt_stdio_output@@@2@@__crt_stdio_output@@AAE_ND@Z 1004c00f f i libucrt:output.obj
 0001:0004b0df       ?write_stored_string_tchar@?$output_processor@DV?$string_output_adapter@D@__crt_stdio_output@@V?$positional_parameter_base@DV?$string_output_adapter@D@__crt_stdio_output@@@2@@__crt_stdio_output@@AAE_ND@Z 1004c0df f i libucrt:output.obj
 0001:0004b1af       ?write_stored_string_tchar@?$output_processor@DV?$string_output_adapter@D@__crt_stdio_output@@V?$standard_base@DV?$string_output_adapter@D@__crt_stdio_output@@@2@@__crt_stdio_output@@AAE_ND@Z 1004c1af f i libucrt:output.obj
 0001:0004b27f       ?write_stored_string_tchar@?$output_processor@_WV?$stream_output_adapter@_W@__crt_stdio_output@@V?$format_validation_base@_WV?$stream_output_adapter@_W@__crt_stdio_output@@@2@@__crt_stdio_output@@AAE_N_W@Z 1004c27f f i libucrt:output.obj
 0001:0004b336       ?write_stored_string_tchar@?$output_processor@_WV?$stream_output_adapter@_W@__crt_stdio_output@@V?$positional_parameter_base@_WV?$stream_output_adapter@_W@__crt_stdio_output@@@2@@__crt_stdio_output@@AAE_N_W@Z 1004c336 f i libucrt:output.obj
 0001:0004b3ed       ?write_stored_string_tchar@?$output_processor@_WV?$stream_output_adapter@_W@__crt_stdio_output@@V?$standard_base@_WV?$stream_output_adapter@_W@__crt_stdio_output@@@2@@__crt_stdio_output@@AAE_N_W@Z 1004c3ed f i libucrt:output.obj
 0001:0004b4a4       ?write_stored_string_tchar@?$output_processor@_WV?$string_output_adapter@_W@__crt_stdio_output@@V?$format_validation_base@_WV?$string_output_adapter@_W@__crt_stdio_output@@@2@@__crt_stdio_output@@AAE_N_W@Z 1004c4a4 f i libucrt:output.obj
 0001:0004b55b       ?write_stored_string_tchar@?$output_processor@_WV?$string_output_adapter@_W@__crt_stdio_output@@V?$positional_parameter_base@_WV?$string_output_adapter@_W@__crt_stdio_output@@@2@@__crt_stdio_output@@AAE_N_W@Z 1004c55b f i libucrt:output.obj
 0001:0004b612       ?write_stored_string_tchar@?$output_processor@_WV?$string_output_adapter@_W@__crt_stdio_output@@V?$standard_base@_WV?$string_output_adapter@_W@__crt_stdio_output@@@2@@__crt_stdio_output@@AAE_N_W@Z 1004c612 f i libucrt:output.obj
 0001:0004b6c9       ?write_string@?$stream_output_adapter@D@__crt_stdio_output@@QBEXQBDHQAHAAV__crt_deferred_errno_cache@@@Z 1004c6c9 f i libucrt:output.obj
 0001:0004b700       ?write_string@?$stream_output_adapter@_W@__crt_stdio_output@@QBEXQB_WHQAHAAV__crt_deferred_errno_cache@@@Z 1004c700 f i libucrt:output.obj
 0001:0004b737       ?write_string@?$string_output_adapter@D@__crt_stdio_output@@QBEXQBDHQAHAAV__crt_deferred_errno_cache@@@Z 1004c737 f i libucrt:output.obj
 0001:0004b7b7       ?write_string@?$string_output_adapter@_W@__crt_stdio_output@@QBEXQB_WHQAHAAV__crt_deferred_errno_cache@@@Z 1004c7b7 f i libucrt:output.obj
 0001:0004b844       ?write_string_impl@?$output_adapter_common@DV?$stream_output_adapter@D@__crt_stdio_output@@@__crt_stdio_output@@IBEXQBDHQAHAAV__crt_deferred_errno_cache@@@Z 1004c844 f i libucrt:output.obj
 0001:0004b909       ?write_string_impl@?$output_adapter_common@_WV?$stream_output_adapter@_W@__crt_stdio_output@@@__crt_stdio_output@@IBEXQB_WHQAHAAV__crt_deferred_errno_cache@@@Z 1004c909 f i libucrt:output.obj
 0001:0004b9d2       ___acrt_isleadbyte_l_noupdate 1004c9d2 f i libucrt:output.obj
 0001:0004b9f7       ___acrt_locale_changed     1004c9f7 f i libucrt:output.obj
 0001:0004ba04       ___acrt_locale_get_ctype_array_value 1004ca04 f i libucrt:output.obj
 0001:0004ba2e       ___stdio_common_vfprintf   1004ca2e f   libucrt:output.obj
 0001:0004bad1       ___stdio_common_vfprintf_p 1004cad1 f   libucrt:output.obj
 0001:0004bb74       ___stdio_common_vfprintf_s 1004cb74 f   libucrt:output.obj
 0001:0004bc17       ___stdio_common_vfwprintf  1004cc17 f   libucrt:output.obj
 0001:0004bcba       ___stdio_common_vfwprintf_p 1004ccba f   libucrt:output.obj
 0001:0004bd5d       ___stdio_common_vfwprintf_s 1004cd5d f   libucrt:output.obj
 0001:0004be00       ___stdio_common_vsnprintf_s 1004ce00 f   libucrt:output.obj
 0001:0004be30       ___stdio_common_vsnwprintf_s 1004ce30 f   libucrt:output.obj
 0001:0004be60       ___stdio_common_vsprintf   1004ce60 f   libucrt:output.obj
 0001:0004be8d       ___stdio_common_vsprintf_p 1004ce8d f   libucrt:output.obj
 0001:0004beba       ___stdio_common_vsprintf_s 1004ceba f   libucrt:output.obj
 0001:0004bee7       ___stdio_common_vswprintf  1004cee7 f   libucrt:output.obj
 0001:0004bf14       ___stdio_common_vswprintf_p 1004cf14 f   libucrt:output.obj
 0001:0004bf41       ___stdio_common_vswprintf_s 1004cf41 f   libucrt:output.obj
 0001:0004bf6e       __ctype_fast_check_internal 1004cf6e f i libucrt:output.obj
 0001:0004bf8e       __isdigit_fast_internal    1004cf8e f i libucrt:output.obj
 0001:0004bfae       __tolower_fast_internal    1004cfae f i libucrt:output.obj
 0001:0004bfcd       _calloc                    1004cfcd f   libucrt:calloc.obj
 0001:0004bfda       _realloc                   1004cfda f   libucrt:realloc.obj
 0001:0004bfe7       ??$?B$$A6GXPAXK0@Z@__crt_fast_encoded_nullptr_t@@QBEP6GXPAXK0@ZXZ 1004cfe7 f i libucrt:exit.obj
 0001:0004c07c       ??$__crt_fast_decode_pointer@P6GXPAXK0@Z@@YAP6GXPAXK0@ZQ6GX0K0@Z@Z 1004d07c f i libucrt:exit.obj
 0001:0004c097       ??$__crt_fast_encode_pointer@P6GXPAXK0@Z@@YAP6GXPAXK0@ZQ6GX0K0@Z@Z 1004d097 f i libucrt:exit.obj
 0001:0004c0bd       ??$__crt_get_proc_address@P6GXI@Z@@YAP6GXI@ZQAUHINSTANCE__@@QBD@Z 1004d0bd f i libucrt:exit.obj
 0001:0004c123       ??0?$__crt_unique_handle_t@U__crt_hmodule_traits@@@@QAE@QAUHINSTANCE__@@@Z 1004d123 f i libucrt:exit.obj
 0001:0004c137       ??1?$__crt_unique_handle_t@U__crt_hmodule_traits@@@@QAE@XZ 1004d137 f i libucrt:exit.obj
 0001:0004c279       ?__acrt_select_exit_lock@@YA?AW4__acrt_lock_id@@XZ 1004d279 f i libucrt:exit.obj
 0001:0004c27d       ?__crt_fast_encode_pointer@@YA?AU__crt_fast_encoded_nullptr_t@@$$T@Z 1004d27d f i libucrt:exit.obj
 0001:0004c28a       ?__crt_rotate_pointer_value@@YAIIH@Z 1004d28a f i libucrt:exit.obj
 0001:0004c2b3       ?close@?$__crt_unique_handle_t@U__crt_hmodule_traits@@@@QAEXXZ 1004d2b3 f i libucrt:exit.obj
 0001:0004c2cf       ?close@__crt_hmodule_traits@@SA_NPAUHINSTANCE__@@@Z 1004d2cf f i libucrt:exit.obj
 0001:0004c3b8       ?get@?$__crt_unique_handle_t@U__crt_hmodule_traits@@@@QBEPAUHINSTANCE__@@XZ 1004d3b8 f i libucrt:exit.obj
 0001:0004c3bb       ?get_address_of@?$__crt_unique_handle_t@U__crt_hmodule_traits@@@@QAEPAPAUHINSTANCE__@@XZ 1004d3bb f i libucrt:exit.obj
 0001:0004c3be       ?get_invalid_value@__crt_hmodule_traits@@SAPAUHINSTANCE__@@XZ 1004d3be f i libucrt:exit.obj
 0001:0004c4a5       __Exit                     1004d4a5 f   libucrt:exit.obj
 0001:0004c4c0       ___acrt_initialize_thread_local_exit_callback 1004d4c0 f   libucrt:exit.obj
 0001:0004c4d2       __c_exit                   1004d4d2 f   libucrt:exit.obj
 0001:0004c4e4       __cexit                    1004d4e4 f   libucrt:exit.obj
 0001:0004c4f6       __exit                     1004d4f6 f   libucrt:exit.obj
 0001:0004c511       __is_c_termination_complete 1004d511 f   libucrt:exit.obj
 0001:0004c518       __register_thread_local_exe_atexit_callback 1004d518 f   libucrt:exit.obj
 0001:0004c547       _exit                      1004d547 f   libucrt:exit.obj
 0001:0004c562       _quick_exit                1004d562 f   libucrt:exit.obj
 0001:0004c580       _strncat                   1004d580 f   libucrt:strncat.obj
 0001:0004c710       _strncpy                   1004d710 f   libucrt:strncpy.obj
 0001:0004c87d       ?is_in_use@__crt_stdio_stream@@QBE_NXZ 1004d87d f i libucrt:fclose.obj
 0001:0004c88c       __fclose_nolock            1004d88c f   libucrt:fclose.obj
 0001:0004c920       _fclose                    1004d920 f   libucrt:fclose.obj
 0001:0004cc3c       ??$open_file@ABQBDABQBDABHPAU_iobuf@@@?$__crt_char_traits@D@@SAPAU_iobuf@@ABQBD0ABH$$QAPAU1@@Z 1004dc3c f i libucrt:fopen.obj
 0001:0004cc67       ??$open_file@ABQB_WABQB_WABHPAU_iobuf@@@?$__crt_char_traits@_W@@SAPAU_iobuf@@ABQB_W0ABH$$QAPAU1@@Z 1004dc67 f i libucrt:fopen.obj
 0001:0004cc92       ?unlock@__crt_stdio_stream@@QBEXXZ 1004dc92 f i libucrt:fopen.obj
 0001:0004cc9d       __fsopen                   1004dc9d f   libucrt:fopen.obj
 0001:0004ccaa       __wfopen                   1004dcaa f   libucrt:fopen.obj
 0001:0004ccc6       __wfopen_s                 1004dcc6 f   libucrt:fopen.obj
 0001:0004cd1e       __wfsopen                  1004dd1e f   libucrt:fopen.obj
 0001:0004cd2b       _fopen                     1004dd2b f   libucrt:fopen.obj
 0001:0004cd47       _fopen_s                   1004dd47 f   libucrt:fopen.obj
 0001:0004cd9f       ?__acrt_stdio_reset_buffer@@YAXV__crt_stdio_stream@@@Z 1004dd9f f i libucrt:fread.obj
 0001:0004cdba       ?has_any_buffer@__crt_stdio_stream@@QBE_NXZ 1004ddba f i libucrt:fread.obj
 0001:0004cdcc       ?has_any_of@__crt_stdio_stream@@QBE_NJ@Z 1004ddcc f i libucrt:fread.obj
 0001:0004cde6       ?set_flags@__crt_stdio_stream@@QBE_NJ@Z 1004dde6 f i libucrt:fread.obj
 0001:0004ce13       __fread_nolock             1004de13 f   libucrt:fread.obj
 0001:0004ce37       __fread_nolock_s           1004de37 f   libucrt:fread.obj
 0001:0004d096       _fread                     1004e096 f   libucrt:fread.obj
 0001:0004d0ba       _fread_s                   1004e0ba f   libucrt:fread.obj
 0001:0004d37e       ?has_big_buffer@__crt_stdio_stream@@QBE_NXZ 1004e37e f i libucrt:fwrite.obj
 0001:0004d38d       __fwrite_nolock            1004e38d f   libucrt:fwrite.obj
 0001:0004d56e       _fwrite                    1004e56e f   libucrt:fwrite.obj
 0001:0004d6c7       ??$__acrt_mbs_to_wcs_cp@U__crt_win32_buffer_internal_dynamic_resizing@@@@YAHQBDAAV?$__crt_win32_buffer@_WU__crt_win32_buffer_internal_dynamic_resizing@@@@I@Z 1004e6c7 f i libucrt:unlink.obj
 0001:0004d6eb       ??0?$__crt_win32_buffer@_WU__crt_win32_buffer_internal_dynamic_resizing@@@@QAE@XZ 1004e6eb f i libucrt:unlink.obj
 0001:0004d706       ??1?$__crt_win32_buffer@_WU__crt_win32_buffer_internal_dynamic_resizing@@@@QAE@XZ 1004e706 f i libucrt:unlink.obj
 0001:0004d734       ?__acrt_get_utf8_acp_compatibility_codepage@@YAIXZ 1004e734 f i libucrt:unlink.obj
 0001:0004d782       ?_deallocate@?$__crt_win32_buffer@_WU__crt_win32_buffer_internal_dynamic_resizing@@@@AAEXXZ 1004e782 f i libucrt:unlink.obj
 0001:0004d7a2       ?allocate@?$__crt_win32_buffer@_WU__crt_win32_buffer_internal_dynamic_resizing@@@@QAEHI@Z 1004e7a2 f i libucrt:unlink.obj
 0001:0004d7f0       ?allocate@__crt_win32_buffer_internal_dynamic_resizing@@SAHQAPAXIABV__crt_win32_buffer_empty_debug_info@@@Z 1004e7f0 f i libucrt:unlink.obj
 0001:0004d816       ?capacity@?$__crt_win32_buffer@_WU__crt_win32_buffer_internal_dynamic_resizing@@@@QBEIXZ 1004e816 f i libucrt:unlink.obj
 0001:0004d81a       ?data@?$__crt_win32_buffer@_WU__crt_win32_buffer_internal_dynamic_resizing@@@@QAEPA_WXZ 1004e81a f i libucrt:unlink.obj
 0001:0004d81e       ?deallocate@__crt_win32_buffer_internal_dynamic_resizing@@SAXQAXABV__crt_win32_buffer_empty_debug_info@@@Z 1004e81e f i libucrt:unlink.obj
 0001:0004d832       ?debug_info@?$__crt_win32_buffer@_WU__crt_win32_buffer_internal_dynamic_resizing@@@@QBEABV__crt_win32_buffer_empty_debug_info@@XZ 1004e832 f i libucrt:unlink.obj
 0001:0004d835       ?set_to_nullptr@?$__crt_win32_buffer@_WU__crt_win32_buffer_internal_dynamic_resizing@@@@QAEXXZ 1004e835 f i libucrt:unlink.obj
 0001:0004d851       ?size@?$__crt_win32_buffer@_WU__crt_win32_buffer_internal_dynamic_resizing@@@@QAEXI@Z 1004e851 f i libucrt:unlink.obj
 0001:0004d863       __unlink                   1004e863 f   libucrt:unlink.obj
 0001:0004d870       _remove                    1004e870 f   libucrt:unlink.obj
 0001:0004d8f4       ?has_all_of@__crt_stdio_stream@@QBE_NJ@Z 1004e8f4 f i libucrt:rewind.obj
 0001:0004d912       ?unset_flags@__crt_stdio_stream@@QBE_NJ@Z 1004e912 f i libucrt:rewind.obj
 0001:0004d945       _rewind                    1004e945 f   libucrt:rewind.obj
 0001:0004da45       _ldexp                     1004ea45 f   libucrt:ldexp.obj
 0001:0004dcc0       _strncmp                   1004ecc0 f   libucrt:strncmp.obj
 0001:0004dd56       ___libm_sse2_cos           1004ed56 f   libucrt:cos_sse2.obj
 0001:0004df5f       ___libm_sse2_sin           1004ef5f f   libucrt:sin_sse2.obj
 0001:0004e178       ??$?RE@__crt_internal_free_policy@@QBEXQBE@Z 1004f178 f i libucrt:input.obj
 0001:0004e2ce       ??$assemble_floating_point_ind@M@__crt_strtox@@YAXAAM@Z 1004f2ce f i libucrt:input.obj
 0001:0004e2e2       ??$assemble_floating_point_ind@N@__crt_strtox@@YAXAAN@Z 1004f2e2 f i libucrt:input.obj
 0001:0004e2fb       ??$assemble_floating_point_infinity@M@__crt_strtox@@YAX_NAAM@Z 1004f2fb f i libucrt:input.obj
 0001:0004e31a       ??$assemble_floating_point_infinity@N@__crt_strtox@@YAX_NAAN@Z 1004f31a f i libucrt:input.obj
 0001:0004e33e       ??$assemble_floating_point_qnan@M@__crt_strtox@@YAX_NAAM@Z 1004f33e f i libucrt:input.obj
 0001:0004e35d       ??$assemble_floating_point_qnan@N@__crt_strtox@@YAX_NAAN@Z 1004f35d f i libucrt:input.obj
 0001:0004e381       ??$assemble_floating_point_snan@M@__crt_strtox@@YAX_NAAM@Z 1004f381 f i libucrt:input.obj
 0001:0004e3a0       ??$assemble_floating_point_snan@N@__crt_strtox@@YAX_NAAN@Z 1004f3a0 f i libucrt:input.obj
 0001:0004e3c9       ??$assemble_floating_point_value_t@M@__crt_strtox@@YA?AW4SLD_STATUS@@_NH_KAAM@Z 1004f3c9 f i libucrt:input.obj
 0001:0004e405       ??$assemble_floating_point_value_t@N@__crt_strtox@@YA?AW4SLD_STATUS@@_NH_KAAN@Z 1004f405 f i libucrt:input.obj
 0001:0004e457       ??$assemble_floating_point_zero@M@__crt_strtox@@YAX_NAAM@Z 1004f457 f i libucrt:input.obj
 0001:0004e46e       ??$assemble_floating_point_zero@N@__crt_strtox@@YAX_NAAN@Z 1004f46e f i libucrt:input.obj
 0001:0004e726       ??$convert_decimal_string_to_floating_type@M@__crt_strtox@@YA?AW4SLD_STATUS@@ABUfloating_point_string@0@AAM@Z 1004f726 f i libucrt:input.obj
 0001:0004e74f       ??$convert_decimal_string_to_floating_type@N@__crt_strtox@@YA?AW4SLD_STATUS@@ABUfloating_point_string@0@AAN@Z 1004f74f f i libucrt:input.obj
 0001:0004e778       ??$convert_hexadecimal_string_to_floating_type@M@__crt_strtox@@YA?AW4SLD_STATUS@@ABUfloating_point_string@0@AAM@Z 1004f778 f i libucrt:input.obj
 0001:0004e7a1       ??$convert_hexadecimal_string_to_floating_type@N@__crt_strtox@@YA?AW4SLD_STATUS@@ABUfloating_point_string@0@AAN@Z 1004f7a1 f i libucrt:input.obj
 0001:0004e7ca       ??$fill_buffer@D@?$input_processor@DV?$stream_input_adapter@D@__crt_stdio_input@@@__crt_stdio_input@@CAXQADII@Z 1004f7ca f i libucrt:input.obj
 0001:0004e7cd       ??$fill_buffer@D@?$input_processor@DV?$string_input_adapter@D@__crt_stdio_input@@@__crt_stdio_input@@CAXQADII@Z 1004f7cd f i libucrt:input.obj
 0001:0004e7d0       ??$fill_buffer@D@?$input_processor@_WV?$stream_input_adapter@_W@__crt_stdio_input@@@__crt_stdio_input@@CAXQADII@Z 1004f7d0 f i libucrt:input.obj
 0001:0004e7d3       ??$fill_buffer@D@?$input_processor@_WV?$string_input_adapter@_W@__crt_stdio_input@@@__crt_stdio_input@@CAXQADII@Z 1004f7d3 f i libucrt:input.obj
 0001:0004e7d6       ??$fill_buffer@_W@?$input_processor@DV?$stream_input_adapter@D@__crt_stdio_input@@@__crt_stdio_input@@CAXQA_WII@Z 1004f7d6 f i libucrt:input.obj
 0001:0004e7d9       ??$fill_buffer@_W@?$input_processor@DV?$string_input_adapter@D@__crt_stdio_input@@@__crt_stdio_input@@CAXQA_WII@Z 1004f7d9 f i libucrt:input.obj
 0001:0004e7dc       ??$fill_buffer@_W@?$input_processor@_WV?$stream_input_adapter@_W@__crt_stdio_input@@@__crt_stdio_input@@CAXQA_WII@Z 1004f7dc f i libucrt:input.obj
 0001:0004e7df       ??$fill_buffer@_W@?$input_processor@_WV?$string_input_adapter@_W@__crt_stdio_input@@@__crt_stdio_input@@CAXQA_WII@Z 1004f7df f i libucrt:input.obj
 0001:0004e7e2       ??$getc_nolock@PAU_iobuf@@@?$__crt_char_traits@D@@SAH$$QAPAU_iobuf@@@Z 1004f7e2 f i libucrt:input.obj
 0001:0004e7f8       ??$getc_nolock@PAU_iobuf@@@?$__crt_char_traits@_W@@SAG$$QAPAU_iobuf@@@Z 1004f7f8 f i libucrt:input.obj
 0001:0004e80e       ??$is_overflow_condition@_K@__crt_strtox@@YA_NI_K@Z 1004f80e f i libucrt:input.obj
 0001:0004e85f       ??$istspace@ABE@?$__crt_char_traits@D@@SAHABE@Z 1004f85f f i libucrt:input.obj
 0001:0004e878       ??$istspace@AB_W@?$__crt_char_traits@_W@@SAHAB_W@Z 1004f878 f i libucrt:input.obj
 0001:0004e894       ??$make_input_adapter_character_source@V?$stream_input_adapter@D@__crt_stdio_input@@@__crt_strtox@@YA?AV?$input_adapter_character_source@V?$stream_input_adapter@D@__crt_stdio_input@@@0@QAV?$stream_input_adapter@D@__crt_stdio_input@@_KQA_N@Z 1004f894 f i libucrt:input.obj
 0001:0004e8b9       ??$make_input_adapter_character_source@V?$stream_input_adapter@_W@__crt_stdio_input@@@__crt_strtox@@YA?AV?$input_adapter_character_source@V?$stream_input_adapter@_W@__crt_stdio_input@@@0@QAV?$stream_input_adapter@_W@__crt_stdio_input@@_KQA_N@Z 1004f8b9 f i libucrt:input.obj
 0001:0004e8de       ??$make_input_adapter_character_source@V?$string_input_adapter@D@__crt_stdio_input@@@__crt_strtox@@YA?AV?$input_adapter_character_source@V?$string_input_adapter@D@__crt_stdio_input@@@0@QAV?$string_input_adapter@D@__crt_stdio_input@@_KQA_N@Z 1004f8de f i libucrt:input.obj
 0001:0004e903       ??$make_input_adapter_character_source@V?$string_input_adapter@_W@__crt_stdio_input@@@__crt_strtox@@YA?AV?$input_adapter_character_source@V?$string_input_adapter@_W@__crt_stdio_input@@@0@QAV?$string_input_adapter@_W@__crt_stdio_input@@_KQA_N@Z 1004f903 f i libucrt:input.obj
 0001:0004e928       ??$parse_floating_point@V?$input_adapter_character_source@V?$stream_input_adapter@D@__crt_stdio_input@@@__crt_strtox@@M@__crt_strtox@@YA?AW4SLD_STATUS@@QAU__crt_locale_pointers@@V?$input_adapter_character_source@V?$stream_input_adapter@D@__crt_stdio_input@@@0@QAM@Z 1004f928 f i libucrt:input.obj
 0001:0004e9bf       ??$parse_floating_point@V?$input_adapter_character_source@V?$stream_input_adapter@D@__crt_stdio_input@@@__crt_strtox@@N@__crt_strtox@@YA?AW4SLD_STATUS@@QAU__crt_locale_pointers@@V?$input_adapter_character_source@V?$stream_input_adapter@D@__crt_stdio_input@@@0@QAN@Z 1004f9bf f i libucrt:input.obj
 0001:0004ea56       ??$parse_floating_point@V?$input_adapter_character_source@V?$stream_input_adapter@_W@__crt_stdio_input@@@__crt_strtox@@M@__crt_strtox@@YA?AW4SLD_STATUS@@QAU__crt_locale_pointers@@V?$input_adapter_character_source@V?$stream_input_adapter@_W@__crt_stdio_input@@@0@QAM@Z 1004fa56 f i libucrt:input.obj
 0001:0004eaed       ??$parse_floating_point@V?$input_adapter_character_source@V?$stream_input_adapter@_W@__crt_stdio_input@@@__crt_strtox@@N@__crt_strtox@@YA?AW4SLD_STATUS@@QAU__crt_locale_pointers@@V?$input_adapter_character_source@V?$stream_input_adapter@_W@__crt_stdio_input@@@0@QAN@Z 1004faed f i libucrt:input.obj
 0001:0004eb84       ??$parse_floating_point@V?$input_adapter_character_source@V?$string_input_adapter@D@__crt_stdio_input@@@__crt_strtox@@M@__crt_strtox@@YA?AW4SLD_STATUS@@QAU__crt_locale_pointers@@V?$input_adapter_character_source@V?$string_input_adapter@D@__crt_stdio_input@@@0@QAM@Z 1004fb84 f i libucrt:input.obj
 0001:0004ec1b       ??$parse_floating_point@V?$input_adapter_character_source@V?$string_input_adapter@D@__crt_stdio_input@@@__crt_strtox@@N@__crt_strtox@@YA?AW4SLD_STATUS@@QAU__crt_locale_pointers@@V?$input_adapter_character_source@V?$string_input_adapter@D@__crt_stdio_input@@@0@QAN@Z 1004fc1b f i libucrt:input.obj
 0001:0004ecb2       ??$parse_floating_point@V?$input_adapter_character_source@V?$string_input_adapter@_W@__crt_stdio_input@@@__crt_strtox@@M@__crt_strtox@@YA?AW4SLD_STATUS@@QAU__crt_locale_pointers@@V?$input_adapter_character_source@V?$string_input_adapter@_W@__crt_stdio_input@@@0@QAM@Z 1004fcb2 f i libucrt:input.obj
 0001:0004ed49       ??$parse_floating_point@V?$input_adapter_character_source@V?$string_input_adapter@_W@__crt_stdio_input@@@__crt_strtox@@N@__crt_strtox@@YA?AW4SLD_STATUS@@QAU__crt_locale_pointers@@V?$input_adapter_character_source@V?$string_input_adapter@_W@__crt_stdio_input@@@0@QAN@Z 1004fd49 f i libucrt:input.obj
 0001:0004ede0       ??$parse_floating_point_from_source@V?$input_adapter_character_source@V?$stream_input_adapter@D@__crt_stdio_input@@@__crt_strtox@@@__crt_strtox@@YA?AW4floating_point_parse_result@0@QAU__crt_locale_pointers@@AAV?$input_adapter_character_source@V?$stream_input_adapter@D@__crt_stdio_input@@@0@AAUfloating_point_string@0@@Z 1004fde0 f i libucrt:input.obj
 0001:0004f354       ??$parse_floating_point_from_source@V?$input_adapter_character_source@V?$stream_input_adapter@_W@__crt_stdio_input@@@__crt_strtox@@@__crt_strtox@@YA?AW4floating_point_parse_result@0@QAU__crt_locale_pointers@@AAV?$input_adapter_character_source@V?$stream_input_adapter@_W@__crt_stdio_input@@@0@AAUfloating_point_string@0@@Z 10050354 f i libucrt:input.obj
 0001:00050256       ??$parse_floating_point_from_source@V?$input_adapter_character_source@V?$string_input_adapter@D@__crt_stdio_input@@@__crt_strtox@@@__crt_strtox@@YA?AW4floating_point_parse_result@0@QAU__crt_locale_pointers@@AAV?$input_adapter_character_source@V?$string_input_adapter@D@__crt_stdio_input@@@0@AAUfloating_point_string@0@@Z 10051256 f i libucrt:input.obj
 0001:000507ca       ??$parse_floating_point_from_source@V?$input_adapter_character_source@V?$string_input_adapter@_W@__crt_stdio_input@@@__crt_strtox@@@__crt_strtox@@YA?AW4floating_point_parse_result@0@QAU__crt_locale_pointers@@AAV?$input_adapter_character_source@V?$string_input_adapter@_W@__crt_stdio_input@@@0@AAUfloating_point_string@0@@Z 100517ca f i libucrt:input.obj
 0001:000516cc       ??$parse_floating_point_possible_infinity@DV?$input_adapter_character_source@V?$stream_input_adapter@D@__crt_stdio_input@@@__crt_strtox@@_K@__crt_strtox@@YA?AW4floating_point_parse_result@0@AADAAV?$input_adapter_character_source@V?$stream_input_adapter@D@__crt_stdio_input@@@0@_K@Z 100526cc f i libucrt:input.obj
 0001:000517ba       ??$parse_floating_point_possible_infinity@DV?$input_adapter_character_source@V?$string_input_adapter@D@__crt_stdio_input@@@__crt_strtox@@_K@__crt_strtox@@YA?AW4floating_point_parse_result@0@AADAAV?$input_adapter_character_source@V?$string_input_adapter@D@__crt_stdio_input@@@0@_K@Z 100527ba f i libucrt:input.obj
 0001:000518a8       ??$parse_floating_point_possible_infinity@_WV?$input_adapter_character_source@V?$stream_input_adapter@_W@__crt_stdio_input@@@__crt_strtox@@_K@__crt_strtox@@YA?AW4floating_point_parse_result@0@AA_WAAV?$input_adapter_character_source@V?$stream_input_adapter@_W@__crt_stdio_input@@@0@_K@Z 100528a8 f i libucrt:input.obj
 0001:000519a8       ??$parse_floating_point_possible_infinity@_WV?$input_adapter_character_source@V?$string_input_adapter@_W@__crt_stdio_input@@@__crt_strtox@@_K@__crt_strtox@@YA?AW4floating_point_parse_result@0@AA_WAAV?$input_adapter_character_source@V?$string_input_adapter@_W@__crt_stdio_input@@@0@_K@Z 100529a8 f i libucrt:input.obj
 0001:00051aa8       ??$parse_floating_point_possible_nan@DV?$input_adapter_character_source@V?$stream_input_adapter@D@__crt_stdio_input@@@__crt_strtox@@_K@__crt_strtox@@YA?AW4floating_point_parse_result@0@AADAAV?$input_adapter_character_source@V?$stream_input_adapter@D@__crt_stdio_input@@@0@_K@Z 10052aa8 f i libucrt:input.obj
 0001:00051c09       ??$parse_floating_point_possible_nan@DV?$input_adapter_character_source@V?$string_input_adapter@D@__crt_stdio_input@@@__crt_strtox@@_K@__crt_strtox@@YA?AW4floating_point_parse_result@0@AADAAV?$input_adapter_character_source@V?$string_input_adapter@D@__crt_stdio_input@@@0@_K@Z 10052c09 f i libucrt:input.obj
 0001:00051d6a       ??$parse_floating_point_possible_nan@_WV?$input_adapter_character_source@V?$stream_input_adapter@_W@__crt_stdio_input@@@__crt_strtox@@_K@__crt_strtox@@YA?AW4floating_point_parse_result@0@AA_WAAV?$input_adapter_character_source@V?$stream_input_adapter@_W@__crt_stdio_input@@@0@_K@Z 10052d6a f i libucrt:input.obj
 0001:00051ee7       ??$parse_floating_point_possible_nan@_WV?$input_adapter_character_source@V?$string_input_adapter@_W@__crt_stdio_input@@@__crt_strtox@@_K@__crt_strtox@@YA?AW4floating_point_parse_result@0@AA_WAAV?$input_adapter_character_source@V?$string_input_adapter@_W@__crt_stdio_input@@@0@_K@Z 10052ee7 f i libucrt:input.obj
 0001:00052064       ??$parse_floating_point_possible_nan_is_ind@DV?$input_adapter_character_source@V?$stream_input_adapter@D@__crt_stdio_input@@@__crt_strtox@@@__crt_strtox@@YA_NAADAAV?$input_adapter_character_source@V?$stream_input_adapter@D@__crt_stdio_input@@@0@@Z 10053064 f i libucrt:input.obj
 0001:000520ac       ??$parse_floating_point_possible_nan_is_ind@DV?$input_adapter_character_source@V?$string_input_adapter@D@__crt_stdio_input@@@__crt_strtox@@@__crt_strtox@@YA_NAADAAV?$input_adapter_character_source@V?$string_input_adapter@D@__crt_stdio_input@@@0@@Z 100530ac f i libucrt:input.obj
 0001:000520f4       ??$parse_floating_point_possible_nan_is_ind@_WV?$input_adapter_character_source@V?$stream_input_adapter@_W@__crt_stdio_input@@@__crt_strtox@@@__crt_strtox@@YA_NAA_WAAV?$input_adapter_character_source@V?$stream_input_adapter@_W@__crt_stdio_input@@@0@@Z 100530f4 f i libucrt:input.obj
 0001:00052144       ??$parse_floating_point_possible_nan_is_ind@_WV?$input_adapter_character_source@V?$string_input_adapter@_W@__crt_stdio_input@@@__crt_strtox@@@__crt_strtox@@YA_NAA_WAAV?$input_adapter_character_source@V?$string_input_adapter@_W@__crt_stdio_input@@@0@@Z 10053144 f i libucrt:input.obj
 0001:00052194       ??$parse_floating_point_possible_nan_is_snan@DV?$input_adapter_character_source@V?$stream_input_adapter@D@__crt_stdio_input@@@__crt_strtox@@@__crt_strtox@@YA_NAADAAV?$input_adapter_character_source@V?$stream_input_adapter@D@__crt_stdio_input@@@0@@Z 10053194 f i libucrt:input.obj
 0001:000521dc       ??$parse_floating_point_possible_nan_is_snan@DV?$input_adapter_character_source@V?$string_input_adapter@D@__crt_stdio_input@@@__crt_strtox@@@__crt_strtox@@YA_NAADAAV?$input_adapter_character_source@V?$string_input_adapter@D@__crt_stdio_input@@@0@@Z 100531dc f i libucrt:input.obj
 0001:00052224       ??$parse_floating_point_possible_nan_is_snan@_WV?$input_adapter_character_source@V?$stream_input_adapter@_W@__crt_stdio_input@@@__crt_strtox@@@__crt_strtox@@YA_NAA_WAAV?$input_adapter_character_source@V?$stream_input_adapter@_W@__crt_stdio_input@@@0@@Z 10053224 f i libucrt:input.obj
 0001:00052274       ??$parse_floating_point_possible_nan_is_snan@_WV?$input_adapter_character_source@V?$string_input_adapter@_W@__crt_stdio_input@@@__crt_strtox@@@__crt_strtox@@YA_NAA_WAAV?$input_adapter_character_source@V?$string_input_adapter@_W@__crt_stdio_input@@@0@@Z 10053274 f i libucrt:input.obj
 0001:000522c4       ??$parse_floating_point_write_result@M@__crt_strtox@@YA?AW4SLD_STATUS@@W4floating_point_parse_result@0@ABUfloating_point_string@0@QAM@Z 100532c4 f i libucrt:input.obj
 0001:0005248b       ??$parse_floating_point_write_result@N@__crt_strtox@@YA?AW4SLD_STATUS@@W4floating_point_parse_result@0@ABUfloating_point_string@0@QAN@Z 1005348b f i libucrt:input.obj
 0001:000525f8       ??$parse_integer@_KV?$input_adapter_character_source@V?$stream_input_adapter@D@__crt_stdio_input@@@__crt_strtox@@@__crt_strtox@@YA_KQAU__crt_locale_pointers@@V?$input_adapter_character_source@V?$stream_input_adapter@D@__crt_stdio_input@@@0@H_N@Z 100535f8 f i libucrt:input.obj
 0001:00052965       ??$parse_integer@_KV?$input_adapter_character_source@V?$stream_input_adapter@_W@__crt_stdio_input@@@__crt_strtox@@@__crt_strtox@@YA_KQAU__crt_locale_pointers@@V?$input_adapter_character_source@V?$stream_input_adapter@_W@__crt_stdio_input@@@0@H_N@Z 10053965 f i libucrt:input.obj
 0001:000530d8       ??$parse_integer@_KV?$input_adapter_character_source@V?$string_input_adapter@D@__crt_stdio_input@@@__crt_strtox@@@__crt_strtox@@YA_KQAU__crt_locale_pointers@@V?$input_adapter_character_source@V?$string_input_adapter@D@__crt_stdio_input@@@0@H_N@Z 100540d8 f i libucrt:input.obj
 0001:00053445       ??$parse_integer@_KV?$input_adapter_character_source@V?$string_input_adapter@_W@__crt_stdio_input@@@__crt_strtox@@@__crt_strtox@@YA_KQAU__crt_locale_pointers@@V?$input_adapter_character_source@V?$string_input_adapter@_W@__crt_stdio_input@@@0@H_N@Z 10054445 f i libucrt:input.obj
 0001:00053bb8       ??$parse_next_characters_from_source@DV?$input_adapter_character_source@V?$stream_input_adapter@D@__crt_stdio_input@@@__crt_strtox@@@__crt_strtox@@YA_NQBD0IAADAAV?$input_adapter_character_source@V?$stream_input_adapter@D@__crt_stdio_input@@@0@@Z 10054bb8 f i libucrt:input.obj
 0001:00053c0d       ??$parse_next_characters_from_source@DV?$input_adapter_character_source@V?$string_input_adapter@D@__crt_stdio_input@@@__crt_strtox@@@__crt_strtox@@YA_NQBD0IAADAAV?$input_adapter_character_source@V?$string_input_adapter@D@__crt_stdio_input@@@0@@Z 10054c0d f i libucrt:input.obj
 0001:00053c62       ??$parse_next_characters_from_source@_WV?$input_adapter_character_source@V?$stream_input_adapter@_W@__crt_stdio_input@@@__crt_strtox@@@__crt_strtox@@YA_NQB_W0IAA_WAAV?$input_adapter_character_source@V?$stream_input_adapter@_W@__crt_stdio_input@@@0@@Z 10054c62 f i libucrt:input.obj
 0001:00053cbe       ??$parse_next_characters_from_source@_WV?$input_adapter_character_source@V?$string_input_adapter@_W@__crt_stdio_input@@@__crt_strtox@@@__crt_strtox@@YA_NQB_W0IAA_WAAV?$input_adapter_character_source@V?$string_input_adapter@_W@__crt_stdio_input@@@0@@Z 10054cbe f i libucrt:input.obj
 0001:00053d1a       ??$process_floating_point_specifier_t@M@?$input_processor@DV?$stream_input_adapter@D@__crt_stdio_input@@@__crt_stdio_input@@AAE_NXZ 10054d1a f i libucrt:input.obj
 0001:00053d99       ??$process_floating_point_specifier_t@M@?$input_processor@DV?$string_input_adapter@D@__crt_stdio_input@@@__crt_stdio_input@@AAE_NXZ 10054d99 f i libucrt:input.obj
 0001:00053e18       ??$process_floating_point_specifier_t@M@?$input_processor@_WV?$stream_input_adapter@_W@__crt_stdio_input@@@__crt_stdio_input@@AAE_NXZ 10054e18 f i libucrt:input.obj
 0001:00053e97       ??$process_floating_point_specifier_t@M@?$input_processor@_WV?$string_input_adapter@_W@__crt_stdio_input@@@__crt_stdio_input@@AAE_NXZ 10054e97 f i libucrt:input.obj
 0001:00053f16       ??$process_floating_point_specifier_t@N@?$input_processor@DV?$stream_input_adapter@D@__crt_stdio_input@@@__crt_stdio_input@@AAE_NXZ 10054f16 f i libucrt:input.obj
 0001:00053f95       ??$process_floating_point_specifier_t@N@?$input_processor@DV?$string_input_adapter@D@__crt_stdio_input@@@__crt_stdio_input@@AAE_NXZ 10054f95 f i libucrt:input.obj
 0001:00054014       ??$process_floating_point_specifier_t@N@?$input_processor@_WV?$stream_input_adapter@_W@__crt_stdio_input@@@__crt_stdio_input@@AAE_NXZ 10055014 f i libucrt:input.obj
 0001:00054093       ??$process_floating_point_specifier_t@N@?$input_processor@_WV?$string_input_adapter@_W@__crt_stdio_input@@@__crt_stdio_input@@AAE_NXZ 10055093 f i libucrt:input.obj
 0001:00054112       ??$process_string_specifier_tchar@D@?$input_processor@DV?$stream_input_adapter@D@__crt_stdio_input@@@__crt_stdio_input@@AAE_NW4conversion_mode@1@D@Z 10055112 f i libucrt:input.obj
 0001:000542df       ??$process_string_specifier_tchar@D@?$input_processor@DV?$string_input_adapter@D@__crt_stdio_input@@@__crt_stdio_input@@AAE_NW4conversion_mode@1@D@Z 100552df f i libucrt:input.obj
 0001:00054493       ??$process_string_specifier_tchar@D@?$input_processor@_WV?$stream_input_adapter@_W@__crt_stdio_input@@@__crt_stdio_input@@AAE_NW4conversion_mode@1@D@Z 10055493 f i libucrt:input.obj
 0001:00054652       ??$process_string_specifier_tchar@D@?$input_processor@_WV?$string_input_adapter@_W@__crt_stdio_input@@@__crt_stdio_input@@AAE_NW4conversion_mode@1@D@Z 10055652 f i libucrt:input.obj
 0001:00054811       ??$process_string_specifier_tchar@_W@?$input_processor@DV?$stream_input_adapter@D@__crt_stdio_input@@@__crt_stdio_input@@AAE_NW4conversion_mode@1@_W@Z 10055811 f i libucrt:input.obj
 0001:000549ea       ??$process_string_specifier_tchar@_W@?$input_processor@DV?$string_input_adapter@D@__crt_stdio_input@@@__crt_stdio_input@@AAE_NW4conversion_mode@1@_W@Z 100559ea f i libucrt:input.obj
 0001:00054baa       ??$process_string_specifier_tchar@_W@?$input_processor@_WV?$stream_input_adapter@_W@__crt_stdio_input@@@__crt_stdio_input@@AAE_NW4conversion_mode@1@_W@Z 10055baa f i libucrt:input.obj
 0001:00054d6a       ??$process_string_specifier_tchar@_W@?$input_processor@_WV?$string_input_adapter@_W@__crt_stdio_input@@@__crt_stdio_input@@AAE_NW4conversion_mode@1@_W@Z 10055d6a f i libucrt:input.obj
 0001:00054f2a       ??$reset_buffer@D@?$input_processor@DV?$stream_input_adapter@D@__crt_stdio_input@@@__crt_stdio_input@@CAXQADI@Z 10055f2a f i libucrt:input.obj
 0001:00054f41       ??$reset_buffer@D@?$input_processor@DV?$string_input_adapter@D@__crt_stdio_input@@@__crt_stdio_input@@CAXQADI@Z 10055f41 f i libucrt:input.obj
 0001:00054f58       ??$reset_buffer@D@?$input_processor@_WV?$stream_input_adapter@_W@__crt_stdio_input@@@__crt_stdio_input@@CAXQADI@Z 10055f58 f i libucrt:input.obj
 0001:00054f6f       ??$reset_buffer@D@?$input_processor@_WV?$string_input_adapter@_W@__crt_stdio_input@@@__crt_stdio_input@@CAXQADI@Z 10055f6f f i libucrt:input.obj
 0001:00054f86       ??$reset_buffer@_W@?$input_processor@DV?$stream_input_adapter@D@__crt_stdio_input@@@__crt_stdio_input@@CAXQA_WI@Z 10055f86 f i libucrt:input.obj
 0001:00054fa0       ??$reset_buffer@_W@?$input_processor@DV?$string_input_adapter@D@__crt_stdio_input@@@__crt_stdio_input@@CAXQA_WI@Z 10055fa0 f i libucrt:input.obj
 0001:00054fba       ??$reset_buffer@_W@?$input_processor@_WV?$stream_input_adapter@_W@__crt_stdio_input@@@__crt_stdio_input@@CAXQA_WI@Z 10055fba f i libucrt:input.obj
 0001:00054fd4       ??$reset_buffer@_W@?$input_processor@_WV?$string_input_adapter@_W@__crt_stdio_input@@@__crt_stdio_input@@CAXQA_WI@Z 10055fd4 f i libucrt:input.obj
 0001:00054fee       ??$skip_whitespace@Vstream_input_adapter@__crt_stdio_input@@D@__crt_stdio_input@@YAHAAV?$stream_input_adapter@D@0@QAU__crt_locale_pointers@@@Z 10055fee f i libucrt:input.obj
 0001:00055032       ??$skip_whitespace@Vstream_input_adapter@__crt_stdio_input@@_W@__crt_stdio_input@@YAGAAV?$stream_input_adapter@_W@0@QAU__crt_locale_pointers@@@Z 10056032 f i libucrt:input.obj
 0001:0005506c       ??$skip_whitespace@Vstring_input_adapter@__crt_stdio_input@@D@__crt_stdio_input@@YAHAAV?$string_input_adapter@D@0@QAU__crt_locale_pointers@@@Z 1005606c f i libucrt:input.obj
 0001:000550a6       ??$skip_whitespace@Vstring_input_adapter@__crt_stdio_input@@_W@__crt_stdio_input@@YAGAAV?$string_input_adapter@_W@0@QAU__crt_locale_pointers@@@Z 100560a6 f i libucrt:input.obj
 0001:000550e0       ??$tcsnlen@ABQBDABI@?$__crt_char_traits@D@@SAIABQBDABI@Z 100560e0 f i libucrt:input.obj
 0001:000550fe       ??$tcsnlen@ABQB_WABI@?$__crt_char_traits@_W@@SAIABQB_WABI@Z 100560fe f i libucrt:input.obj
 0001:0005511c       ??$tcstoull@AAPB_WPAPA_WH@?$__crt_char_traits@_W@@SA_KAAPB_W$$QAPAPA_W$$QAH@Z 1005611c f i libucrt:input.obj
 0001:00055141       ??$tcstoull@PBDPAPADH@?$__crt_char_traits@D@@SA_K$$QAPBD$$QAPAPAD$$QAH@Z 10056141 f i libucrt:input.obj
 0001:00055166       ??$ungettc_nolock@ABGPAU_iobuf@@@?$__crt_char_traits@_W@@SAGABG$$QAPAU_iobuf@@@Z 10056166 f i libucrt:input.obj
 0001:00055186       ??$ungettc_nolock@ABHPAU_iobuf@@@?$__crt_char_traits@D@@SAHABH$$QAPAU_iobuf@@@Z 10056186 f i libucrt:input.obj
 0001:000551a4       ??$write_floating_point@M@?$input_processor@DV?$stream_input_adapter@D@__crt_stdio_input@@@__crt_stdio_input@@AAE_NABM@Z 100561a4 f i libucrt:input.obj
 0001:000551e5       ??$write_floating_point@M@?$input_processor@DV?$string_input_adapter@D@__crt_stdio_input@@@__crt_stdio_input@@AAE_NABM@Z 100561e5 f i libucrt:input.obj
 0001:00055226       ??$write_floating_point@M@?$input_processor@_WV?$stream_input_adapter@_W@__crt_stdio_input@@@__crt_stdio_input@@AAE_NABM@Z 10056226 f i libucrt:input.obj
 0001:00055267       ??$write_floating_point@M@?$input_processor@_WV?$string_input_adapter@_W@__crt_stdio_input@@@__crt_stdio_input@@AAE_NABM@Z 10056267 f i libucrt:input.obj
 0001:000552a8       ??$write_floating_point@N@?$input_processor@DV?$stream_input_adapter@D@__crt_stdio_input@@@__crt_stdio_input@@AAE_NABN@Z 100562a8 f i libucrt:input.obj
 0001:000552f0       ??$write_floating_point@N@?$input_processor@DV?$string_input_adapter@D@__crt_stdio_input@@@__crt_stdio_input@@AAE_NABN@Z 100562f0 f i libucrt:input.obj
 0001:00055338       ??$write_floating_point@N@?$input_processor@_WV?$stream_input_adapter@_W@__crt_stdio_input@@@__crt_stdio_input@@AAE_NABN@Z 10056338 f i libucrt:input.obj
 0001:00055380       ??$write_floating_point@N@?$input_processor@_WV?$string_input_adapter@_W@__crt_stdio_input@@@__crt_stdio_input@@AAE_NABN@Z 10056380 f i libucrt:input.obj
 0001:00055628       ??0?$__crt_unique_heap_ptr@EU__crt_internal_free_policy@@@@QAE@QAE@Z 10056628 f i libucrt:input.obj
 0001:0005563c       ??0?$format_string_parser@D@__crt_stdio_input@@QAE@_KQBE@Z 1005663c f i libucrt:input.obj
 0001:00055698       ??0?$format_string_parser@_W@__crt_stdio_input@@QAE@_KQB_W@Z 10056698 f i libucrt:input.obj
 0001:000556e5       ??0?$input_adapter_character_source@V?$stream_input_adapter@D@__crt_stdio_input@@@__crt_strtox@@QAE@QAV?$stream_input_adapter@D@__crt_stdio_input@@_KQA_N@Z 100566e5 f i libucrt:input.obj
 0001:00055722       ??0?$input_adapter_character_source@V?$stream_input_adapter@_W@__crt_stdio_input@@@__crt_strtox@@QAE@QAV?$stream_input_adapter@_W@__crt_stdio_input@@_KQA_N@Z 10056722 f i libucrt:input.obj
 0001:0005575f       ??0?$input_adapter_character_source@V?$string_input_adapter@D@__crt_stdio_input@@@__crt_strtox@@QAE@QAV?$string_input_adapter@D@__crt_stdio_input@@_KQA_N@Z 1005675f f i libucrt:input.obj
 0001:0005579c       ??0?$input_adapter_character_source@V?$string_input_adapter@_W@__crt_stdio_input@@@__crt_strtox@@QAE@QAV?$string_input_adapter@_W@__crt_stdio_input@@_KQA_N@Z 1005679c f i libucrt:input.obj
 0001:000557d9       ??0?$input_processor@DV?$stream_input_adapter@D@__crt_stdio_input@@@__crt_stdio_input@@QAE@ABV?$stream_input_adapter@D@1@_KQBDQAU__crt_locale_pointers@@QAD@Z 100567d9 f i libucrt:input.obj
 0001:00055834       ??0?$input_processor@DV?$string_input_adapter@D@__crt_stdio_input@@@__crt_stdio_input@@QAE@ABV?$string_input_adapter@D@1@_KQBDQAU__crt_locale_pointers@@QAD@Z 10056834 f i libucrt:input.obj
 0001:00055889       ??0?$input_processor@_WV?$stream_input_adapter@_W@__crt_stdio_input@@@__crt_stdio_input@@QAE@ABV?$stream_input_adapter@_W@1@_KQB_WQAU__crt_locale_pointers@@QAD@Z 10056889 f i libucrt:input.obj
 0001:000558e4       ??0?$input_processor@_WV?$string_input_adapter@_W@__crt_stdio_input@@@__crt_stdio_input@@QAE@ABV?$string_input_adapter@_W@1@_KQB_WQAU__crt_locale_pointers@@QAD@Z 100568e4 f i libucrt:input.obj
 0001:00055939       ??0?$scanset_buffer@E@__crt_stdio_input@@QAE@XZ 10056939 f i libucrt:input.obj
 0001:0005594f       ??0?$scanset_buffer@_W@__crt_stdio_input@@QAE@XZ 1005694f f i libucrt:input.obj
 0001:00055955       ??0?$scanset_storage@$00@__crt_stdio_input@@QAE@XZ 10056955 f i libucrt:input.obj
 0001:0005596b       ??0?$scanset_storage@$01@__crt_stdio_input@@QAE@XZ 1005696b f i libucrt:input.obj
 0001:00055971       ??0?$stream_input_adapter@D@__crt_stdio_input@@QAE@QAU_iobuf@@@Z 10056971 f i libucrt:input.obj
 0001:0005598a       ??0?$stream_input_adapter@_W@__crt_stdio_input@@QAE@QAU_iobuf@@@Z 1005698a f i libucrt:input.obj
 0001:000559a3       ??0?$string_input_adapter@D@__crt_stdio_input@@QAE@QBDI@Z 100569a3 f i libucrt:input.obj
 0001:000559c4       ??0?$string_input_adapter@_W@__crt_stdio_input@@QAE@QB_WI@Z 100569c4 f i libucrt:input.obj
 0001:000559f0       ??0big_integer@__crt_strtox@@QAE@ABU01@@Z 100569f0 f i libucrt:input.obj
 0001:00055a30       ??0big_integer@__crt_strtox@@QAE@XZ 10056a30 f i libucrt:input.obj
 0001:00055a3b       ??0floating_point_value@__crt_strtox@@QAE@QAM@Z 10056a3b f i libucrt:input.obj
 0001:00055a54       ??0floating_point_value@__crt_strtox@@QAE@QAN@Z 10056a54 f i libucrt:input.obj
 0001:00055a6d       ??1?$__crt_unique_heap_ptr@EU__crt_internal_free_policy@@@@QAE@XZ 10056a6d f i libucrt:input.obj
 0001:00055a83       ??1?$format_string_parser@_W@__crt_stdio_input@@QAE@XZ 10056a83 f i libucrt:input.obj
 0001:00055a9c       ??1?$input_adapter_character_source@V?$stream_input_adapter@D@__crt_stdio_input@@@__crt_strtox@@QAE@XZ 10056a9c f i libucrt:input.obj
 0001:00055ab2       ??1?$input_adapter_character_source@V?$stream_input_adapter@_W@__crt_stdio_input@@@__crt_strtox@@QAE@XZ 10056ab2 f i libucrt:input.obj
 0001:00055ac8       ??1?$input_adapter_character_source@V?$string_input_adapter@D@__crt_stdio_input@@@__crt_strtox@@QAE@XZ 10056ac8 f i libucrt:input.obj
 0001:00055ade       ??1?$input_adapter_character_source@V?$string_input_adapter@_W@__crt_stdio_input@@@__crt_strtox@@QAE@XZ 10056ade f i libucrt:input.obj
 0001:00055af4       ??1?$input_processor@_WV?$stream_input_adapter@_W@__crt_stdio_input@@@__crt_stdio_input@@QAE@XZ 10056af4 f i libucrt:input.obj
 0001:00055b0d       ??1?$input_processor@_WV?$string_input_adapter@_W@__crt_stdio_input@@@__crt_stdio_input@@QAE@XZ 10056b0d f i libucrt:input.obj
 0001:00055b26       ??1?$scanset_buffer@_W@__crt_stdio_input@@QAE@XZ 10056b26 f i libucrt:input.obj
 0001:00055b3c       ??1?$scanset_storage@$01@__crt_stdio_input@@QAE@XZ 10056b3c f i libucrt:input.obj
 0001:00055b52       ??4?$__crt_unique_heap_ptr@EU__crt_internal_free_policy@@@@QAEAAV0@$$QAV0@@Z 10056b52 f i libucrt:input.obj
 0001:00055b80       ??4big_integer@__crt_strtox@@QAEAAU01@ABU01@@Z 10056b80 f i libucrt:input.obj
 0001:00055bbd       ??B?$__crt_unique_heap_ptr@EU__crt_internal_free_policy@@@@QBE_NXZ 10056bbd f i libucrt:input.obj
 0001:00055bd0       ??M__crt_strtox@@YA_NABUbig_integer@0@0@Z 10056bd0 f i libucrt:input.obj
 0001:00056015       ?accumulate_decimal_digits_into_big_integer@__crt_strtox@@YAXQBE0AAUbig_integer@1@@Z 10057015 f i libucrt:input.obj
 0001:000567b0       ?add@__crt_strtox@@YA_NAAUbig_integer@1@I@Z 100577b0 f i libucrt:input.obj
 0001:00056850       ?add_carry@__crt_strtox@@YAIAAIII@Z 10057850 f i libucrt:input.obj
 0001:00056880       ?add_multiply_carry@__crt_strtox@@YAIAAIIII@Z 10057880 f i libucrt:input.obj
 0001:000568ad       ?advance@?$format_string_parser@D@__crt_stdio_input@@QAE_NXZ 100578ad f i libucrt:input.obj
 0001:00056a0b       ?advance@?$format_string_parser@_W@__crt_stdio_input@@QAE_NXZ 10057a0b f i libucrt:input.obj
 0001:00056b50       ?as_double@floating_point_value@__crt_strtox@@QBEAANXZ 10057b50 f i libucrt:input.obj
 0001:00056b7e       ?as_float@floating_point_value@__crt_strtox@@QBEAAMXZ 10057b7e f i libucrt:input.obj
 0001:00056bac       ?assemble_floating_point_infinity@__crt_strtox@@YAX_NABVfloating_point_value@1@@Z 10057bac f i libucrt:input.obj
 0001:00056bfc       ?assemble_floating_point_value@__crt_strtox@@YA?AW4SLD_STATUS@@_KH_N1ABVfloating_point_value@1@@Z 10057bfc f i libucrt:input.obj
 0001:00057017       ?assemble_floating_point_value_from_big_integer@__crt_strtox@@YA?AW4SLD_STATUS@@ABUbig_integer@1@I_N1ABVfloating_point_value@1@@Z 10058017 f i libucrt:input.obj
 0001:00057210       ?assemble_floating_point_zero@__crt_strtox@@YAX_NABVfloating_point_value@1@@Z 10058210 f i libucrt:input.obj
 0001:00057260       ?bit_scan_reverse@__crt_strtox@@YAIABUbig_integer@1@@Z 10058260 f i libucrt:input.obj
 0001:000572b0       ?bit_scan_reverse@__crt_strtox@@YAII@Z 100582b0 f i libucrt:input.obj
 0001:000572e0       ?bit_scan_reverse@__crt_strtox@@YAI_K@Z 100582e0 f i libucrt:input.obj
 0001:00057338       ?characters_read@?$stream_input_adapter@D@__crt_stdio_input@@QBEIXZ 10058338 f i libucrt:input.obj
 0001:0005733c       ?characters_read@?$stream_input_adapter@_W@__crt_stdio_input@@QBEIXZ 1005833c f i libucrt:input.obj
 0001:00057340       ?characters_read@?$string_input_adapter@D@__crt_stdio_input@@QBEIXZ 10058340 f i libucrt:input.obj
 0001:00057346       ?characters_read@?$string_input_adapter@_W@__crt_stdio_input@@QBEIXZ 10058346 f i libucrt:input.obj
 0001:00057350       ?convert_decimal_string_to_floating_type_common@__crt_strtox@@YA?AW4SLD_STATUS@@ABUfloating_point_string@1@ABVfloating_point_value@1@@Z 10058350 f i libucrt:input.obj
 0001:000597de       ?convert_hexadecimal_string_to_floating_type_common@__crt_strtox@@YA?AW4SLD_STATUS@@ABUfloating_point_string@1@ABVfloating_point_value@1@@Z 1005a7de f i libucrt:input.obj
 0001:000598b0       ?count_sequential_high_zeroes@__crt_strtox@@YAII@Z 1005a8b0 f i libucrt:input.obj
 0001:000598d1       ?data@?$scanset_storage@$00@__crt_stdio_input@@QBEPAEXZ 1005a8d1 f i libucrt:input.obj
 0001:000598d4       ?data@?$scanset_storage@$01@__crt_stdio_input@@QBEPAEXZ 1005a8d4 f i libucrt:input.obj
 0001:0005991b       ?denormal_mantissa_mask@floating_point_value@__crt_strtox@@QBE_KXZ 1005a91b f i libucrt:input.obj
 0001:00059940       ?divide@__crt_strtox@@YA_KAAUbig_integer@1@ABU21@@Z 1005a940 f i libucrt:input.obj
 0001:00059efe       ?error_code@?$format_string_parser@D@__crt_stdio_input@@QBEHXZ 1005aefe f i libucrt:input.obj
 0001:00059f02       ?error_code@?$format_string_parser@_W@__crt_stdio_input@@QBEHXZ 1005af02 f i libucrt:input.obj
 0001:00059f06       ?exponent_bias@floating_point_value@__crt_strtox@@QBEHXZ 1005af06 f i libucrt:input.obj
 0001:00059f1c       ?get@?$__crt_unique_heap_ptr@EU__crt_internal_free_policy@@@@QBEPAEXZ 1005af1c f i libucrt:input.obj
 0001:00059f1f       ?get@?$input_adapter_character_source@V?$stream_input_adapter@D@__crt_stdio_input@@@__crt_strtox@@QAEDXZ 1005af1f f i libucrt:input.obj
 0001:00059f6d       ?get@?$input_adapter_character_source@V?$stream_input_adapter@_W@__crt_stdio_input@@@__crt_strtox@@QAE_WXZ 1005af6d f i libucrt:input.obj
 0001:00059fbb       ?get@?$input_adapter_character_source@V?$string_input_adapter@D@__crt_stdio_input@@@__crt_strtox@@QAEDXZ 1005afbb f i libucrt:input.obj
 0001:00059fff       ?get@?$input_adapter_character_source@V?$string_input_adapter@_W@__crt_stdio_input@@@__crt_strtox@@QAE_WXZ 1005afff f i libucrt:input.obj
 0001:0005a04d       ?get@?$stream_input_adapter@D@__crt_stdio_input@@QAEHXZ 1005b04d f i libucrt:input.obj
 0001:0005a069       ?get@?$stream_input_adapter@_W@__crt_stdio_input@@QAEGXZ 1005b069 f i libucrt:input.obj
 0001:0005a08f       ?get@?$string_input_adapter@D@__crt_stdio_input@@QAEHXZ 1005b08f f i libucrt:input.obj
 0001:0005a0aa       ?get@?$string_input_adapter@_W@__crt_stdio_input@@QAEGXZ 1005b0aa f i libucrt:input.obj
 0001:0005a0ca       ?invert@?$scanset_buffer@E@__crt_stdio_input@@QAEXXZ 1005b0ca f i libucrt:input.obj
 0001:0005a0ef       ?invert@?$scanset_buffer@_W@__crt_stdio_input@@QAEXXZ 1005b0ef f i libucrt:input.obj
 0001:0005a128       ?is_character_allowed_in_string@?$input_processor@DV?$stream_input_adapter@D@__crt_stdio_input@@@__crt_stdio_input@@ABE_NW4conversion_mode@2@H@Z 1005b128 f i libucrt:input.obj
 0001:0005a18c       ?is_character_allowed_in_string@?$input_processor@DV?$string_input_adapter@D@__crt_stdio_input@@@__crt_stdio_input@@ABE_NW4conversion_mode@2@H@Z 1005b18c f i libucrt:input.obj
 0001:0005a1f0       ?is_character_allowed_in_string@?$input_processor@_WV?$stream_input_adapter@_W@__crt_stdio_input@@@__crt_stdio_input@@ABE_NW4conversion_mode@2@G@Z 1005b1f0 f i libucrt:input.obj
 0001:0005a24c       ?is_character_allowed_in_string@?$input_processor@_WV?$string_input_adapter@_W@__crt_stdio_input@@@__crt_stdio_input@@ABE_NW4conversion_mode@2@G@Z 1005b24c f i libucrt:input.obj
 0001:0005a2a8       ?is_digit_or_nondigit@__crt_strtox@@YA_NH@Z 1005b2a8 f i libucrt:input.obj
 0001:0005a2e0       ?is_double@floating_point_value@__crt_strtox@@QBE_NXZ 1005b2e0 f i libucrt:input.obj
 0001:0005a2e4       ?is_length_valid@__crt_stdio_input@@YA_NW4conversion_mode@1@W4length_modifier@1@@Z 1005b2e4 f i libucrt:input.obj
 0001:0005a303       ?is_space@__crt_strtox@@YA_NDQAU__crt_locale_pointers@@@Z 1005b303 f i libucrt:input.obj
 0001:0005a328       ?is_space@__crt_strtox@@YA_N_WPAU__crt_locale_pointers@@@Z 1005b328 f i libucrt:input.obj
 0001:0005a346       ?is_usable@?$scanset_buffer@E@__crt_stdio_input@@QAE_NXZ 1005b346 f i libucrt:input.obj
 0001:0005a34c       ?is_usable@?$scanset_buffer@_W@__crt_stdio_input@@QAE_NXZ 1005b34c f i libucrt:input.obj
 0001:0005a359       ?is_valid@?$__crt_unique_heap_ptr@EU__crt_internal_free_policy@@@@QBE_NXZ 1005b359 f i libucrt:input.obj
 0001:0005a360       ?kind@?$format_string_parser@D@__crt_stdio_input@@QBE?AW4format_directive_kind@2@XZ 1005b360 f i libucrt:input.obj
 0001:0005a364       ?kind@?$format_string_parser@_W@__crt_stdio_input@@QBE?AW4format_directive_kind@2@XZ 1005b364 f i libucrt:input.obj
 0001:0005a368       ?length@?$format_string_parser@D@__crt_stdio_input@@QBEIXZ 1005b368 f i libucrt:input.obj
 0001:0005a3b9       ?length@?$format_string_parser@_W@__crt_stdio_input@@QBEIXZ 1005b3b9 f i libucrt:input.obj
 0001:0005a40a       ?literal_character_lead@?$format_string_parser@D@__crt_stdio_input@@QBEEXZ 1005b40a f i libucrt:input.obj
 0001:0005a40e       ?literal_character_lead@?$format_string_parser@_W@__crt_stdio_input@@QBE_WXZ 1005b40e f i libucrt:input.obj
 0001:0005a413       ?literal_character_trail@?$format_string_parser@D@__crt_stdio_input@@QBEEXZ 1005b413 f i libucrt:input.obj
 0001:0005a420       ?make_big_integer@__crt_strtox@@YA?AUbig_integer@1@_K@Z 1005b420 f i libucrt:input.obj
 0001:0005a448       ?mantissa_bits@floating_point_value@__crt_strtox@@QBEHXZ 1005b448 f i libucrt:input.obj
 0001:0005a45c       ?maximum_binary_exponent@floating_point_value@__crt_strtox@@QBEHXZ 1005b45c f i libucrt:input.obj
 0001:0005a472       ?maximum_signed_value@__crt_strtox@@YA_J_K@Z 1005b472 f i libucrt:input.obj
 0001:0005a47d       ?minimum_binary_exponent@floating_point_value@__crt_strtox@@QBEHXZ 1005b47d f i libucrt:input.obj
 0001:0005a493       ?minimum_signed_value@__crt_strtox@@YA_J_K@Z 1005b493 f i libucrt:input.obj
 0001:0005a49d       ?mode@?$format_string_parser@D@__crt_stdio_input@@QBE?AW4conversion_mode@2@XZ 1005b49d f i libucrt:input.obj
 0001:0005a4a1       ?mode@?$format_string_parser@_W@__crt_stdio_input@@QBE?AW4conversion_mode@2@XZ 1005b4a1 f i libucrt:input.obj
 0001:0005a4b0       ?multiply@__crt_strtox@@YA_NAAUbig_integer@1@ABU21@@Z 1005b4b0 f i libucrt:input.obj
 0001:0005a8c0       ?multiply@__crt_strtox@@YA_NAAUbig_integer@1@I@Z 1005b8c0 f i libucrt:input.obj
 0001:0005a9c0       ?multiply_64_32@__crt_strtox@@YA_K_KI@Z 1005b9c0 f i libucrt:input.obj
 0001:0005a9e0       ?multiply_by_power_of_ten@__crt_strtox@@YA_NAAUbig_integer@1@I@Z 1005b9e0 f i libucrt:input.obj
 0001:0005b050       ?multiply_core@__crt_strtox@@YAIQAIII@Z 1005c050 f i libucrt:input.obj
 0001:0005b09d       ?normal_mantissa_mask@floating_point_value@__crt_strtox@@QBE_KXZ 1005c09d f i libucrt:input.obj
 0001:0005b0b9       ?parse_digit@__crt_strtox@@YAID@Z 1005c0b9 f i libucrt:input.obj
 0001:0005b101       ?parse_digit@__crt_strtox@@YAI_W@Z 1005c101 f i libucrt:input.obj
 0001:0005b357       ?process@?$input_processor@DV?$stream_input_adapter@D@__crt_stdio_input@@@__crt_stdio_input@@QAEHXZ 1005c357 f i libucrt:input.obj
 0001:0005b404       ?process@?$input_processor@DV?$string_input_adapter@D@__crt_stdio_input@@@__crt_stdio_input@@QAEHXZ 1005c404 f i libucrt:input.obj
 0001:0005b4a9       ?process@?$input_processor@_WV?$stream_input_adapter@_W@__crt_stdio_input@@@__crt_stdio_input@@QAEHXZ 1005c4a9 f i libucrt:input.obj
 0001:0005b559       ?process@?$input_processor@_WV?$string_input_adapter@_W@__crt_stdio_input@@@__crt_stdio_input@@QAEHXZ 1005c559 f i libucrt:input.obj
 0001:0005b609       ?process_character_count_specifier@?$input_processor@DV?$stream_input_adapter@D@__crt_stdio_input@@@__crt_stdio_input@@AAE_NXZ 1005c609 f i libucrt:input.obj
 0001:0005b622       ?process_character_count_specifier@?$input_processor@DV?$string_input_adapter@D@__crt_stdio_input@@@__crt_stdio_input@@AAE_NXZ 1005c622 f i libucrt:input.obj
 0001:0005b640       ?process_character_count_specifier@?$input_processor@_WV?$stream_input_adapter@_W@__crt_stdio_input@@@__crt_stdio_input@@AAE_NXZ 1005c640 f i libucrt:input.obj
 0001:0005b659       ?process_character_count_specifier@?$input_processor@_WV?$string_input_adapter@_W@__crt_stdio_input@@@__crt_stdio_input@@AAE_NXZ 1005c659 f i libucrt:input.obj
 0001:0005b679       ?process_conversion_specifier@?$input_processor@DV?$stream_input_adapter@D@__crt_stdio_input@@@__crt_stdio_input@@AAE_NXZ 1005c679 f i libucrt:input.obj
 0001:0005b70a       ?process_conversion_specifier@?$input_processor@DV?$string_input_adapter@D@__crt_stdio_input@@@__crt_stdio_input@@AAE_NXZ 1005c70a f i libucrt:input.obj
 0001:0005b79b       ?process_conversion_specifier@?$input_processor@_WV?$stream_input_adapter@_W@__crt_stdio_input@@@__crt_stdio_input@@AAE_NXZ 1005c79b f i libucrt:input.obj
 0001:0005b82c       ?process_conversion_specifier@?$input_processor@_WV?$string_input_adapter@_W@__crt_stdio_input@@@__crt_stdio_input@@AAE_NXZ 1005c82c f i libucrt:input.obj
 0001:0005b8bd       ?process_floating_point_specifier@?$input_processor@DV?$stream_input_adapter@D@__crt_stdio_input@@@__crt_stdio_input@@AAE_NXZ 1005c8bd f i libucrt:input.obj
 0001:0005b8f9       ?process_floating_point_specifier@?$input_processor@DV?$string_input_adapter@D@__crt_stdio_input@@@__crt_stdio_input@@AAE_NXZ 1005c8f9 f i libucrt:input.obj
 0001:0005b935       ?process_floating_point_specifier@?$input_processor@_WV?$stream_input_adapter@_W@__crt_stdio_input@@@__crt_stdio_input@@AAE_NXZ 1005c935 f i libucrt:input.obj
 0001:0005b971       ?process_floating_point_specifier@?$input_processor@_WV?$string_input_adapter@_W@__crt_stdio_input@@@__crt_stdio_input@@AAE_NXZ 1005c971 f i libucrt:input.obj
 0001:0005b9ad       ?process_integer_specifier@?$input_processor@DV?$stream_input_adapter@D@__crt_stdio_input@@@__crt_stdio_input@@AAE_NI_N@Z 1005c9ad f i libucrt:input.obj
 0001:0005ba27       ?process_integer_specifier@?$input_processor@DV?$string_input_adapter@D@__crt_stdio_input@@@__crt_stdio_input@@AAE_NI_N@Z 1005ca27 f i libucrt:input.obj
 0001:0005baa1       ?process_integer_specifier@?$input_processor@_WV?$stream_input_adapter@_W@__crt_stdio_input@@@__crt_stdio_input@@AAE_NI_N@Z 1005caa1 f i libucrt:input.obj
 0001:0005bb1b       ?process_integer_specifier@?$input_processor@_WV?$string_input_adapter@_W@__crt_stdio_input@@@__crt_stdio_input@@AAE_NI_N@Z 1005cb1b f i libucrt:input.obj
 0001:0005bb95       ?process_literal_character@?$input_processor@DV?$stream_input_adapter@D@__crt_stdio_input@@@__crt_stdio_input@@AAE_NXZ 1005cb95 f i libucrt:input.obj
 0001:0005bbd8       ?process_literal_character@?$input_processor@DV?$string_input_adapter@D@__crt_stdio_input@@@__crt_stdio_input@@AAE_NXZ 1005cbd8 f i libucrt:input.obj
 0001:0005bc1b       ?process_literal_character@?$input_processor@_WV?$stream_input_adapter@_W@__crt_stdio_input@@@__crt_stdio_input@@AAE_NXZ 1005cc1b f i libucrt:input.obj
 0001:0005bc5d       ?process_literal_character@?$input_processor@_WV?$string_input_adapter@_W@__crt_stdio_input@@@__crt_stdio_input@@AAE_NXZ 1005cc5d f i libucrt:input.obj
 0001:0005bc9f       ?process_literal_character_tchar@?$input_processor@DV?$stream_input_adapter@D@__crt_stdio_input@@@__crt_stdio_input@@AAE_ND@Z 1005cc9f f i libucrt:input.obj
 0001:0005bd0b       ?process_literal_character_tchar@?$input_processor@DV?$string_input_adapter@D@__crt_stdio_input@@@__crt_stdio_input@@AAE_ND@Z 1005cd0b f i libucrt:input.obj
 0001:0005bd6c       ?process_literal_character_tchar@?$input_processor@_WV?$stream_input_adapter@_W@__crt_stdio_input@@@__crt_stdio_input@@AAE_N_W@Z 1005cd6c f i libucrt:input.obj
 0001:0005bd71       ?process_literal_character_tchar@?$input_processor@_WV?$string_input_adapter@_W@__crt_stdio_input@@@__crt_stdio_input@@AAE_N_W@Z 1005cd71 f i libucrt:input.obj
 0001:0005bd76       ?process_state@?$input_processor@DV?$stream_input_adapter@D@__crt_stdio_input@@@__crt_stdio_input@@AAE_NXZ 1005cd76 f i libucrt:input.obj
 0001:0005bdc8       ?process_state@?$input_processor@DV?$string_input_adapter@D@__crt_stdio_input@@@__crt_stdio_input@@AAE_NXZ 1005cdc8 f i libucrt:input.obj
 0001:0005be1a       ?process_state@?$input_processor@_WV?$stream_input_adapter@_W@__crt_stdio_input@@@__crt_stdio_input@@AAE_NXZ 1005ce1a f i libucrt:input.obj
 0001:0005be6c       ?process_state@?$input_processor@_WV?$string_input_adapter@_W@__crt_stdio_input@@@__crt_stdio_input@@AAE_NXZ 1005ce6c f i libucrt:input.obj
 0001:0005bebe       ?process_string_specifier@?$input_processor@DV?$stream_input_adapter@D@__crt_stdio_input@@@__crt_stdio_input@@AAE_NW4conversion_mode@2@@Z 1005cebe f i libucrt:input.obj
 0001:0005bf18       ?process_string_specifier@?$input_processor@DV?$string_input_adapter@D@__crt_stdio_input@@@__crt_stdio_input@@AAE_NW4conversion_mode@2@@Z 1005cf18 f i libucrt:input.obj
 0001:0005bf72       ?process_string_specifier@?$input_processor@_WV?$stream_input_adapter@_W@__crt_stdio_input@@@__crt_stdio_input@@AAE_NW4conversion_mode@2@@Z 1005cf72 f i libucrt:input.obj
 0001:0005bfcc       ?process_string_specifier@?$input_processor@_WV?$string_input_adapter@_W@__crt_stdio_input@@@__crt_stdio_input@@AAE_NW4conversion_mode@2@@Z 1005cfcc f i libucrt:input.obj
 0001:0005c026       ?process_whitespace@?$input_processor@DV?$stream_input_adapter@D@__crt_stdio_input@@@__crt_stdio_input@@AAE_NXZ 1005d026 f i libucrt:input.obj
 0001:0005c04a       ?process_whitespace@?$input_processor@DV?$string_input_adapter@D@__crt_stdio_input@@@__crt_stdio_input@@AAE_NXZ 1005d04a f i libucrt:input.obj
 0001:0005c06e       ?process_whitespace@?$input_processor@_WV?$stream_input_adapter@_W@__crt_stdio_input@@@__crt_stdio_input@@AAE_NXZ 1005d06e f i libucrt:input.obj
 0001:0005c096       ?process_whitespace@?$input_processor@_WV?$string_input_adapter@_W@__crt_stdio_input@@@__crt_stdio_input@@AAE_NXZ 1005d096 f i libucrt:input.obj
 0001:0005c0be       ?release@?$__crt_unique_heap_ptr@EU__crt_internal_free_policy@@@@QAEXXZ 1005d0be f i libucrt:input.obj
 0001:0005c0d4       ?reset@?$scanset_buffer@E@__crt_stdio_input@@QAEXXZ 1005d0d4 f i libucrt:input.obj
 0001:0005c0ea       ?reset@?$scanset_buffer@_W@__crt_stdio_input@@QAEXXZ 1005d0ea f i libucrt:input.obj
 0001:0005c10a       ?reset_token_state@?$format_string_parser@D@__crt_stdio_input@@AAEXXZ 1005d10a f i libucrt:input.obj
 0001:0005c12d       ?reset_token_state@?$format_string_parser@_W@__crt_stdio_input@@AAEXXZ 1005d12d f i libucrt:input.obj
 0001:0005c151       ?reset_token_state_for_error@?$format_string_parser@D@__crt_stdio_input@@AAEXH@Z 1005d151 f i libucrt:input.obj
 0001:0005c185       ?reset_token_state_for_error@?$format_string_parser@_W@__crt_stdio_input@@AAEXH@Z 1005d185 f i libucrt:input.obj
 0001:0005c1ba       ?restore_state@?$input_adapter_character_source@V?$stream_input_adapter@D@__crt_stdio_input@@@__crt_strtox@@QAE_N_K@Z 1005d1ba f i libucrt:input.obj
 0001:0005c1e8       ?restore_state@?$input_adapter_character_source@V?$stream_input_adapter@_W@__crt_stdio_input@@@__crt_strtox@@QAE_N_K@Z 1005d1e8 f i libucrt:input.obj
 0001:0005c216       ?restore_state@?$input_adapter_character_source@V?$string_input_adapter@D@__crt_stdio_input@@@__crt_strtox@@QAE_N_K@Z 1005d216 f i libucrt:input.obj
 0001:0005c244       ?restore_state@?$input_adapter_character_source@V?$string_input_adapter@_W@__crt_stdio_input@@@__crt_strtox@@QAE_N_K@Z 1005d244 f i libucrt:input.obj
 0001:0005c272       ?right_shift_with_rounding@__crt_strtox@@YA_K_N_KI0@Z 1005d272 f i libucrt:input.obj
 0001:0005c38b       ?save_state@?$input_adapter_character_source@V?$stream_input_adapter@D@__crt_stdio_input@@@__crt_strtox@@QBE_KXZ 1005d38b f i libucrt:input.obj
 0001:0005c392       ?save_state@?$input_adapter_character_source@V?$stream_input_adapter@_W@__crt_stdio_input@@@__crt_strtox@@QBE_KXZ 1005d392 f i libucrt:input.obj
 0001:0005c399       ?save_state@?$input_adapter_character_source@V?$string_input_adapter@D@__crt_stdio_input@@@__crt_strtox@@QBE_KXZ 1005d399 f i libucrt:input.obj
 0001:0005c3a0       ?save_state@?$input_adapter_character_source@V?$string_input_adapter@_W@__crt_stdio_input@@@__crt_strtox@@QBE_KXZ 1005d3a0 f i libucrt:input.obj
 0001:0005c3a7       ?scan_conversion_specifier@?$format_string_parser@D@__crt_stdio_input@@AAE_NXZ 1005d3a7 f i libucrt:input.obj
 0001:0005c573       ?scan_conversion_specifier@?$format_string_parser@_W@__crt_stdio_input@@AAE_NXZ 1005d573 f i libucrt:input.obj
 0001:0005c718       ?scan_optional_assignment_suppressor@?$format_string_parser@D@__crt_stdio_input@@AAEXXZ 1005d718 f i libucrt:input.obj
 0001:0005c72d       ?scan_optional_assignment_suppressor@?$format_string_parser@_W@__crt_stdio_input@@AAEXXZ 1005d72d f i libucrt:input.obj
 0001:0005c746       ?scan_optional_field_width@?$format_string_parser@D@__crt_stdio_input@@AAE_NXZ 1005d746 f i libucrt:input.obj
 0001:0005c80a       ?scan_optional_field_width@?$format_string_parser@_W@__crt_stdio_input@@AAE_NXZ 1005d80a f i libucrt:input.obj
 0001:0005cab9       ?scan_optional_length_modifier@?$format_string_parser@D@__crt_stdio_input@@AAEXXZ 1005dab9 f i libucrt:input.obj
 0001:0005cc0b       ?scan_optional_length_modifier@?$format_string_parser@_W@__crt_stdio_input@@AAEXXZ 1005dc0b f i libucrt:input.obj
 0001:0005cd93       ?scan_optional_literal_character_trail_bytes_tchar@?$format_string_parser@D@__crt_stdio_input@@AAE_ND@Z 1005dd93 f i libucrt:input.obj
 0001:0005cdf9       ?scan_optional_literal_character_trail_bytes_tchar@?$format_string_parser@_W@__crt_stdio_input@@AAE_N_W@Z 1005ddf9 f i libucrt:input.obj
 0001:0005cdfe       ?scan_optional_wide_modifier@?$format_string_parser@D@__crt_stdio_input@@AAEXXZ 1005ddfe f i libucrt:input.obj
 0001:0005ce23       ?scan_optional_wide_modifier@?$format_string_parser@_W@__crt_stdio_input@@AAEXXZ 1005de23 f i libucrt:input.obj
 0001:0005ce57       ?scan_scanset_range@?$format_string_parser@D@__crt_stdio_input@@AAE_NXZ 1005de57 f i libucrt:input.obj
 0001:0005cfdd       ?scan_scanset_range@?$format_string_parser@_W@__crt_stdio_input@@AAE_NXZ 1005dfdd f i libucrt:input.obj
 0001:0005d19d       ?scanset@?$format_string_parser@D@__crt_stdio_input@@QBEABV?$scanset_buffer@E@2@XZ 1005e19d f i libucrt:input.obj
 0001:0005d1a1       ?scanset@?$format_string_parser@_W@__crt_stdio_input@@QBEABV?$scanset_buffer@_W@2@XZ 1005e1a1 f i libucrt:input.obj
 0001:0005d1a5       ?secure_buffers@?$input_processor@DV?$stream_input_adapter@D@__crt_stdio_input@@@__crt_stdio_input@@ABE_NXZ 1005e1a5 f i libucrt:input.obj
 0001:0005d1ba       ?secure_buffers@?$input_processor@DV?$string_input_adapter@D@__crt_stdio_input@@@__crt_stdio_input@@ABE_NXZ 1005e1ba f i libucrt:input.obj
 0001:0005d1cf       ?secure_buffers@?$input_processor@_WV?$stream_input_adapter@_W@__crt_stdio_input@@@__crt_stdio_input@@ABE_NXZ 1005e1cf f i libucrt:input.obj
 0001:0005d1e4       ?secure_buffers@?$input_processor@_WV?$string_input_adapter@_W@__crt_stdio_input@@@__crt_stdio_input@@ABE_NXZ 1005e1e4 f i libucrt:input.obj
 0001:0005d1f9       ?set@?$scanset_buffer@E@__crt_stdio_input@@QAEXE@Z 1005e1f9 f i libucrt:input.obj
 0001:0005d222       ?set@?$scanset_buffer@_W@__crt_stdio_input@@QAEX_W@Z 1005e222 f i libucrt:input.obj
 0001:0005d251       ?set_wide_for_c_s_or_scanset@?$format_string_parser@D@__crt_stdio_input@@AAEXXZ 1005e251 f i libucrt:input.obj
 0001:0005d279       ?set_wide_for_c_s_or_scanset@?$format_string_parser@_W@__crt_stdio_input@@AAEXXZ 1005e279 f i libucrt:input.obj
 0001:0005d2b0       ?shift_left@__crt_strtox@@YA_NAAUbig_integer@1@I@Z 1005e2b0 f i libucrt:input.obj
 0001:0005d45b       ?should_default_to_wide@?$format_string_parser@D@__crt_stdio_input@@AAE_NE@Z 1005e45b f i libucrt:input.obj
 0001:0005d47b       ?should_default_to_wide@?$format_string_parser@_W@__crt_stdio_input@@AAE_N_W@Z 1005e47b f i libucrt:input.obj
 0001:0005d4bc       ?should_round_up@__crt_strtox@@YA_N_N000@Z 1005e4bc f i libucrt:input.obj
 0001:0005d51c       ?size@?$scanset_storage@$00@__crt_stdio_input@@QBEIXZ 1005e51c f i libucrt:input.obj
 0001:0005d520       ?size@?$scanset_storage@$01@__crt_stdio_input@@QBEIXZ 1005e520 f i libucrt:input.obj
 0001:0005d526       ?suppress_assignment@?$format_string_parser@D@__crt_stdio_input@@QBE_NXZ 1005e526 f i libucrt:input.obj
 0001:0005d52a       ?suppress_assignment@?$format_string_parser@_W@__crt_stdio_input@@QBE_NXZ 1005e52a f i libucrt:input.obj
 0001:0005d52e       ?test@?$scanset_buffer@E@__crt_stdio_input@@QBE_NE@Z 1005e52e f i libucrt:input.obj
 0001:0005d55b       ?test@?$scanset_buffer@_W@__crt_stdio_input@@QBE_N_W@Z 1005e55b f i libucrt:input.obj
 0001:0005d590       ?to_floating_point_length@__crt_stdio_input@@YAIW4length_modifier@1@@Z 1005e590 f i libucrt:input.obj
 0001:0005d5bb       ?to_integer_length@__crt_stdio_input@@YAIW4length_modifier@1@@Z 1005e5bb f i libucrt:input.obj
 0001:0005d622       ?unget@?$input_adapter_character_source@V?$stream_input_adapter@D@__crt_stdio_input@@@__crt_strtox@@QAEXD@Z 1005e622 f i libucrt:input.obj
 0001:0005d67a       ?unget@?$input_adapter_character_source@V?$stream_input_adapter@_W@__crt_stdio_input@@@__crt_strtox@@QAEX_W@Z 1005e67a f i libucrt:input.obj
 0001:0005d6d7       ?unget@?$input_adapter_character_source@V?$string_input_adapter@D@__crt_stdio_input@@@__crt_strtox@@QAEXD@Z 1005e6d7 f i libucrt:input.obj
 0001:0005d72f       ?unget@?$input_adapter_character_source@V?$string_input_adapter@_W@__crt_stdio_input@@@__crt_strtox@@QAEX_W@Z 1005e72f f i libucrt:input.obj
 0001:0005d78c       ?unget@?$stream_input_adapter@D@__crt_stdio_input@@QAEXH@Z 1005e78c f i libucrt:input.obj
 0001:0005d7b1       ?unget@?$stream_input_adapter@_W@__crt_stdio_input@@QAEXG@Z 1005e7b1 f i libucrt:input.obj
 0001:0005d7dc       ?unget@?$string_input_adapter@D@__crt_stdio_input@@QAEXH@Z 1005e7dc f i libucrt:input.obj
 0001:0005d802       ?unget@?$string_input_adapter@_W@__crt_stdio_input@@QAEXG@Z 1005e802 f i libucrt:input.obj
 0001:0005d831       ?validate@?$format_string_parser@D@__crt_stdio_input@@QBE_NXZ 1005e831 f i libucrt:input.obj
 0001:0005d854       ?validate@?$format_string_parser@_W@__crt_stdio_input@@QBE_NXZ 1005e854 f i libucrt:input.obj
 0001:0005d877       ?validate@?$input_adapter_character_source@V?$stream_input_adapter@D@__crt_stdio_input@@@__crt_strtox@@QBE_NXZ 1005e877 f i libucrt:input.obj
 0001:0005d8a0       ?validate@?$input_adapter_character_source@V?$stream_input_adapter@_W@__crt_stdio_input@@@__crt_strtox@@QBE_NXZ 1005e8a0 f i libucrt:input.obj
 0001:0005d8c9       ?validate@?$input_adapter_character_source@V?$string_input_adapter@D@__crt_stdio_input@@@__crt_strtox@@QBE_NXZ 1005e8c9 f i libucrt:input.obj
 0001:0005d8f2       ?validate@?$input_adapter_character_source@V?$string_input_adapter@_W@__crt_stdio_input@@@__crt_strtox@@QBE_NXZ 1005e8f2 f i libucrt:input.obj
 0001:0005d91b       ?validate@?$stream_input_adapter@D@__crt_stdio_input@@QBE_NXZ 1005e91b f i libucrt:input.obj
 0001:0005d944       ?validate@?$stream_input_adapter@_W@__crt_stdio_input@@QBE_NXZ 1005e944 f i libucrt:input.obj
 0001:0005d965       ?validate@?$string_input_adapter@D@__crt_stdio_input@@QAE_NXZ 1005e965 f i libucrt:input.obj
 0001:0005d98f       ?validate@?$string_input_adapter@_W@__crt_stdio_input@@QAE_NXZ 1005e98f f i libucrt:input.obj
 0001:0005d9b9       ?wide_character_to_digit@__crt_strtox@@YAH_W@Z 1005e9b9 f i libucrt:input.obj
 0001:0005dbc2       ?width@?$format_string_parser@D@__crt_stdio_input@@QBE_KXZ 1005ebc2 f i libucrt:input.obj
 0001:0005dbc9       ?width@?$format_string_parser@_W@__crt_stdio_input@@QBE_KXZ 1005ebc9 f i libucrt:input.obj
 0001:0005dbd0       ?write_character@?$input_processor@DV?$stream_input_adapter@D@__crt_stdio_input@@@__crt_stdio_input@@AAE_NQADIAAPADAAID@Z 1005ebd0 f i libucrt:input.obj
 0001:0005dbf3       ?write_character@?$input_processor@DV?$stream_input_adapter@D@__crt_stdio_input@@@__crt_stdio_input@@AAE_NQA_WIAAPA_WAAID@Z 1005ebf3 f i libucrt:input.obj
 0001:0005dc86       ?write_character@?$input_processor@DV?$string_input_adapter@D@__crt_stdio_input@@@__crt_stdio_input@@AAE_NQADIAAPADAAID@Z 1005ec86 f i libucrt:input.obj
 0001:0005dca9       ?write_character@?$input_processor@DV?$string_input_adapter@D@__crt_stdio_input@@@__crt_stdio_input@@AAE_NQA_WIAAPA_WAAID@Z 1005eca9 f i libucrt:input.obj
 0001:0005dd31       ?write_character@?$input_processor@_WV?$stream_input_adapter@_W@__crt_stdio_input@@@__crt_stdio_input@@AAE_NQADIAAPADAAI_W@Z 1005ed31 f i libucrt:input.obj
 0001:0005ddd8       ?write_character@?$input_processor@_WV?$stream_input_adapter@_W@__crt_stdio_input@@@__crt_stdio_input@@AAE_NQA_WIAAPA_WAAI_W@Z 1005edd8 f i libucrt:input.obj
 0001:0005ddfe       ?write_character@?$input_processor@_WV?$string_input_adapter@_W@__crt_stdio_input@@@__crt_stdio_input@@AAE_NQADIAAPADAAI_W@Z 1005edfe f i libucrt:input.obj
 0001:0005dea5       ?write_character@?$input_processor@_WV?$string_input_adapter@_W@__crt_stdio_input@@@__crt_stdio_input@@AAE_NQA_WIAAPA_WAAI_W@Z 1005eea5 f i libucrt:input.obj
 0001:0005decb       ?write_integer@?$input_processor@DV?$stream_input_adapter@D@__crt_stdio_input@@@__crt_stdio_input@@AAE_N_K@Z 1005eecb f i libucrt:input.obj
 0001:0005df54       ?write_integer@?$input_processor@DV?$string_input_adapter@D@__crt_stdio_input@@@__crt_stdio_input@@AAE_N_K@Z 1005ef54 f i libucrt:input.obj
 0001:0005dfdd       ?write_integer@?$input_processor@_WV?$stream_input_adapter@_W@__crt_stdio_input@@@__crt_stdio_input@@AAE_N_K@Z 1005efdd f i libucrt:input.obj
 0001:0005e066       ?write_integer@?$input_processor@_WV?$string_input_adapter@_W@__crt_stdio_input@@@__crt_stdio_input@@AAE_N_K@Z 1005f066 f i libucrt:input.obj
 0001:0005e0ef       ___acrt_get_locale_data_prefix 1005f0ef f i libucrt:input.obj
 0001:0005e0fe       ___ascii_iswalpha          1005f0fe f i libucrt:input.obj
 0001:0005e129       ___ascii_toupper           1005f129 f i libucrt:input.obj
 0001:0005e145       ___ascii_towupper          1005f145 f i libucrt:input.obj
 0001:0005e161       ___stdio_common_vfscanf    1005f161 f   libucrt:input.obj
 0001:0005e204       ___stdio_common_vfwscanf   1005f204 f   libucrt:input.obj
 0001:0005e2a7       ___stdio_common_vsscanf    1005f2a7 f   libucrt:input.obj
 0001:0005e2d4       ___stdio_common_vswscanf   1005f2d4 f   libucrt:input.obj
 0001:0005e301       __chvalidchk_l             1005f301 f i libucrt:input.obj
 0001:0005e333       __invoke_watson_if_oneof   1005f333 f i libucrt:input.obj
 0001:0005e36b       __ischartype_l             1005f36b f i libucrt:input.obj
 0001:0005e475       __errcode                  1005f475 f   libucrt:fpexcept.obj
 0001:0005e4b6       __except1                  1005f4b6 f   libucrt:fpexcept.obj
 0001:0005e5b7       __except2                  1005f5b7 f   libucrt:fpexcept.obj
 0001:0005e700       __handle_exc               1005f700 f   libucrt:fpexcept.obj
 0001:0005e965       __handle_qnan2             1005f965 f   libucrt:fpexcept.obj
 0001:0005e975       __raise_exc                1005f975 f   libucrt:fpexcept.obj
 0001:0005e9a0       __raise_exc_ex             1005f9a0 f   libucrt:fpexcept.obj
 0001:0005ed53       __raise_excf               1005fd53 f   libucrt:fpexcept.obj
 0001:0005ed7e       __set_errno_from_matherr   1005fd7e f   libucrt:fpexcept.obj
 0001:0005edb8       __umatherr                 1005fdb8 f   libucrt:fpexcept.obj
 0001:0005ee80       __initterm                 1005fe80 f   libucrt:initterm.obj
 0001:0005eed6       __initterm_e               1005fed6 f   libucrt:initterm.obj
 0001:0005ef3c       __seh_filter_dll           1005ff3c f   libucrt:exception_filter.obj
 0001:0005ef64       __seh_filter_exe           1005ff64 f   libucrt:exception_filter.obj
 0001:0005f112       ??$?RPAD@__crt_internal_free_policy@@QBEXQBQAD@Z 10060112 f i libucrt:argv_parsing.obj
 0001:0005f128       ??$?RPA_W@__crt_internal_free_policy@@QBEXQBQA_W@Z 10060128 f i libucrt:argv_parsing.obj
 0001:0005f43b       ??$get_module_file_name@$$TAAY0BAF@DH@?$__crt_char_traits@D@@SAK$$QA$$TAAY0BAF@D$$QAH@Z 1006043b f i libucrt:argv_parsing.obj
 0001:0005f45e       ??$get_module_file_name@$$TAAY0BAF@_WH@?$__crt_char_traits@_W@@SAK$$QA$$TAAY0BAF@_W$$QAH@Z 1006045e f i libucrt:argv_parsing.obj
 0001:0005f84c       ??$set_program_name@PAD@?$__crt_char_traits@D@@SAX$$QAPAD@Z 1006084c f i libucrt:argv_parsing.obj
 0001:0005f861       ??$set_program_name@PA_W@?$__crt_char_traits@_W@@SAX$$QAPA_W@Z 10060861 f i libucrt:argv_parsing.obj
 0001:0005f89e       ??0?$__crt_unique_heap_ptr@PADU__crt_internal_free_policy@@@@QAE@QAPAD@Z 1006089e f i libucrt:argv_parsing.obj
 0001:0005f8b2       ??0?$__crt_unique_heap_ptr@PA_WU__crt_internal_free_policy@@@@QAE@QAPA_W@Z 100608b2 f i libucrt:argv_parsing.obj
 0001:0005f8c6       ??1?$__crt_unique_heap_ptr@PADU__crt_internal_free_policy@@@@QAE@XZ 100608c6 f i libucrt:argv_parsing.obj
 0001:0005f8dc       ??1?$__crt_unique_heap_ptr@PA_WU__crt_internal_free_policy@@@@QAE@XZ 100608dc f i libucrt:argv_parsing.obj
 0001:0005f928       ?detach@?$__crt_unique_heap_ptr@EU__crt_internal_free_policy@@@@QAEPAEXZ 10060928 f i libucrt:argv_parsing.obj
 0001:0005f92e       ?detach@?$__crt_unique_heap_ptr@PADU__crt_internal_free_policy@@@@QAEPAPADXZ 1006092e f i libucrt:argv_parsing.obj
 0001:0005f934       ?detach@?$__crt_unique_heap_ptr@PA_WU__crt_internal_free_policy@@@@QAEPAPA_WXZ 10060934 f i libucrt:argv_parsing.obj
 0001:0005f95c       ?get@?$__crt_unique_heap_ptr@PADU__crt_internal_free_policy@@@@QBEPAPADXZ 1006095c f i libucrt:argv_parsing.obj
 0001:0005f95f       ?get@?$__crt_unique_heap_ptr@PA_WU__crt_internal_free_policy@@@@QBEPAPA_WXZ 1006095f f i libucrt:argv_parsing.obj
 0001:0005f962       ?get_address_of@?$__crt_unique_heap_ptr@PADU__crt_internal_free_policy@@@@QAEPAPAPADXZ 10060962 f i libucrt:argv_parsing.obj
 0001:0005f965       ?get_address_of@?$__crt_unique_heap_ptr@PA_WU__crt_internal_free_policy@@@@QAEPAPAPA_WXZ 10060965 f i libucrt:argv_parsing.obj
 0001:0005f980       ?release@?$__crt_unique_heap_ptr@PADU__crt_internal_free_policy@@@@QAEXXZ 10060980 f i libucrt:argv_parsing.obj
 0001:0005f996       ?release@?$__crt_unique_heap_ptr@PA_WU__crt_internal_free_policy@@@@QAEXXZ 10060996 f i libucrt:argv_parsing.obj
 0001:0005f9cb       ___acrt_allocate_buffer_for_argv 100609cb f   libucrt:argv_parsing.obj
 0001:0005fa2d       __configure_narrow_argv    10060a2d f   libucrt:argv_parsing.obj
 0001:0005fa3a       __configure_wide_argv      10060a3a f   libucrt:argv_parsing.obj
 0001:0005fa47       __set_pgmptr               10060a47 f i libucrt:argv_parsing.obj
 0001:0005fa59       __set_wpgmptr              10060a59 f i libucrt:argv_parsing.obj
 0001:0005fa6b       ??$?R_W@__crt_internal_free_policy@@QBEXQB_W@Z 10060a6b f i libucrt:environment_initialization.obj
 0001:0005ff4d       ??$get_environment_from_os@$$V@?$__crt_char_traits@D@@SAPADXZ 10060f4d f i libucrt:environment_initialization.obj
 0001:0005ff52       ??$get_environment_from_os@$$V@?$__crt_char_traits@_W@@SAPA_WXZ 10060f52 f i libucrt:environment_initialization.obj
 0001:00060096       ??$set_variable_in_environment_nolock@PADH@?$__crt_char_traits@D@@SAH$$QAPAD$$QAH@Z 10061096 f i libucrt:environment_initialization.obj
 0001:000600b4       ??$set_variable_in_environment_nolock@PA_WH@?$__crt_char_traits@_W@@SAH$$QAPA_W$$QAH@Z 100610b4 f i libucrt:environment_initialization.obj
 0001:000600d2       ??$tcscpy_s@PADABIAAPAD@?$__crt_char_traits@D@@SAH$$QAPADABIAAPAD@Z 100610d2 f i libucrt:environment_initialization.obj
 0001:000600f7       ??$tcscpy_s@PA_WABIAAPA_W@?$__crt_char_traits@_W@@SAH$$QAPA_WABIAAPA_W@Z 100610f7 f i libucrt:environment_initialization.obj
 0001:0006011c       ??$tcslen@AAPAD@?$__crt_char_traits@D@@SAIAAPAD@Z 1006111c f i libucrt:environment_initialization.obj
 0001:0006013a       ??$tcslen@AAPA_W@?$__crt_char_traits@_W@@SAIAAPA_W@Z 1006113a f i libucrt:environment_initialization.obj
 0001:0006015f       ??$uninitialize@A6AXAAPAPAD@Z@?$dual_state_global@PAPAD@__crt_state_management@@QAEXA6AXAAPAPAD@Z@Z 1006115f f i libucrt:environment_initialization.obj
 0001:00060192       ??$uninitialize@A6AXAAPAPA_W@Z@?$dual_state_global@PAPA_W@__crt_state_management@@QAEXA6AXAAPAPA_W@Z@Z 10061192 f i libucrt:environment_initialization.obj
 0001:00060207       ??0?$__crt_unique_heap_ptr@_WU__crt_internal_free_policy@@@@QAE@QA_W@Z 10061207 f i libucrt:environment_initialization.obj
 0001:0006021b       ??1?$__crt_unique_heap_ptr@_WU__crt_internal_free_policy@@@@QAE@XZ 1006121b f i libucrt:environment_initialization.obj
 0001:00060231       ??B?$__crt_unique_heap_ptr@PADU__crt_internal_free_policy@@@@QBE_NXZ 10061231 f i libucrt:environment_initialization.obj
 0001:00060238       ??B?$__crt_unique_heap_ptr@PA_WU__crt_internal_free_policy@@@@QBE_NXZ 10061238 f i libucrt:environment_initialization.obj
 0001:0006023f       ??B?$__crt_unique_heap_ptr@_WU__crt_internal_free_policy@@@@QBE_NXZ 1006123f f i libucrt:environment_initialization.obj
 0001:00060246       ?__crt_compute_required_transform_buffer_count@@YAIIQBD@Z 10061246 f i libucrt:environment_initialization.obj
 0001:00060269       ?__crt_compute_required_transform_buffer_count@@YAIIQB_W@Z 10061269 f i libucrt:environment_initialization.obj
 0001:0006028e       ?__crt_transform_string@@YAIIQBDQA_WI@Z 1006128e f i libucrt:environment_initialization.obj
 0001:000602b4       ?__crt_transform_string@@YAIIQB_WQADI@Z 100612b4 f i libucrt:environment_initialization.obj
 0001:000602de       ?detach@?$__crt_unique_heap_ptr@DU__crt_internal_free_policy@@@@QAEPADXZ 100612de f i libucrt:environment_initialization.obj
 0001:000602e4       ?detach@?$__crt_unique_heap_ptr@_WU__crt_internal_free_policy@@@@QAEPA_WXZ 100612e4 f i libucrt:environment_initialization.obj
 0001:000602ea       ?get@?$__crt_unique_heap_ptr@_WU__crt_internal_free_policy@@@@QBEPA_WXZ 100612ea f i libucrt:environment_initialization.obj
 0001:000602ed       ?get_current_state_index@__crt_state_management@@YAIXZ 100612ed f i libucrt:environment_initialization.obj
 0001:00060314       ?initialize@?$dual_state_global@PAPAD@__crt_state_management@@QAEXQAPAD@Z 10061314 f i libucrt:environment_initialization.obj
 0001:00060343       ?initialize@?$dual_state_global@PAPA_W@__crt_state_management@@QAEXQAPA_W@Z 10061343 f i libucrt:environment_initialization.obj
 0001:00060372       ?is_valid@?$__crt_unique_heap_ptr@PADU__crt_internal_free_policy@@@@QBE_NXZ 10061372 f i libucrt:environment_initialization.obj
 0001:00060379       ?is_valid@?$__crt_unique_heap_ptr@PA_WU__crt_internal_free_policy@@@@QBE_NXZ 10061379 f i libucrt:environment_initialization.obj
 0001:00060380       ?is_valid@?$__crt_unique_heap_ptr@_WU__crt_internal_free_policy@@@@QBE_NXZ 10061380 f i libucrt:environment_initialization.obj
 0001:0006038f       ?release@?$__crt_unique_heap_ptr@_WU__crt_internal_free_policy@@@@QAEXXZ 1006138f f i libucrt:environment_initialization.obj
 0001:000603a5       ?value@?$dual_state_global@PAPAD@__crt_state_management@@QAEAAPAPADXZ 100613a5 f i libucrt:environment_initialization.obj
 0001:000603a8       ?value@?$dual_state_global@PAPA_W@__crt_state_management@@QAEAAPAPA_WXZ 100613a8 f i libucrt:environment_initialization.obj
 0001:000603ab       ___dcrt_get_or_create_narrow_environment_nolock 100613ab f   libucrt:environment_initialization.obj
 0001:000603b0       ___dcrt_get_or_create_wide_environment_nolock 100613b0 f   libucrt:environment_initialization.obj
 0001:000603b5       ___dcrt_uninitialize_environments_nolock 100613b5 f   libucrt:environment_initialization.obj
 0001:000603f9       ___p__environ              100613f9 f   libucrt:environment_initialization.obj
 0001:000603ff       ___p__wenviron             100613ff f   libucrt:environment_initialization.obj
 0001:00060405       __get_initial_narrow_environment 10061405 f   libucrt:environment_initialization.obj
 0001:0006041e       __get_initial_wide_environment 1006141e f   libucrt:environment_initialization.obj
 0001:00060437       __initialize_narrow_environment 10061437 f   libucrt:environment_initialization.obj
 0001:0006043c       __initialize_wide_environment 1006143c f   libucrt:environment_initialization.obj
 0001:00060441       __invoke_watson_if_error   10061441 f i libucrt:environment_initialization.obj
 0001:0006046b       ??$?B$$A6AXXZ@__crt_fast_encoded_nullptr_t@@QBEP6AXXZXZ 1006146b f i libucrt:onexit.obj
 0001:00060471       ??$?BP6AXXZ@__crt_fast_encoded_nullptr_t@@QBEPAP6AXXZXZ 10061471 f i libucrt:onexit.obj
 0001:00060477       ??$?RP6AXXZ@__crt_internal_free_policy@@QBEXQBQ6AXXZ@Z 10061477 f i libucrt:onexit.obj
 0001:000605cd       ??$__crt_fast_decode_pointer@P6AXXZ@@YAP6AXXZQ6AXXZ@Z 100615cd f i libucrt:onexit.obj
 0001:000605e8       ??$__crt_fast_decode_pointer@PAP6AXXZ@@YAPAP6AXXZQAP6AXXZ@Z 100615e8 f i libucrt:onexit.obj
 0001:00060603       ??$__crt_fast_encode_pointer@P6AHXZ@@YAP6AHXZQ6AHXZ@Z 10061603 f i libucrt:onexit.obj
 0001:00060629       ??$__crt_fast_encode_pointer@P6AXXZ@@YAP6AXXZQ6AXXZ@Z 10061629 f i libucrt:onexit.obj
 0001:0006064f       ??$__crt_fast_encode_pointer@PAP6AXXZ@@YAPAP6AXXZQAP6AXXZ@Z 1006164f f i libucrt:onexit.obj
 0001:000606fc       ??0?$__crt_unique_heap_ptr@P6AXXZU__crt_internal_free_policy@@@@QAE@QAP6AXXZ@Z 100616fc f i libucrt:onexit.obj
 0001:00060710       ??1?$__crt_unique_heap_ptr@P6AXXZU__crt_internal_free_policy@@@@QAE@XZ 10061710 f i libucrt:onexit.obj
 0001:00060726       ??1scoped_global_state_reset@__crt_state_management@@QAE@XZ 10061726 f i libucrt:onexit.obj
 0001:000609d8       ?detach@?$__crt_unique_heap_ptr@P6AXXZU__crt_internal_free_policy@@@@QAEPAP6AXXZXZ 100619d8 f i libucrt:onexit.obj
 0001:000609de       ?release@?$__crt_unique_heap_ptr@P6AXXZU__crt_internal_free_policy@@@@QAEXXZ 100619de f i libucrt:onexit.obj
 0001:000609f4       __crt_at_quick_exit        100619f4 f   libucrt:onexit.obj
 0001:00060a0f       __crt_atexit               10061a0f f   libucrt:onexit.obj
 0001:00060a2a       __execute_onexit_table     10061a2a f   libucrt:onexit.obj
 0001:00060a62       __initialize_onexit_table  10061a62 f   libucrt:onexit.obj
 0001:00060a95       __register_onexit_function 10061a95 f   libucrt:onexit.obj
 0001:00060be1       ??$?BX@__crt_fast_encoded_nullptr_t@@QBEPAXXZ 10061be1 f i libucrt:initialization.obj
 0001:00060be7       ??$__crt_fast_encode_pointer@PAX@@YAPAXQAX@Z 10061be7 f i libucrt:initialization.obj
 0001:00060c73       ?__acrt_stdio_is_initialized@@YA_NXZ 10061c73 f i libucrt:initialization.obj
 0001:00060c80       ?initialize@?$dual_state_global@PAU__crt_locale_data@@@__crt_state_management@@QAEXQAU__crt_locale_data@@@Z 10061c80 f i libucrt:initialization.obj
 0001:00060caf       ___acrt_initialize         10061caf f   libucrt:initialization.obj
 0001:00060cc5       ___acrt_thread_attach      10061cc5 f   libucrt:initialization.obj
 0001:00060cd2       ___acrt_thread_detach      10061cd2 f   libucrt:initialization.obj
 0001:00060cdc       ___acrt_uninitialize       10061cdc f   libucrt:initialization.obj
 0001:00060d18       ___acrt_uninitialize_critical 10061d18 f   libucrt:initialization.obj
 0001:00060d49       __get_terminate            10061d49 f   libucrt:terminate.obj
 0001:00060d5f       _set_terminate             10061d5f f   libucrt:terminate.obj
 0001:00060d87       _terminate                 10061d87 f   libucrt:terminate.obj
 0001:00060e42       _strcpy_s                  10061e42 f   libucrt:strcpy_s.obj
 0001:00060eb2       __set_abort_behavior       10061eb2 f   libucrt:abort.obj
 0001:00060edb       _abort                     10061edb f   libucrt:abort.obj
 0001:00060f30       ??$is_overflow_condition@K@__crt_strtox@@YA_NIK@Z 10061f30 f i libucrt:atox.obj
 0001:00060f6d       ??$make_c_string_character_source@D$$T@__crt_strtox@@YA?AV?$c_string_character_source@D@0@QBD$$T@Z 10061f6d f i libucrt:atox.obj
 0001:00060f8e       ??$make_c_string_character_source@_W$$T@__crt_strtox@@YA?AV?$c_string_character_source@_W@0@QB_W$$T@Z 10061f8e f i libucrt:atox.obj
 0001:00060faf       ??$parse_integer@KV?$c_string_character_source@D@__crt_strtox@@@__crt_strtox@@YAKQAU__crt_locale_pointers@@V?$c_string_character_source@D@0@H_N@Z 10061faf f i libucrt:atox.obj
 0001:0006125d       ??$parse_integer@KV?$c_string_character_source@_W@__crt_strtox@@@__crt_strtox@@YAKQAU__crt_locale_pointers@@V?$c_string_character_source@_W@0@H_N@Z 1006225d f i libucrt:atox.obj
 0001:000619e7       ??$parse_integer@_KV?$c_string_character_source@D@__crt_strtox@@@__crt_strtox@@YA_KQAU__crt_locale_pointers@@V?$c_string_character_source@D@0@H_N@Z 100629e7 f i libucrt:atox.obj
 0001:00061d36       ??$parse_integer@_KV?$c_string_character_source@_W@__crt_strtox@@@__crt_strtox@@YA_KQAU__crt_locale_pointers@@V?$c_string_character_source@_W@0@H_N@Z 10062d36 f i libucrt:atox.obj
 0001:000625bb       ??$parse_integer_from_string@JD$$T@__crt_strtox@@YAJQBD$$THQAU__crt_locale_pointers@@@Z 100635bb f i libucrt:atox.obj
 0001:000625f0       ??$parse_integer_from_string@J_W$$T@__crt_strtox@@YAJQB_W$$THQAU__crt_locale_pointers@@@Z 100635f0 f i libucrt:atox.obj
 0001:00062625       ??$parse_integer_from_string@_JD$$T@__crt_strtox@@YA_JQBD$$THQAU__crt_locale_pointers@@@Z 10063625 f i libucrt:atox.obj
 0001:0006265a       ??$parse_integer_from_string@_J_W$$T@__crt_strtox@@YA_JQB_W$$THQAU__crt_locale_pointers@@@Z 1006365a f i libucrt:atox.obj
 0001:0006268f       ??0?$c_string_character_source@D@__crt_strtox@@QAE@QBDQAPBD@Z 1006368f f i libucrt:atox.obj
 0001:000626b2       ??0?$c_string_character_source@_W@__crt_strtox@@QAE@QB_WQAPB_W@Z 100636b2 f i libucrt:atox.obj
 0001:000626d5       ??1?$c_string_character_source@D@__crt_strtox@@QAE@XZ 100636d5 f i libucrt:atox.obj
 0001:000626e4       ??1?$c_string_character_source@_W@__crt_strtox@@QAE@XZ 100636e4 f i libucrt:atox.obj
 0001:000626f3       ?get@?$c_string_character_source@D@__crt_strtox@@QAEDXZ 100636f3 f i libucrt:atox.obj
 0001:000626fd       ?get@?$c_string_character_source@_W@__crt_strtox@@QAE_WXZ 100636fd f i libucrt:atox.obj
 0001:0006270a       ?maximum_signed_value@__crt_strtox@@YAJK@Z 1006370a f i libucrt:atox.obj
 0001:00062710       ?minimum_signed_value@__crt_strtox@@YAJK@Z 10063710 f i libucrt:atox.obj
 0001:00062716       ?restore_state@?$c_string_character_source@D@__crt_strtox@@QAE_NQBD@Z 10063716 f i libucrt:atox.obj
 0001:0006272a       ?restore_state@?$c_string_character_source@_W@__crt_strtox@@QAE_NQB_W@Z 1006372a f i libucrt:atox.obj
 0001:0006273e       ?save_state@?$c_string_character_source@D@__crt_strtox@@QBEPBDXZ 1006373e f i libucrt:atox.obj
 0001:00062741       ?save_state@?$c_string_character_source@_W@__crt_strtox@@QBEPB_WXZ 10063741 f i libucrt:atox.obj
 0001:00062744       ?unget@?$c_string_character_source@D@__crt_strtox@@QAEXD@Z 10063744 f i libucrt:atox.obj
 0001:00062777       ?unget@?$c_string_character_source@_W@__crt_strtox@@QAEX_W@Z 10063777 f i libucrt:atox.obj
 0001:000627b0       ?validate@?$c_string_character_source@D@__crt_strtox@@QBE_NXZ 100637b0 f i libucrt:atox.obj
 0001:000627d1       ?validate@?$c_string_character_source@_W@__crt_strtox@@QBE_NXZ 100637d1 f i libucrt:atox.obj
 0001:000627f2       __atoi64                   100637f2 f   libucrt:atox.obj
 0001:0006281d       __atoi64_l                 1006381d f   libucrt:atox.obj
 0001:0006284a       __atoi_l                   1006384a f   libucrt:atox.obj
 0001:00062877       __atol_l                   10063877 f   libucrt:atox.obj
 0001:000628a4       __atoll_l                  100638a4 f   libucrt:atox.obj
 0001:000628d1       __wtoi                     100638d1 f   libucrt:atox.obj
 0001:000628fc       __wtoi64                   100638fc f   libucrt:atox.obj
 0001:00062927       __wtoi64_l                 10063927 f   libucrt:atox.obj
 0001:00062954       __wtoi_l                   10063954 f   libucrt:atox.obj
 0001:00062981       __wtol                     10063981 f   libucrt:atox.obj
 0001:000629ac       __wtol_l                   100639ac f   libucrt:atox.obj
 0001:000629d9       __wtoll                    100639d9 f   libucrt:atox.obj
 0001:00062a04       __wtoll_l                  10063a04 f   libucrt:atox.obj
 0001:00062a31       _atoi                      10063a31 f   libucrt:atox.obj
 0001:00062a5c       _atol                      10063a5c f   libucrt:atox.obj
 0001:00062a87       _atoll                     10063a87 f   libucrt:atox.obj
 0001:00062ab2       _wcsncmp                   10063ab2 f   libucrt:wcsncmp.obj
 0001:00062afa       __malloc_base              10063afa f   libucrt:malloc_base.obj
 0001:00062b61       __free_base                10063b61 f   libucrt:free_base.obj
 0001:00062ba9       ??$__crt_fast_decode_pointer@P6AXPB_W00II@Z@@YAP6AXPB_W00II@ZQ6AX000II@Z@Z 10063ba9 f i libucrt:invalid_parameter.obj
 0001:00062bc4       ??$__crt_fast_encode_pointer@P6AXPB_W00II@Z@@YAP6AXPB_W00II@ZQ6AX000II@Z@Z 10063bc4 f i libucrt:invalid_parameter.obj
 0001:00062bea       ??$initialize_from_array@$$BY00Q6AXPB_W00II@Z@?$dual_state_global@P6AXPB_W00II@Z@__crt_state_management@@QAAXAAY00Q6AXPB_W00II@Z@Z 10063bea f i libucrt:invalid_parameter.obj
 0001:00062bff       ?dangerous_get_state_array@?$dual_state_global@P6AXPB_W00II@Z@__crt_state_management@@QAEPAP6AXPB_W00II@ZXZ 10063bff f i libucrt:invalid_parameter.obj
 0001:00062c02       ?value@?$dual_state_global@P6AXPB_W00II@Z@__crt_state_management@@QAEAAP6AXPB_W00II@ZXZ 10063c02 f i libucrt:invalid_parameter.obj
 0001:00062c05       ___acrt_call_reportfault   10063c05 f   libucrt:invalid_parameter.obj
 0001:00062d8c       ___acrt_initialize_invalid_parameter_handler 10063d8c f   libucrt:invalid_parameter.obj
 0001:00062d9e       __get_invalid_parameter_handler 10063d9e f   libucrt:invalid_parameter.obj
 0001:00062db5       __get_thread_local_invalid_parameter_handler 10063db5 f   libucrt:invalid_parameter.obj
 0001:00062dca       __invalid_parameter        10063dca f   libucrt:invalid_parameter.obj
 0001:00062e47       __invalid_parameter_noinfo 10063e47 f   libucrt:invalid_parameter.obj
 0001:00062e5b       __invalid_parameter_noinfo_noreturn 10063e5b f   libucrt:invalid_parameter.obj
 0001:00062e7f       __invoke_watson            10063e7f f   libucrt:invalid_parameter.obj
 0001:00062ec0       __set_invalid_parameter_handler 10063ec0 f   libucrt:invalid_parameter.obj
 0001:00062efc       __set_thread_local_invalid_parameter_handler 10063efc f   libucrt:invalid_parameter.obj
 0001:00062f20       ___acrt_errno_from_os_error 10063f20 f   libucrt:errno.obj
 0001:00062f73       ___acrt_errno_map_os_error 10063f73 f   libucrt:errno.obj
 0001:00062f9e       ___doserrno                10063f9e f   libucrt:errno.obj
 0001:00062fb5       __errno                    10063fb5 f   libucrt:errno.obj
 0001:00062fcc       __get_doserrno             10063fcc f   libucrt:errno.obj
 0001:00062ffa       __get_errno                10063ffa f   libucrt:errno.obj
 0001:00063028       __set_doserrno             10064028 f   libucrt:errno.obj
 0001:00063051       __set_errno                10064051 f   libucrt:errno.obj
 0001:0006307a       __calloc_base              1006407a f   libucrt:calloc_base.obj
 0001:000630fe       ??$?B$$A6GHPA_WKJ@Z@__crt_fast_encoded_nullptr_t@@QBEP6GHPA_WKJ@ZXZ 100640fe f i libucrt:winapi_thunks.obj
 0001:000631ce       ??$__crt_fast_decode_pointer@P6GHPA_WKJ@Z@@YAP6GHPA_WKJ@ZQ6GH0KJ@Z@Z 100641ce f i libucrt:winapi_thunks.obj
 0001:000631e9       ??$__crt_fast_decode_pointer@PAX@@YAPAXQAX@Z 100641e9 f i libucrt:winapi_thunks.obj
 0001:00063204       ??$__crt_fast_encode_pointer@P6GHPA_WKJ@Z@@YAP6GHPA_WKJ@ZQ6GH0KJ@Z@Z 10064204 f i libucrt:winapi_thunks.obj
 0001:00063a19       _GetCurrentThreadEffectiveToken 10064a19 f i libucrt:winapi_thunks.obj
 0001:00063a1d       ___acrt_AppPolicyGetProcessTerminationMethodInternal@4 10064a1d f   libucrt:winapi_thunks.obj
 0001:00063a6d       ___acrt_AppPolicyGetShowDeveloperDiagnosticInternal@4 10064a6d f   libucrt:winapi_thunks.obj
 0001:00063abd       ___acrt_AppPolicyGetThreadInitializationTypeInternal@4 10064abd f   libucrt:winapi_thunks.obj
 0001:00063b0d       ___acrt_AppPolicyGetWindowingModelInternal@4 10064b0d f   libucrt:winapi_thunks.obj
 0001:00063b5d       ___acrt_AreFileApisANSI@0  10064b5d f   libucrt:winapi_thunks.obj
 0001:00063b83       ___acrt_CompareStringEx@36 10064b83 f   libucrt:winapi_thunks.obj
 0001:00063bf7       ___acrt_EnumSystemLocalesEx@16 10064bf7 f   libucrt:winapi_thunks.obj
 0001:00063c60       ___acrt_FlsAlloc@4         10064c60 f   libucrt:winapi_thunks.obj
 0001:00063cae       ___acrt_FlsFree@4          10064cae f   libucrt:winapi_thunks.obj
 0001:00063cfc       ___acrt_FlsGetValue@4      10064cfc f   libucrt:winapi_thunks.obj
 0001:00063d4a       ___acrt_FlsSetValue@8      10064d4a f   libucrt:winapi_thunks.obj
 0001:00063d9c       ___acrt_GetDateFormatEx@28 10064d9c f   libucrt:winapi_thunks.obj
 0001:00063e08       ___acrt_GetEnabledXStateFeatures@0 10064e08 f   libucrt:winapi_thunks.obj
 0001:00063e49       ___acrt_GetLocaleInfoEx@16 10064e49 f   libucrt:winapi_thunks.obj
 0001:00063e97       ___acrt_GetSystemTimePreciseAsFileTime@4 10064e97 f   libucrt:winapi_thunks.obj
 0001:00063ee5       ___acrt_GetTimeFormatEx@24 10064ee5 f   libucrt:winapi_thunks.obj
 0001:00063f3b       ___acrt_GetUserDefaultLocaleName@8 10064f3b f   libucrt:winapi_thunks.obj
 0001:00063f86       ___acrt_GetXStateFeaturesMask@8 10064f86 f   libucrt:winapi_thunks.obj
 0001:00063fd6       ___acrt_InitializeCriticalSectionEx@12 10064fd6 f   libucrt:winapi_thunks.obj
 0001:00064033       ___acrt_IsValidLocaleName@4 10065033 f   libucrt:winapi_thunks.obj
 0001:00064079       ___acrt_LCIDToLocaleName@16 10065079 f   libucrt:winapi_thunks.obj
 0001:000640c7       ___acrt_LCMapStringEx@36   100650c7 f   libucrt:winapi_thunks.obj
 0001:0006413b       ___acrt_LocaleNameToLCID@8 1006513b f   libucrt:winapi_thunks.obj
 0001:00064178       ___acrt_LocateXStateFeature@12 10065178 f   libucrt:winapi_thunks.obj
 0001:000641b2       ___acrt_MessageBoxA@16     100651b2 f   libucrt:winapi_thunks.obj
 0001:000641f0       ___acrt_MessageBoxW@16     100651f0 f   libucrt:winapi_thunks.obj
 0001:0006422e       ___acrt_RoInitialize@4     1006522e f   libucrt:winapi_thunks.obj
 0001:00064277       ___acrt_RoUninitialize@0   10065277 f   libucrt:winapi_thunks.obj
 0001:000642b0       ___acrt_RtlGenRandom@8     100652b0 f   libucrt:winapi_thunks.obj
 0001:00064300       ___acrt_SetThreadStackGuarantee@4 10065300 f   libucrt:winapi_thunks.obj
 0001:00064349       ___acrt_can_show_message_box 10065349 f   libucrt:winapi_thunks.obj
 0001:00064379       ___acrt_can_use_vista_locale_apis 10065379 f   libucrt:winapi_thunks.obj
 0001:00064386       ___acrt_can_use_xstate_apis 10065386 f   libucrt:winapi_thunks.obj
 0001:00064393       ___acrt_eagerly_load_locale_apis 10065393 f   libucrt:winapi_thunks.obj
 0001:000643d7       ___acrt_get_parent_window  100653d7 f   libucrt:winapi_thunks.obj
 0001:00064459       ___acrt_initialize_winapi_thunks 10065459 f   libucrt:winapi_thunks.obj
 0001:0006448e       ___acrt_is_interactive     1006548e f   libucrt:winapi_thunks.obj
 0001:00064554       ___acrt_uninitialize_winapi_thunks 10065554 f   libucrt:winapi_thunks.obj
 0001:00064597       ??0__crt_stdio_stream@@QAE@QAU__crt_stdio_stream_data@@@Z 10065597 f i libucrt:closeall.obj
 0001:000645ab       __fcloseall                100655ab f   libucrt:closeall.obj
 0001:00064c48       ___acrt_stdio_flush_nolock 10065c48 f   libucrt:fflush.obj
 0001:00064cc6       __fflush_nolock            10065cc6 f   libucrt:fflush.obj
 0001:00064d20       __flushall                 10065d20 f   libucrt:fflush.obj
 0001:00064d2b       _fflush                    10065d2b f   libucrt:fflush.obj
 0001:00064d95       ?has_crt_buffer@__crt_stdio_stream@@QBE_NXZ 10065d95 f i libucrt:_freebuf.obj
 0001:00064da4       ___acrt_stdio_free_buffer_nolock 10065da4 f   libucrt:_freebuf.obj
 0001:00064fe2       ___acrt_initialize_lowio   10065fe2 f   libucrt:ioinit.obj
 0001:0006505a       ___acrt_uninitialize_lowio 1006605a f   libucrt:ioinit.obj
 0001:00065091       ??$make_c_string_character_source@DPAPAD@__crt_strtox@@YA?AV?$c_string_character_source@D@0@QBDQAPAD@Z 10066091 f i libucrt:strtox.obj
 0001:000650b2       ??$make_c_string_character_source@_WPAPA_W@__crt_strtox@@YA?AV?$c_string_character_source@_W@0@QB_WQAPA_W@Z 100660b2 f i libucrt:strtox.obj
 0001:000650d3       ??$parse_integer_from_string@JDPAPAD@__crt_strtox@@YAJQBDQAPADHQAU__crt_locale_pointers@@@Z 100660d3 f i libucrt:strtox.obj
 0001:00065108       ??$parse_integer_from_string@J_WPAPA_W@__crt_strtox@@YAJQB_WQAPA_WHQAU__crt_locale_pointers@@@Z 10066108 f i libucrt:strtox.obj
 0001:0006513d       ??$parse_integer_from_string@KDPAPAD@__crt_strtox@@YAKQBDQAPADHQAU__crt_locale_pointers@@@Z 1006613d f i libucrt:strtox.obj
 0001:00065172       ??$parse_integer_from_string@K_WPAPA_W@__crt_strtox@@YAKQB_WQAPA_WHQAU__crt_locale_pointers@@@Z 10066172 f i libucrt:strtox.obj
 0001:000651a7       ??$parse_integer_from_string@_JDPAPAD@__crt_strtox@@YA_JQBDQAPADHQAU__crt_locale_pointers@@@Z 100661a7 f i libucrt:strtox.obj
 0001:000651dc       ??$parse_integer_from_string@_J_WPAPA_W@__crt_strtox@@YA_JQB_WQAPA_WHQAU__crt_locale_pointers@@@Z 100661dc f i libucrt:strtox.obj
 0001:00065211       ??$parse_integer_from_string@_KDPAPAD@__crt_strtox@@YA_KQBDQAPADHQAU__crt_locale_pointers@@@Z 10066211 f i libucrt:strtox.obj
 0001:00065246       ??$parse_integer_from_string@_K_WPAPA_W@__crt_strtox@@YA_KQB_WQAPA_WHQAU__crt_locale_pointers@@@Z 10066246 f i libucrt:strtox.obj
 0001:0006527b       __strtoi64                 1006627b f   libucrt:strtox.obj
 0001:000652af       __strtoi64_l               100662af f   libucrt:strtox.obj
 0001:000652e4       __strtoimax_l              100662e4 f   libucrt:strtox.obj
 0001:00065319       __strtol_l                 10066319 f   libucrt:strtox.obj
 0001:0006534e       __strtoll_l                1006634e f   libucrt:strtox.obj
 0001:00065383       __strtoui64                10066383 f   libucrt:strtox.obj
 0001:000653b7       __strtoui64_l              100663b7 f   libucrt:strtox.obj
 0001:000653ec       __strtoul_l                100663ec f   libucrt:strtox.obj
 0001:00065421       __strtoull_l               10066421 f   libucrt:strtox.obj
 0001:00065456       __strtoumax_l              10066456 f   libucrt:strtox.obj
 0001:0006548b       __wcstoi64                 1006648b f   libucrt:strtox.obj
 0001:000654bf       __wcstoi64_l               100664bf f   libucrt:strtox.obj
 0001:000654f4       __wcstoimax_l              100664f4 f   libucrt:strtox.obj
 0001:00065529       __wcstol_l                 10066529 f   libucrt:strtox.obj
 0001:0006555e       __wcstoll_l                1006655e f   libucrt:strtox.obj
 0001:00065593       __wcstoui64                10066593 f   libucrt:strtox.obj
 0001:000655c7       __wcstoui64_l              100665c7 f   libucrt:strtox.obj
 0001:000655fc       __wcstoul_l                100665fc f   libucrt:strtox.obj
 0001:00065631       __wcstoull_l               10066631 f   libucrt:strtox.obj
 0001:00065666       __wcstoumax_l              10066666 f   libucrt:strtox.obj
 0001:0006569b       _strtoimax                 1006669b f   libucrt:strtox.obj
 0001:000656cf       _strtol                    100666cf f   libucrt:strtox.obj
 0001:00065703       _strtoll                   10066703 f   libucrt:strtox.obj
 0001:00065737       _strtoul                   10066737 f   libucrt:strtox.obj
 0001:0006576b       _strtoull                  1006676b f   libucrt:strtox.obj
 0001:0006579f       _strtoumax                 1006679f f   libucrt:strtox.obj
 0001:000657d3       _wcstoimax                 100667d3 f   libucrt:strtox.obj
 0001:00065807       _wcstol                    10066807 f   libucrt:strtox.obj
 0001:0006583b       _wcstoll                   1006683b f   libucrt:strtox.obj
 0001:0006586f       _wcstoul                   1006686f f   libucrt:strtox.obj
 0001:000658a3       _wcstoull                  100668a3 f   libucrt:strtox.obj
 0001:000658d7       _wcstoumax                 100668d7 f   libucrt:strtox.obj
 0001:0006590b       __mbtowc_l                 1006690b f   libucrt:mbtowc.obj
 0001:00065a9d       _mbtowc                    10066a9d f   libucrt:mbtowc.obj
 0001:00065abd       __wctomb_l                 10066abd f   libucrt:wctomb.obj
 0001:00065b22       __wctomb_s_l               10066b22 f   libucrt:wctomb.obj
 0001:00065cd3       _wctomb                    10066cd3 f   libucrt:wctomb.obj
 0001:00065d11       _wctomb_s                  10066d11 f   libucrt:wctomb.obj
 0001:00066729       ??1?$__crt_simd_cleanup_guard@$00@@QAE@XZ 10067729 f i libucrt:strnlen.obj
 0001:0006672d       ??1?$__crt_simd_cleanup_guard@$0A@@@QAE@XZ 1006772d f i libucrt:strnlen.obj
 0001:00066730       ?compare_equals@?$__crt_simd_traits@$00E@@SA?AT__m256i@@T2@0@Z 10067730 f i libucrt:strnlen.obj
 0001:00066735       ?compare_equals@?$__crt_simd_traits@$00G@@SA?AT__m256i@@T2@0@Z 10067735 f i libucrt:strnlen.obj
 0001:0006673a       ?compare_equals@?$__crt_simd_traits@$0A@E@@SA?AT__m128i@@T2@0@Z 1006773a f i libucrt:strnlen.obj
 0001:0006673f       ?compare_equals@?$__crt_simd_traits@$0A@G@@SA?AT__m128i@@T2@0@Z 1006773f f i libucrt:strnlen.obj
 0001:00066744       ?compute_byte_mask@?$__crt_simd_pack_traits@$00@@SAHT__m256i@@@Z 10067744 f i libucrt:strnlen.obj
 0001:00066749       ?compute_byte_mask@?$__crt_simd_pack_traits@$0A@@@SAHT__m128i@@@Z 10067749 f i libucrt:strnlen.obj
 0001:0006674e       ?get_zero_pack@?$__crt_simd_pack_traits@$00@@SA?AT__m256i@@XZ 1006774e f i libucrt:strnlen.obj
 0001:00066753       ?get_zero_pack@?$__crt_simd_pack_traits@$0A@@@SA?AT__m128i@@XZ 10067753 f i libucrt:strnlen.obj
 0001:00066757       _strnlen                   10067757 f   libucrt:strnlen.obj
 0001:000668c1       _wcslen                    100678c1 f   libucrt:strnlen.obj
 0001:00066a33       _wcsnlen                   10067a33 f   libucrt:strnlen.obj
 0001:00066c4f       ??$?RU__acrt_ptd@@@__crt_internal_free_policy@@QBEXQBU__acrt_ptd@@@Z 10067c4f f i libucrt:per_thread_data.obj
 0001:00066fed       ??0?$__crt_unique_heap_ptr@U__acrt_ptd@@U__crt_internal_free_policy@@@@QAE@QAU__acrt_ptd@@@Z 10067fed f i libucrt:per_thread_data.obj
 0001:00067001       ??0__crt_scoped_get_last_error_reset@@QAE@XZ 10068001 f i libucrt:per_thread_data.obj
 0001:00067016       ??1?$__crt_unique_heap_ptr@U__acrt_ptd@@U__crt_internal_free_policy@@@@QAE@XZ 10068016 f i libucrt:per_thread_data.obj
 0001:0006702c       ??1__crt_scoped_get_last_error_reset@@QAE@XZ 1006802c f i libucrt:per_thread_data.obj
 0001:00067037       ??B?$__crt_unique_heap_ptr@U__acrt_ptd@@U__crt_internal_free_policy@@@@QBE_NXZ 10068037 f i libucrt:per_thread_data.obj
 0001:000671d2       ?dangerous_get_state_array@?$dual_state_global@PAU__crt_locale_data@@@__crt_state_management@@QAEPAPAU__crt_locale_data@@XZ 100681d2 f i libucrt:per_thread_data.obj
 0001:00067303       ?detach@?$__crt_unique_heap_ptr@U__acrt_ptd@@U__crt_internal_free_policy@@@@QAEPAU__acrt_ptd@@XZ 10068303 f i libucrt:per_thread_data.obj
 0001:00067309       ?get@?$__crt_unique_heap_ptr@U__acrt_ptd@@U__crt_internal_free_policy@@@@QBEPAU__acrt_ptd@@XZ 10068309 f i libucrt:per_thread_data.obj
 0001:0006730c       ?get_current_state_index@__crt_state_management@@YAIABV__crt_scoped_get_last_error_reset@@@Z 1006830c f i libucrt:per_thread_data.obj
 0001:0006748d       ?is_valid@?$__crt_unique_heap_ptr@U__acrt_ptd@@U__crt_internal_free_policy@@@@QBE_NXZ 1006848d f i libucrt:per_thread_data.obj
 0001:00067494       ?release@?$__crt_unique_heap_ptr@U__acrt_ptd@@U__crt_internal_free_policy@@@@QAEXXZ 10068494 f i libucrt:per_thread_data.obj
 0001:00067523       ?value@?$dual_state_global@PAU__crt_locale_data@@@__crt_state_management@@QAEAAPAU__crt_locale_data@@XZ 10068523 f i libucrt:per_thread_data.obj
 0001:00067526       ___acrt_freeptd            10068526 f   libucrt:per_thread_data.obj
 0001:0006755d       ___acrt_getptd             1006855d f   libucrt:per_thread_data.obj
 0001:00067649       ___acrt_getptd_head        10068649 f   libucrt:per_thread_data.obj
 0001:00067709       ___acrt_getptd_noexit      10068709 f   libucrt:per_thread_data.obj
 0001:000677eb       ___acrt_initialize_ptd     100687eb f   libucrt:per_thread_data.obj
 0001:00067822       ___acrt_uninitialize_ptd   10068822 f   libucrt:per_thread_data.obj
 0001:00067842       ___threadhandle            10068842 f   libucrt:per_thread_data.obj
 0001:00067848       ___threadid                10068848 f   libucrt:per_thread_data.obj
 0001:0006784e       ?value@?$dual_state_global@PAU__crt_multibyte_data@@@__crt_state_management@@QAEAAPAU__crt_multibyte_data@@XZ 1006884e f i libucrt:locale_update.obj
 0001:00067851       ___acrt_update_locale_info 10068851 f   libucrt:locale_update.obj
 0001:00067889       ___acrt_update_multibyte_info 10068889 f   libucrt:locale_update.obj
 0001:000678c1       ?__acrt_fp_classify@@YA?AW4__acrt_fp_class@@ABN@Z 100688c1 f i libucrt:cvt.obj
 0001:0006793b       ?__acrt_fp_is_negative@@YA_NABN@Z 1006893b f i libucrt:cvt.obj
 0001:0006833b       ?strrchr@@YAPADQADH@Z      1006933b f i libucrt:cvt.obj
 0001:00068348       ___acrt_fp_format          10069348 f   libucrt:cvt.obj
 0001:0006850d       __fputwc_nolock            1006950d f   libucrt:fputwc.obj
 0001:00068680       __fputwchar                10069680 f   libucrt:fputwc.obj
 0001:000686a0       __putwc_nolock             100696a0 f   libucrt:fputwc.obj
 0001:000686ad       _fputwc                    100696ad f   libucrt:fputwc.obj
 0001:0006874a       _putwc                     1006974a f   libucrt:fputwc.obj
 0001:00068757       _putwchar                  10069757 f   libucrt:fputwc.obj
 0001:00068764       ?lowio_handle@__crt_stdio_stream@@QBEHXZ 10069764 f i libucrt:fileno.obj
 0001:0006876b       __fileno                   1006976b f   libucrt:fileno.obj
 0001:0006879b       __fputc_nolock             1006979b f   libucrt:fputc.obj
 0001:000687ce       __fputchar                 100697ce f   libucrt:fputc.obj
 0001:000687ee       __putc_nolock              100697ee f   libucrt:fputc.obj
 0001:000687fb       _fputc                     100697fb f   libucrt:fputc.obj
 0001:00068947       _putc                      10069947 f   libucrt:fputc.obj
 0001:00068954       _putchar                   10069954 f   libucrt:fputc.obj
 0001:00068961       __get_printf_count_output  10069961 f   libucrt:printf_count_output.obj
 0001:0006897b       __set_printf_count_output  1006997b f   libucrt:printf_count_output.obj
 0001:000689af       ?has_temporary_buffer@__crt_stdio_stream@@QBE_NXZ 100699af f i libucrt:_sftbuf.obj
 0001:000689be       ___acrt_stdio_begin_temporary_buffering_nolock 100699be f   libucrt:_sftbuf.obj
 0001:00068a9d       ___acrt_stdio_end_temporary_buffering_nolock 10069a9d f   libucrt:_sftbuf.obj
 0001:00068ae8       ??$?RU__crt_locale_data@@@__crt_internal_free_policy@@QBEXQBU__crt_locale_data@@@Z 10069ae8 f i libucrt:wsetlocale.obj
 0001:00068afe       ??$?RU__crt_locale_pointers@@@__crt_internal_free_policy@@QBEXQBU__crt_locale_pointers@@@Z 10069afe f i libucrt:wsetlocale.obj
 0001:00068b14       ??$?RU__crt_multibyte_data@@@__crt_internal_free_policy@@QBEXQBU__crt_multibyte_data@@@Z 10069b14 f i libucrt:wsetlocale.obj
 0001:00068f9e       ??0?$__crt_unique_heap_ptr@U__crt_locale_data@@U__crt_internal_free_policy@@@@QAE@QAU__crt_locale_data@@@Z 10069f9e f i libucrt:wsetlocale.obj
 0001:00068fb2       ??0?$__crt_unique_heap_ptr@U__crt_locale_pointers@@U__crt_internal_free_policy@@@@QAE@QAU__crt_locale_pointers@@@Z 10069fb2 f i libucrt:wsetlocale.obj
 0001:00068fc6       ??0?$__crt_unique_heap_ptr@U__crt_multibyte_data@@U__crt_internal_free_policy@@@@QAE@QAU__crt_multibyte_data@@@Z 10069fc6 f i libucrt:wsetlocale.obj
 0001:00068fda       ??0_expandlocale_locale_name_cache@@QAE@QA_WIQAU__crt_qualified_locale_data@@@Z 10069fda f i libucrt:wsetlocale.obj
 0001:00069036       ??1?$__crt_unique_heap_ptr@U__crt_locale_data@@U__crt_internal_free_policy@@@@QAE@XZ 1006a036 f i libucrt:wsetlocale.obj
 0001:0006904c       ??1?$__crt_unique_heap_ptr@U__crt_locale_pointers@@U__crt_internal_free_policy@@@@QAE@XZ 1006a04c f i libucrt:wsetlocale.obj
 0001:00069062       ??1?$__crt_unique_heap_ptr@U__crt_multibyte_data@@U__crt_internal_free_policy@@@@QAE@XZ 1006a062 f i libucrt:wsetlocale.obj
 0001:00069078       ??1_expandlocale_locale_name_cache@@QAE@XZ 1006a078 f i libucrt:wsetlocale.obj
 0001:000690b4       ??B?$__crt_unique_heap_ptr@U__crt_locale_data@@U__crt_internal_free_policy@@@@QBE_NXZ 1006a0b4 f i libucrt:wsetlocale.obj
 0001:000690bb       ??B?$__crt_unique_heap_ptr@U__crt_locale_pointers@@U__crt_internal_free_policy@@@@QBE_NXZ 1006a0bb f i libucrt:wsetlocale.obj
 0001:000690c2       ??B?$__crt_unique_heap_ptr@U__crt_multibyte_data@@U__crt_internal_free_policy@@@@QBE_NXZ 1006a0c2 f i libucrt:wsetlocale.obj
 0001:00069363       ?commit_locale_name@_expandlocale_locale_name_cache@@QAEXQB_WI@Z 1006a363 f i libucrt:wsetlocale.obj
 0001:000693b8       ?commit_locale_name_cache_already_updated@_expandlocale_locale_name_cache@@QAEXQB_WI@Z 1006a3b8 f i libucrt:wsetlocale.obj
 0001:000693fa       ?detach@?$__crt_unique_heap_ptr@U__crt_locale_data@@U__crt_internal_free_policy@@@@QAEPAU__crt_locale_data@@XZ 1006a3fa f i libucrt:wsetlocale.obj
 0001:00069400       ?detach@?$__crt_unique_heap_ptr@U__crt_locale_pointers@@U__crt_internal_free_policy@@@@QAEPAU__crt_locale_pointers@@XZ 1006a400 f i libucrt:wsetlocale.obj
 0001:00069406       ?detach@?$__crt_unique_heap_ptr@U__crt_multibyte_data@@U__crt_internal_free_policy@@@@QAEPAU__crt_multibyte_data@@XZ 1006a406 f i libucrt:wsetlocale.obj
 0001:0006940c       ?get@?$__crt_unique_heap_ptr@U__crt_locale_data@@U__crt_internal_free_policy@@@@QBEPAU__crt_locale_data@@XZ 1006a40c f i libucrt:wsetlocale.obj
 0001:0006940f       ?get@?$__crt_unique_heap_ptr@U__crt_locale_pointers@@U__crt_internal_free_policy@@@@QBEPAU__crt_locale_pointers@@XZ 1006a40f f i libucrt:wsetlocale.obj
 0001:00069412       ?get@?$__crt_unique_heap_ptr@U__crt_multibyte_data@@U__crt_internal_free_policy@@@@QBEPAU__crt_multibyte_data@@XZ 1006a412 f i libucrt:wsetlocale.obj
 0001:00069415       ?is_valid@?$__crt_unique_heap_ptr@U__crt_locale_data@@U__crt_internal_free_policy@@@@QBE_NXZ 1006a415 f i libucrt:wsetlocale.obj
 0001:0006941c       ?is_valid@?$__crt_unique_heap_ptr@U__crt_locale_pointers@@U__crt_internal_free_policy@@@@QBE_NXZ 1006a41c f i libucrt:wsetlocale.obj
 0001:00069423       ?is_valid@?$__crt_unique_heap_ptr@U__crt_multibyte_data@@U__crt_internal_free_policy@@@@QBE_NXZ 1006a423 f i libucrt:wsetlocale.obj
 0001:0006942a       ?release@?$__crt_unique_heap_ptr@U__crt_locale_data@@U__crt_internal_free_policy@@@@QAEXXZ 1006a42a f i libucrt:wsetlocale.obj
 0001:00069440       ?release@?$__crt_unique_heap_ptr@U__crt_locale_pointers@@U__crt_internal_free_policy@@@@QAEXXZ 1006a440 f i libucrt:wsetlocale.obj
 0001:00069456       ?release@?$__crt_unique_heap_ptr@U__crt_multibyte_data@@U__crt_internal_free_policy@@@@QAEXXZ 1006a456 f i libucrt:wsetlocale.obj
 0001:0006946c       ___acrt_copy_locale_name   1006a46c f   libucrt:wsetlocale.obj
 0001:000694e4       ___acrt_set_locale_changed 1006a4e4 f   libucrt:wsetlocale.obj
 0001:000694f1       ___acrt_uninitialize_locale 1006a4f1 f   libucrt:wsetlocale.obj
 0001:00069521       ___ascii_tolower           1006a521 f i libucrt:wsetlocale.obj
 0001:0006953d       ___ascii_towlower          1006a53d f i libucrt:wsetlocale.obj
 0001:00069559       ___lc_lctowcs              1006a559 f   libucrt:wsetlocale.obj
 0001:000695e5       ___lc_wcstolc              1006a5e5 f   libucrt:wsetlocale.obj
 0001:00069789       __configthreadlocale       1006a789 f   libucrt:wsetlocale.obj
 0001:0006983d       __create_locale            1006a83d f   libucrt:wsetlocale.obj
 0001:00069d71       __free_locale              1006ad71 f   libucrt:wsetlocale.obj
 0001:00069e63       __get_current_locale       1006ae63 f   libucrt:wsetlocale.obj
 0001:00069f24       __wcreate_locale           1006af24 f   libucrt:wsetlocale.obj
 0001:0006a06c       __wcscats                  1006b06c f   libucrt:wsetlocale.obj
 0001:0006a0bd       __wsetlocale               1006b0bd f   libucrt:wsetlocale.obj
 0001:0006b19f       ___p___mb_cur_max          1006c19f f   libucrt:nlsdata.obj
 0001:0006b1cd       __realloc_base             1006c1cd f   libucrt:realloc_base.obj
 0001:0006b250       ___acrt_initialize_locks   1006c250 f   libucrt:locks.obj
 0001:0006b2a1       ___acrt_lock               1006c2a1 f   libucrt:locks.obj
 0001:0006b2bd       ___acrt_uninitialize_locks 1006c2bd f   libucrt:locks.obj
 0001:0006b2fa       ___acrt_unlock             1006c2fa f   libucrt:locks.obj
 0001:0006b316       __lock_locales             1006c316 f   libucrt:locks.obj
 0001:0006b327       __unlock_locales           1006c327 f   libucrt:locks.obj
 0001:0006b53c       ___acrt_get_begin_thread_init_policy 1006c53c f   libucrt:win_policies.obj
 0001:0006b591       ___acrt_get_developer_information_policy 1006c591 f   libucrt:win_policies.obj
 0001:0006b5e6       ___acrt_get_process_end_policy 1006c5e6 f   libucrt:win_policies.obj
 0001:0006b623       ___acrt_get_windowing_model_policy 1006c623 f   libucrt:win_policies.obj
 0001:0006b895       __close                    1006c895 f   libucrt:close.obj
 0001:0006b945       __close_nolock             1006c945 f   libucrt:close.obj
 0001:0006ba08       ??$?RU__crt_stdio_stream_data@@@__crt_internal_free_policy@@QBEXQBU__crt_stdio_stream_data@@@Z 1006ca08 f i libucrt:stream.obj
 0001:0006ba1e       ??0?$__crt_unique_heap_ptr@U__crt_stdio_stream_data@@U__crt_internal_free_policy@@@@QAE@QAU__crt_stdio_stream_data@@@Z 1006ca1e f i libucrt:stream.obj
 0001:0006ba32       ??0__crt_stdio_stream@@QAE@XZ 1006ca32 f i libucrt:stream.obj
 0001:0006ba38       ??1?$__crt_unique_heap_ptr@U__crt_stdio_stream_data@@U__crt_internal_free_policy@@@@QAE@XZ 1006ca38 f i libucrt:stream.obj
 0001:0006ba4e       ?__acrt_stdio_allocate_stream@@YA?AV__crt_stdio_stream@@XZ 1006ca4e f   libucrt:stream.obj
 0001:0006bad1       ?__acrt_stdio_free_stream@@YAXV__crt_stdio_stream@@@Z 1006cad1 f   libucrt:stream.obj
 0001:0006bb1a       ?deallocate@__crt_stdio_stream@@QAEXXZ 1006cb1a f i libucrt:stream.obj
 0001:0006bb26       ?detach@?$__crt_unique_heap_ptr@U__crt_stdio_stream_data@@U__crt_internal_free_policy@@@@QAEPAU__crt_stdio_stream_data@@XZ 1006cb26 f i libucrt:stream.obj
 0001:0006bc1e       ?lock@__crt_stdio_stream@@QBEXXZ 1006cc1e f i libucrt:stream.obj
 0001:0006bc29       ?release@?$__crt_unique_heap_ptr@U__crt_stdio_stream_data@@U__crt_internal_free_policy@@@@QAEXXZ 1006cc29 f i libucrt:stream.obj
 0001:0006bc3f       ?try_allocate@__crt_stdio_stream@@QAE_NXZ 1006cc3f f i libucrt:stream.obj
 0001:0006bc67       ??$__acrt_stdio_parse_mode@D@@YA?AU__acrt_stdio_stream_mode@@QBD@Z 1006cc67 f i libucrt:openfile.obj
 0001:0006bf1b       ??$__acrt_stdio_parse_mode@_W@@YA?AU__acrt_stdio_stream_mode@@QB_W@Z 1006cf1b f i libucrt:openfile.obj
 0001:0006c366       ??$tcsncmp@AAPBDAAY02$$CBDI@?$__crt_char_traits@D@@SAHAAPBDAAY02$$CBD$$QAI@Z 1006d366 f i libucrt:openfile.obj
 0001:0006c389       ??$tcsncmp@AAPB_WAAY02$$CB_WI@?$__crt_char_traits@_W@@SAHAAPB_WAAY02$$CB_W$$QAI@Z 1006d389 f i libucrt:openfile.obj
 0001:0006c3ac       ??$tcsnicmp@AAPBDAAY04$$CBDI@?$__crt_char_traits@D@@SAHAAPBDAAY04$$CBD$$QAI@Z 1006d3ac f i libucrt:openfile.obj
 0001:0006c3cf       ??$tcsnicmp@AAPBDAAY06$$CBDI@?$__crt_char_traits@D@@SAHAAPBDAAY06$$CBD$$QAI@Z 1006d3cf f i libucrt:openfile.obj
 0001:0006c3f2       ??$tcsnicmp@AAPBDAAY07$$CBDI@?$__crt_char_traits@D@@SAHAAPBDAAY07$$CBD$$QAI@Z 1006d3f2 f i libucrt:openfile.obj
 0001:0006c415       ??$tcsnicmp@AAPB_WAAY04$$CB_WI@?$__crt_char_traits@_W@@SAHAAPB_WAAY04$$CB_W$$QAI@Z 1006d415 f i libucrt:openfile.obj
 0001:0006c438       ??$tcsnicmp@AAPB_WAAY06$$CB_WI@?$__crt_char_traits@_W@@SAHAAPB_WAAY06$$CB_W$$QAI@Z 1006d438 f i libucrt:openfile.obj
 0001:0006c45b       ??$tcsnicmp@AAPB_WAAY07$$CB_WI@?$__crt_char_traits@_W@@SAHAAPB_WAAY07$$CB_W$$QAI@Z 1006d45b f i libucrt:openfile.obj
 0001:0006c47e       ??$tsopen_s@PAHABQBDABHABHH@?$__crt_char_traits@D@@SAH$$QAPAHABQBDABH2$$QAH@Z 1006d47e f i libucrt:openfile.obj
 0001:0006c4b0       ??$tsopen_s@PAHABQB_WABHABHH@?$__crt_char_traits@_W@@SAH$$QAPAHABQB_WABH2$$QAH@Z 1006d4b0 f i libucrt:openfile.obj
 0001:0006c4e2       ?__acrt_stdio_parse_mode_D@@YA_NAAU__acrt_stdio_stream_mode@@@Z 1006d4e2 f i libucrt:openfile.obj
 0001:0006c503       ?__acrt_stdio_parse_mode_N@@YA_NAAU__acrt_stdio_stream_mode@@@Z 1006d503 f i libucrt:openfile.obj
 0001:0006c519       ?__acrt_stdio_parse_mode_R@@YA_NAAU__acrt_stdio_stream_mode@@AA_N@Z 1006d519 f i libucrt:openfile.obj
 0001:0006c53e       ?__acrt_stdio_parse_mode_S@@YA_NAAU__acrt_stdio_stream_mode@@AA_N@Z 1006d53e f i libucrt:openfile.obj
 0001:0006c563       ?__acrt_stdio_parse_mode_T@@YA_NAAU__acrt_stdio_stream_mode@@@Z 1006d563 f i libucrt:openfile.obj
 0001:0006c589       ?__acrt_stdio_parse_mode_b@@YA_NAAU__acrt_stdio_stream_mode@@@Z 1006d589 f i libucrt:openfile.obj
 0001:0006c5b1       ?__acrt_stdio_parse_mode_c@@YA_NAAU__acrt_stdio_stream_mode@@AA_N@Z 1006d5b1 f i libucrt:openfile.obj
 0001:0006c5db       ?__acrt_stdio_parse_mode_n@@YA_NAAU__acrt_stdio_stream_mode@@AA_N@Z 1006d5db f i libucrt:openfile.obj
 0001:0006c605       ?__acrt_stdio_parse_mode_plus@@YA_NAAU__acrt_stdio_stream_mode@@AA_N@Z 1006d605 f i libucrt:openfile.obj
 0001:0006c648       ?__acrt_stdio_parse_mode_t@@YA_NAAU__acrt_stdio_stream_mode@@@Z 1006d648 f i libucrt:openfile.obj
 0001:0006c670       ?__acrt_stdio_parse_mode_x@@YA_NAAU__acrt_stdio_stream_mode@@@Z 1006d670 f i libucrt:openfile.obj
 0001:0006c698       __openfile                 1006d698 f   libucrt:openfile.obj
 0001:0006c6a5       __wopenfile                1006d6a5 f   libucrt:openfile.obj
 0001:0006cd71       __read                     1006dd71 f   libucrt:read.obj
 0001:0006ceca       __read_nolock              1006deca f   libucrt:read.obj
 0001:0006d366       __utf8_no_of_trailbytes    1006e366 f i libucrt:read.obj
 0001:0006d888       ___acrt_stdio_refill_and_read_narrow_nolock 1006e888 f   libucrt:_filbuf.obj
 0001:0006d895       ___acrt_stdio_refill_and_read_wide_nolock 1006e895 f   libucrt:_filbuf.obj
 0001:0006e259       __write                    1006f259 f   libucrt:write.obj
 0001:0006e387       __write_nolock             1006f387 f   libucrt:write.obj
 0001:0006eb40       ___acrt_stdio_flush_and_write_narrow_nolock 1006fb40 f   libucrt:_flsbuf.obj
 0001:0006eb4d       ___acrt_stdio_flush_and_write_wide_nolock 1006fb4d f   libucrt:_flsbuf.obj
 0001:0006ebdc       ___acrt_MultiByteToWideChar 1006fbdc f   libucrt:multibytetowidechar.obj
 0001:0006ec77       __wremove                  1006fc77 f   libucrt:wunlink.obj
 0001:0006eca9       __wunlink                  1006fca9 f   libucrt:wunlink.obj
 0001:0006f128       __lseek                    10070128 f   libucrt:lseek.obj
 0001:0006f135       __lseek_nolock             10070135 f   libucrt:lseek.obj
 0001:0006f142       __lseeki64                 10070142 f   libucrt:lseek.obj
 0001:0006f163       __lseeki64_nolock          10070163 f   libucrt:lseek.obj
 0001:0006f184       __chgsign                  10070184 f   libucrt:ieeemisc.obj
 0001:0006f1b6       __chgsignf                 100701b6 f   libucrt:ieeemisc.obj
 0001:0006f1df       __copysign                 100701df f   libucrt:ieeemisc.obj
 0001:0006f20a       __copysignf                1007020a f   libucrt:ieeemisc.obj
 0001:0006f22d       __finite                   1007022d f   libucrt:ieeemisc.obj
 0001:0006f24d       __fpclass                  1007024d f   libucrt:ieeemisc.obj
 0001:0006f31a       __isnan                    1007031a f   libucrt:ieeemisc.obj
 0001:0006f35d       __logb                     1007035d f   libucrt:ieeemisc.obj
 0001:0006f45f       __nextafter                1007045f f   libucrt:ieeemisc.obj
 0001:0006f485       __scalb                    10070485 f   libucrt:ieeemisc.obj
 0001:0006f4a5       __add_exp                  100704a5 f   libucrt:util.obj
 0001:0006f4df       __decomp                   100704df f   libucrt:util.obj
 0001:0006f5e5       __get_exp                  100705e5 f   libucrt:util.obj
 0001:0006f603       __set_bexp                 10070603 f   libucrt:util.obj
 0001:0006f633       __set_exp                  10070633 f   libucrt:util.obj
 0001:0006f66b       __sptype                   1007066b f   libucrt:util.obj
 0001:0006f6e0       ___clrfp_sse2              100706e0 f   libucrt:fpctrl.obj
 0001:0006f709       ___ctrlfp_sse2             10070709 f   libucrt:fpctrl.obj
 0001:0006f752       ___fclrf_sse2              10070752 f   libucrt:fpctrl.obj
 0001:0006f776       ___get_fpsr_sse2           10070776 f   libucrt:fpctrl.obj
 0001:0006f799       ___set_fpsr_sse2           10070799 f   libucrt:fpctrl.obj
 0001:0006f839       ___set_statfp_sse2         10070839 f   libucrt:fpctrl.obj
 0001:0006f85a       ___statfp_sse2             1007085a f   libucrt:fpctrl.obj
 0001:0006f874       __clrfp                    10070874 f   libucrt:fpctrl.obj
 0001:0006f889       __ctrlfp                   10070889 f   libucrt:fpctrl.obj
 0001:0006f8bd       __set_statfp               100708bd f   libucrt:fpctrl.obj
 0001:0006f92c       __statfp                   1007092c f   libucrt:fpctrl.obj
 0001:0006f940       _cos                       10070940 f   libucrt:cos.obj
 0001:0006f9a0       _sin                       100709a0 f   libucrt:sin.obj
 0001:0006f9f3       ___pctype_func             100709f3 f   libucrt:ctype.obj
 0001:0006fa20       ___pwctype_func            10070a20 f   libucrt:ctype.obj
 0001:0006fa26       __iswctype_l               10070a26 f   libucrt:iswctype.obj
 0001:0006fa3f       _iswctype                  10070a3f f   libucrt:iswctype.obj
 0001:0006fac2       __isctype                  10070ac2 f   libucrt:isctype.obj
 0001:0006fb01       __isctype_l                10070b01 f   libucrt:isctype.obj
 0001:0006fbfe       __isleadbyte_fast_internal 10070bfe f i libucrt:isctype.obj
 0001:0006fc44       ___isascii                 10070c44 f i libucrt:_ctype.obj
 0001:0006fc5a       ___iscsym                  10070c5a f i libucrt:_ctype.obj
 0001:0006fc84       ___iscsymf                 10070c84 f i libucrt:_ctype.obj
 0001:0006fcaa       ___toascii                 10070caa f i libucrt:_ctype.obj
 0001:0006fcba       __isalnum_l                10070cba f i libucrt:_ctype.obj
 0001:0006fd01       __isalpha_l                10070d01 f i libucrt:_ctype.obj
 0001:0006fd48       __isblank_l                10070d48 f i libucrt:_ctype.obj
 0001:0006fd99       __iscntrl_l                10070d99 f i libucrt:_ctype.obj
 0001:0006fddc       __iscsym_l                 10070ddc f i libucrt:_ctype.obj
 0001:0006fe07       __iscsymf_l                10070e07 f i libucrt:_ctype.obj
 0001:0006fe32       __isdigit_l                10070e32 f i libucrt:_ctype.obj
 0001:0006fe75       __isgraph_l                10070e75 f i libucrt:_ctype.obj
 0001:0006febc       __islower_l                10070ebc f i libucrt:_ctype.obj
 0001:0006feff       __isprint_l                10070eff f i libucrt:_ctype.obj
 0001:0006ff46       __ispunct_l                10070f46 f i libucrt:_ctype.obj
 0001:0006ff89       __isspace_l                10070f89 f i libucrt:_ctype.obj
 0001:0006ffcc       __isupper_l                10070fcc f i libucrt:_ctype.obj
 0001:0007000f       __isxdigit_l               1007100f f i libucrt:_ctype.obj
 0001:00070056       _isalnum                   10071056 f i libucrt:_ctype.obj
 0001:00070097       _isalpha                   10071097 f i libucrt:_ctype.obj
 0001:000700d8       _isblank                   100710d8 f i libucrt:_ctype.obj
 0001:00070120       _iscntrl                   10071120 f i libucrt:_ctype.obj
 0001:0007015d       _isdigit                   1007115d f i libucrt:_ctype.obj
 0001:0007019a       _isgraph                   1007119a f i libucrt:_ctype.obj
 0001:000701db       _islower                   100711db f i libucrt:_ctype.obj
 0001:00070218       _isprint                   10071218 f i libucrt:_ctype.obj
 0001:00070259       _ispunct                   10071259 f i libucrt:_ctype.obj
 0001:00070296       _isspace                   10071296 f i libucrt:_ctype.obj
 0001:000702d3       _isupper                   100712d3 f i libucrt:_ctype.obj
 0001:00070310       _isxdigit                  10071310 f i libucrt:_ctype.obj
 0001:00070351       __fgetwc_nolock            10071351 f   libucrt:fgetwc.obj
 0001:00070520       __fgetwchar                10071520 f   libucrt:fgetwc.obj
 0001:00070534       __getwc_nolock             10071534 f   libucrt:fgetwc.obj
 0001:00070541       _fgetwc                    10071541 f   libucrt:fgetwc.obj
 0001:000705d5       _getwc                     100715d5 f   libucrt:fgetwc.obj
 0001:000705e2       _getwchar                  100715e2 f   libucrt:fgetwc.obj
 0001:000707ca       __ungetwc_nolock           100717ca f   libucrt:ungetwc.obj
 0001:000708ad       _ungetwc                   100718ad f   libucrt:ungetwc.obj
 0001:0007094a       __fgetc_nolock             1007194a f   libucrt:fgetc.obj
 0001:00070995       __fgetchar                 10071995 f   libucrt:fgetc.obj
 0001:000709a9       __getc_nolock              100719a9 f   libucrt:fgetc.obj
 0001:000709b6       _fgetc                     100719b6 f   libucrt:fgetc.obj
 0001:00070b00       _getc                      10071b00 f   libucrt:fgetc.obj
 0001:00070b0d       _getchar                   10071b0d f   libucrt:fgetc.obj
 0001:00070b12       __ungetc_nolock            10071b12 f   libucrt:ungetc.obj
 0001:00070c4a       _ungetc                    10071c4a f   libucrt:ungetc.obj
 0001:00070cd9       ___fpe_flt_rounds          10071cd9 f   libucrt:fegetround.obj
 0001:00070d1a       _fegetround                10071d1a f   libucrt:fegetround.obj
 0001:00070d2a       ??$__crt_fast_decode_pointer@P6AHPAU_exception@@@Z@@YAP6AHPAU_exception@@@ZQ6AH0@Z@Z 10071d2a f i libucrt:matherr.obj
 0001:00070d45       ??$__crt_fast_encode_pointer@P6AHPAU_exception@@@Z@@YAP6AHPAU_exception@@@ZQ6AH0@Z@Z 10071d45 f i libucrt:matherr.obj
 0001:00070d6b       ?initialize@?$dual_state_global@P6AHPAU_exception@@@Z@__crt_state_management@@QAEXQ6AHPAU_exception@@@Z@Z 10071d6b f i libucrt:matherr.obj
 0001:00070d9a       ?value@?$dual_state_global@P6AHPAU_exception@@@Z@__crt_state_management@@QAEAAP6AHPAU_exception@@@ZXZ 10071d9a f i libucrt:matherr.obj
 0001:00070d9d       ___acrt_has_user_matherr   10071d9d f   libucrt:matherr.obj
 0001:00070dbb       ___acrt_initialize_user_matherr 10071dbb f   libucrt:matherr.obj
 0001:00070dcd       ___acrt_invoke_user_matherr 10071dcd f   libucrt:matherr.obj
 0001:00070e0b       ___setusermatherr          10071e0b f   libucrt:matherr.obj
 0001:00071041       ??$__acrt_wcs_to_mbs_cp@U__crt_win32_buffer_internal_dynamic_resizing@@@@YAHQB_WAAV?$__crt_win32_buffer@DU__crt_win32_buffer_internal_dynamic_resizing@@@@I@Z 10072041 f i libucrt:argv_wildcards.obj
 0001:00071bf9       ??$tcslen@ABQBD@?$__crt_char_traits@D@@SAIABQBD@Z 10072bf9 f i libucrt:argv_wildcards.obj
 0001:00071c17       ??$tcslen@ABQB_W@?$__crt_char_traits@_W@@SAIABQB_W@Z 10072c17 f i libucrt:argv_wildcards.obj
 0001:00071c3c       ??$tcsncpy_s@AAPADIAAPADABI@?$__crt_char_traits@D@@SAHAAPAD$$QAI0ABI@Z 10072c3c f i libucrt:argv_wildcards.obj
 0001:00071c67       ??$tcsncpy_s@AAPA_WIAAPA_WABI@?$__crt_char_traits@_W@@SAHAAPA_W$$QAI0ABI@Z 10072c67 f i libucrt:argv_wildcards.obj
 0001:00071c92       ??$tcsncpy_s@PADABIABQBDABI@?$__crt_char_traits@D@@SAH$$QAPADABIABQBD1@Z 10072c92 f i libucrt:argv_wildcards.obj
 0001:00071cbd       ??$tcsncpy_s@PADIABQBDABI@?$__crt_char_traits@D@@SAH$$QAPAD$$QAIABQBDABI@Z 10072cbd f i libucrt:argv_wildcards.obj
 0001:00071ce8       ??$tcsncpy_s@PA_WABIABQB_WABI@?$__crt_char_traits@_W@@SAH$$QAPA_WABIABQB_W1@Z 10072ce8 f i libucrt:argv_wildcards.obj
 0001:00071d13       ??$tcsncpy_s@PA_WIABQB_WABI@?$__crt_char_traits@_W@@SAH$$QAPA_W$$QAIABQB_WABI@Z 10072d13 f i libucrt:argv_wildcards.obj
 0001:00071d3e       ??$tcspbrk@AAPADAAY02$$CBD@?$__crt_char_traits@D@@SAPADAAPADAAY02$$CBD@Z 10072d3e f i libucrt:argv_wildcards.obj
 0001:00071d59       ??$tcspbrk@AAPA_WAAY02$$CB_W@?$__crt_char_traits@_W@@SAPA_WAAPA_WAAY02$$CB_W@Z 10072d59 f i libucrt:argv_wildcards.obj
 0001:00071d74       ??0?$__crt_unique_handle_t@U__crt_findfile_traits@@@@QAE@QAX@Z 10072d74 f i libucrt:argv_wildcards.obj
 0001:00071d88       ??0?$__crt_win32_buffer@DU__crt_win32_buffer_internal_dynamic_resizing@@@@QAE@XZ 10072d88 f i libucrt:argv_wildcards.obj
 0001:00071dc3       ??1?$__crt_unique_handle_t@U__crt_findfile_traits@@@@QAE@XZ 10072dc3 f i libucrt:argv_wildcards.obj
 0001:00071ddf       ??1?$__crt_win32_buffer@DU__crt_win32_buffer_internal_dynamic_resizing@@@@QAE@XZ 10072ddf f i libucrt:argv_wildcards.obj
 0001:00071f3e       ?_deallocate@?$__crt_win32_buffer@DU__crt_win32_buffer_internal_dynamic_resizing@@@@AAEXXZ 10072f3e f i libucrt:argv_wildcards.obj
 0001:00071f5e       ?allocate@?$__crt_win32_buffer@DU__crt_win32_buffer_internal_dynamic_resizing@@@@QAEHI@Z 10072f5e f i libucrt:argv_wildcards.obj
 0001:00072033       ?capacity@?$__crt_win32_buffer@DU__crt_win32_buffer_internal_dynamic_resizing@@@@QBEIXZ 10073033 f i libucrt:argv_wildcards.obj
 0001:00072037       ?close@?$__crt_unique_handle_t@U__crt_findfile_traits@@@@QAEXXZ 10073037 f i libucrt:argv_wildcards.obj
 0001:00072053       ?close@__crt_findfile_traits@@SA_NPAX@Z 10073053 f i libucrt:argv_wildcards.obj
 0001:0007206d       ?data@?$__crt_win32_buffer@DU__crt_win32_buffer_internal_dynamic_resizing@@@@QAEPADXZ 1007306d f i libucrt:argv_wildcards.obj
 0001:00072071       ?debug_info@?$__crt_win32_buffer@DU__crt_win32_buffer_internal_dynamic_resizing@@@@QBEABV__crt_win32_buffer_empty_debug_info@@XZ 10073071 f i libucrt:argv_wildcards.obj
 0001:000721cc       ?get@?$__crt_unique_handle_t@U__crt_findfile_traits@@@@QBEPAXXZ 100731cc f i libucrt:argv_wildcards.obj
 0001:0007220e       ?get_invalid_value@__crt_findfile_traits@@SAPAXXZ 1007320e f i libucrt:argv_wildcards.obj
 0001:0007226e       ?set_to_nullptr@?$__crt_win32_buffer@DU__crt_win32_buffer_internal_dynamic_resizing@@@@QAEXXZ 1007326e f i libucrt:argv_wildcards.obj
 0001:0007228a       ?size@?$__crt_win32_buffer@DU__crt_win32_buffer_internal_dynamic_resizing@@@@QAEXI@Z 1007328a f i libucrt:argv_wildcards.obj
 0001:000722b2       ?strpbrk@@YAPADQADQBD@Z    100732b2 f i libucrt:argv_wildcards.obj
 0001:000722bf       ?wcspbrk@@YAPA_WPA_WPB_W@Z 100732bf f i libucrt:argv_wildcards.obj
 0001:000722cc       ___acrt_expand_narrow_argv_wildcards 100732cc f   libucrt:argv_wildcards.obj
 0001:000722d9       ___acrt_expand_wide_argv_wildcards 100732d9 f   libucrt:argv_wildcards.obj
 0001:000723de       ??$__acrt_wcs_to_mbs_cp@U__crt_win32_buffer_no_resizing@@@@YAHQB_WAAV?$__crt_win32_buffer@DU__crt_win32_buffer_no_resizing@@@@I@Z 100733de f i libucrt:getmodulefilenamea.obj
 0001:00072402       ??0?$__crt_win32_buffer@DU__crt_win32_buffer_no_resizing@@@@QAE@QADI@Z 10073402 f i libucrt:getmodulefilenamea.obj
 0001:0007242f       ??1?$__crt_win32_buffer@DU__crt_win32_buffer_no_resizing@@@@QAE@XZ 1007342f f i libucrt:getmodulefilenamea.obj
 0001:00072469       ?_deallocate@?$__crt_win32_buffer@DU__crt_win32_buffer_no_resizing@@@@AAEXXZ 10073469 f i libucrt:getmodulefilenamea.obj
 0001:00072476       ?allocate@?$__crt_win32_buffer@DU__crt_win32_buffer_no_resizing@@@@QAEHI@Z 10073476 f i libucrt:getmodulefilenamea.obj
 0001:000724a6       ?allocate@__crt_win32_buffer_no_resizing@@SAHQAPAXIABV__crt_win32_buffer_empty_debug_info@@@Z 100734a6 f i libucrt:getmodulefilenamea.obj
 0001:000724b6       ?capacity@?$__crt_win32_buffer@DU__crt_win32_buffer_no_resizing@@@@QBEIXZ 100734b6 f i libucrt:getmodulefilenamea.obj
 0001:000724ba       ?data@?$__crt_win32_buffer@DU__crt_win32_buffer_no_resizing@@@@QAEPADXZ 100734ba f i libucrt:getmodulefilenamea.obj
 0001:000724be       ?deallocate@__crt_win32_buffer_no_resizing@@SAXQAXABV__crt_win32_buffer_empty_debug_info@@@Z 100734be f i libucrt:getmodulefilenamea.obj
 0001:000724c1       ?debug_info@?$__crt_win32_buffer@DU__crt_win32_buffer_no_resizing@@@@QBEABV__crt_win32_buffer_empty_debug_info@@XZ 100734c1 f i libucrt:getmodulefilenamea.obj
 0001:000724c4       ?set_to_nullptr@?$__crt_win32_buffer@DU__crt_win32_buffer_no_resizing@@@@QAEXXZ 100734c4 f i libucrt:getmodulefilenamea.obj
 0001:000724dd       ?size@?$__crt_win32_buffer@DU__crt_win32_buffer_no_resizing@@@@QAEXI@Z 100734dd f i libucrt:getmodulefilenamea.obj
 0001:000724ef       ?size@?$__crt_win32_buffer@DU__crt_win32_buffer_no_resizing@@@@QBEIXZ 100734ef f i libucrt:getmodulefilenamea.obj
 0001:000724f3       ___acrt_GetModuleFileNameA 100734f3 f   libucrt:getmodulefilenamea.obj
 0001:0007264b       ??$initialize_from_array@$$BY10BAA@E@?$dual_state_global@PAE@__crt_state_management@@QAAXAAY10BAA@E@Z 1007364b f i libucrt:mbctype.obj
 0001:0007265d       ??$initialize_from_array@$$BY10BAB@E@?$dual_state_global@PAE@__crt_state_management@@QAAXAAY10BAB@E@Z 1007365d f i libucrt:mbctype.obj
 0001:000727bc       ?dangerous_get_state_array@?$dual_state_global@PAE@__crt_state_management@@QAEPAPAEXZ 100737bc f i libucrt:mbctype.obj
 0001:000727bf       ?dangerous_get_state_array@?$dual_state_global@PAU__crt_multibyte_data@@@__crt_state_management@@QAEPAPAU__crt_multibyte_data@@XZ 100737bf f i libucrt:mbctype.obj
 0001:0007284f       ?initialize@?$dual_state_global@PAU__crt_multibyte_data@@@__crt_state_management@@QAEXQAU__crt_multibyte_data@@@Z 1007384f f i libucrt:mbctype.obj
 0001:00072d04       ?value@?$dual_state_global@PAE@__crt_state_management@@QAEAAPAEXZ 10073d04 f i libucrt:mbctype.obj
 0001:00072d07       ___acrt_initialize_multibyte 10073d07 f   libucrt:mbctype.obj
 0001:00072d61       ___acrt_update_thread_multibyte_data 10073d61 f   libucrt:mbctype.obj
 0001:00072d78       ___p__mbcasemap            10073d78 f   libucrt:mbctype.obj
 0001:00072d7e       ___p__mbctype              10073d7e f   libucrt:mbctype.obj
 0001:00072d84       __getmbcp                  10073d84 f   libucrt:mbctype.obj
 0001:00072dc5       __setmbcp                  10073dc5 f   libucrt:mbctype.obj
 0001:00072deb       __setmbcp_nolock           10073deb f   libucrt:mbctype.obj
 0001:00073167       __ismbbalnum               10074167 f   libucrt:ismbbyte.obj
 0001:00073188       __ismbbalnum_l             10074188 f   libucrt:ismbbyte.obj
 0001:000731ab       __ismbbalpha               100741ab f   libucrt:ismbbyte.obj
 0001:000731cc       __ismbbalpha_l             100741cc f   libucrt:ismbbyte.obj
 0001:000731ef       __ismbbblank               100741ef f   libucrt:ismbbyte.obj
 0001:0007321a       __ismbbblank_l             1007421a f   libucrt:ismbbyte.obj
 0001:00073247       __ismbbgraph               10074247 f   libucrt:ismbbyte.obj
 0001:00073268       __ismbbgraph_l             10074268 f   libucrt:ismbbyte.obj
 0001:0007328b       __ismbbkalnum              1007428b f   libucrt:ismbbyte.obj
 0001:000732a9       __ismbbkalnum_l            100742a9 f   libucrt:ismbbyte.obj
 0001:000732c8       __ismbbkana                100742c8 f   libucrt:ismbbyte.obj
 0001:000732df       __ismbbkana_l              100742df f   libucrt:ismbbyte.obj
 0001:00073341       __ismbbkprint              10074341 f   libucrt:ismbbyte.obj
 0001:0007335f       __ismbbkprint_l            1007435f f   libucrt:ismbbyte.obj
 0001:0007337e       __ismbbkpunct              1007437e f   libucrt:ismbbyte.obj
 0001:0007339c       __ismbbkpunct_l            1007439c f   libucrt:ismbbyte.obj
 0001:000733bb       __ismbblead                100743bb f   libucrt:ismbbyte.obj
 0001:000733d9       __ismbblead_l              100743d9 f   libucrt:ismbbyte.obj
 0001:000733f8       __ismbbprint               100743f8 f   libucrt:ismbbyte.obj
 0001:00073419       __ismbbprint_l             10074419 f   libucrt:ismbbyte.obj
 0001:0007343c       __ismbbpunct               1007443c f   libucrt:ismbbyte.obj
 0001:0007345a       __ismbbpunct_l             1007445a f   libucrt:ismbbyte.obj
 0001:00073479       __ismbbtrail               10074479 f   libucrt:ismbbyte.obj
 0001:00073497       __ismbbtrail_l             10074497 f   libucrt:ismbbyte.obj
 0001:000734b6       ___acrt_initialize_command_line 100744b6 f   libucrt:argv_data.obj
 0001:000734d5       ___acrt_uninitialize_command_line 100744d5 f   libucrt:argv_data.obj
 0001:000734d8       ___p___argc                100744d8 f   libucrt:argv_data.obj
 0001:000734de       ___p___argv                100744de f   libucrt:argv_data.obj
 0001:000734e4       ___p___wargv               100744e4 f   libucrt:argv_data.obj
 0001:000734ea       ___p__acmdln               100744ea f   libucrt:argv_data.obj
 0001:000734f0       ___p__pgmptr               100744f0 f   libucrt:argv_data.obj
 0001:000734f6       ___p__wcmdln               100744f6 f   libucrt:argv_data.obj
 0001:000734fc       ___p__wpgmptr              100744fc f   libucrt:argv_data.obj
 0001:00073502       __get_pgmptr               10074502 f   libucrt:argv_data.obj
 0001:0007353f       __get_wpgmptr              1007453f f   libucrt:argv_data.obj
 0001:000735f4       _wcscpy_s                  100745f4 f   libucrt:wcscpy_s.obj
 0001:000736ef       ___acrt_WideCharToMultiByte 100746ef f   libucrt:widechartomultibyte.obj
 0001:00073881       ___dcrt_get_narrow_environment_from_os 10074881 f   libucrt:get_environment_from_os.obj
 0001:00073926       ___dcrt_get_wide_environment_from_os 10074926 f   libucrt:get_environment_from_os.obj
 0001:0007421f       ??$get_or_create_environment_nolock@$$V@?$__crt_char_traits@D@@SAPAPADXZ 1007521f f i libucrt:setenv.obj
 0001:00074224       ??$get_or_create_environment_nolock@$$V@?$__crt_char_traits@_W@@SAPAPA_WXZ 10075224 f i libucrt:setenv.obj
 0001:00074229       ??$set_environment_variable@ABQADQAD@?$__crt_char_traits@D@@SAHABQAD$$QBQAD@Z 10075229 f i libucrt:setenv.obj
 0001:00074247       ??$set_environment_variable@ABQA_WQA_W@?$__crt_char_traits@_W@@SAHABQA_W$$QBQA_W@Z 10075247 f i libucrt:setenv.obj
 0001:00074263       ??$tcschr@ABQADD@?$__crt_char_traits@D@@SAPADABQAD$$QAD@Z 10075263 f i libucrt:setenv.obj
 0001:00074283       ??$tcschr@ABQA_WD@?$__crt_char_traits@_W@@SAPA_WABQA_W$$QAD@Z 10075283 f i libucrt:setenv.obj
 0001:000742a8       ??$tcscpy_s@AAPADABIAAPAD@?$__crt_char_traits@D@@SAHAAPADABI0@Z 100752a8 f i libucrt:setenv.obj
 0001:000742cd       ??$tcscpy_s@AAPA_WABIAAPA_W@?$__crt_char_traits@_W@@SAHAAPA_WABI0@Z 100752cd f i libucrt:setenv.obj
 0001:000742f2       ??$tcscpy_s@ABQADABIABQAD@?$__crt_char_traits@D@@SAHABQADABI0@Z 100752f2 f i libucrt:setenv.obj
 0001:00074317       ??$tcscpy_s@ABQA_WABIABQA_W@?$__crt_char_traits@_W@@SAHABQA_WABI0@Z 10075317 f i libucrt:setenv.obj
 0001:0007433c       ??$tcslen@ABQAD@?$__crt_char_traits@D@@SAIABQAD@Z 1007533c f i libucrt:setenv.obj
 0001:0007435a       ??$tcslen@ABQA_W@?$__crt_char_traits@_W@@SAIABQA_W@Z 1007535a f i libucrt:setenv.obj
 0001:0007437f       ??$tcsnicoll@ABQBDAAPADABI@?$__crt_char_traits@D@@SAHABQBDAAPADABI@Z 1007537f f i libucrt:setenv.obj
 0001:000743a4       ??$tcsnicoll@ABQB_WAAPA_WABI@?$__crt_char_traits@_W@@SAHABQB_WAAPA_WABI@Z 100753a4 f i libucrt:setenv.obj
 0001:000743ed       ?strchr@@YAPADQADH@Z       100753ed f i libucrt:setenv.obj
 0001:000743fa       ?wcschr@@YAPA_WPA_W_W@Z    100753fa f i libucrt:setenv.obj
 0001:00074407       ___dcrt_set_variable_in_narrow_environment_nolock 10075407 f   libucrt:setenv.obj
 0001:00074414       ___dcrt_set_variable_in_wide_environment_nolock 10075414 f   libucrt:setenv.obj
 0001:00074421       __recalloc                 10075421 f   libucrt:recalloc.obj
 0001:0007442e       __recalloc_base            1007542e f   libucrt:recalloc.obj
 0001:000744b6       ___acrt_getheap            100754b6 f   libucrt:heap_handle.obj
 0001:000744bc       ___acrt_initialize_heap    100754bc f   libucrt:heap_handle.obj
 0001:000744d1       ___acrt_uninitialize_heap  100754d1 f   libucrt:heap_handle.obj
 0001:000744dd       __get_heap_handle          100754dd f   libucrt:heap_handle.obj
 0001:000744e3       ___acrt_execute_initializers 100754e3 f   libucrt:shared_initialization.obj
 0001:00074565       ___acrt_execute_uninitializers 10075565 f   libucrt:shared_initialization.obj
 0001:000745a2       ??$?B$$A6AHI@Z@__crt_fast_encoded_nullptr_t@@QBEP6AHI@ZXZ 100755a2 f i libucrt:new_handler.obj
 0001:000745a8       ??$__crt_fast_decode_pointer@P6AHI@Z@@YAP6AHI@ZQ6AHI@Z@Z 100755a8 f i libucrt:new_handler.obj
 0001:000745c3       ??$__crt_fast_encode_pointer@P6AHI@Z@@YAP6AHI@ZQ6AHI@Z@Z 100755c3 f i libucrt:new_handler.obj
 0001:000745e9       ?_set_new_handler@@YAP6AHI@ZH@Z 100755e9 f   libucrt:new_handler.obj
 0001:000745f9       ?initialize@?$dual_state_global@P6AHI@Z@__crt_state_management@@QAEXQ6AHI@Z@Z 100755f9 f i libucrt:new_handler.obj
 0001:00074628       ?value@?$dual_state_global@P6AHI@Z@__crt_state_management@@QAEAAP6AHI@ZXZ 10075628 f i libucrt:new_handler.obj
 0001:0007462b       ___acrt_initialize_new_handler 1007562b f   libucrt:new_handler.obj
 0001:0007463d       __callnewh                 1007563d f   libucrt:new_handler.obj
 0001:00074675       __query_new_handler        10075675 f   libucrt:new_handler.obj
 0001:000746e8       __set_new_handler          100756e8 f   libucrt:new_handler.obj
 0001:0007476c       ??$?B$$A6AXH@Z@__crt_fast_encoded_nullptr_t@@QBEP6AXH@ZXZ 1007576c f i libucrt:signal.obj
 0001:0007481e       ??$__crt_fast_decode_pointer@P6AXH@Z@@YAP6AXH@ZQ6AXH@Z@Z 1007581e f i libucrt:signal.obj
 0001:00074839       ??$__crt_fast_encode_pointer@P6AXH@Z@@YAP6AXH@ZQ6AXH@Z@Z 10075839 f i libucrt:signal.obj
 0001:000749de       ?initialize@?$dual_state_global@P6AXH@Z@__crt_state_management@@QAEXQ6AXH@Z@Z 100759de f i libucrt:signal.obj
 0001:00074abc       ?value@?$dual_state_global@P6AXH@Z@__crt_state_management@@QAEAAP6AXH@ZXZ 10075abc f i libucrt:signal.obj
 0001:00074abf       ___acrt_get_sigabrt_handler 10075abf f   libucrt:signal.obj
 0001:00074aef       ___acrt_initialize_signal_handlers 10075aef f   libucrt:signal.obj
 0001:00074b14       ___fpecode                 10075b14 f   libucrt:signal.obj
 0001:00074b1f       ___pxcptinfoptrs           10075b1f f   libucrt:signal.obj
 0001:00074b2a       _raise                     10075b2a f   libucrt:signal.obj
 0001:00074da3       _signal                    10075da3 f   libucrt:signal.obj
 0001:00074fd1       ?value@?$dual_state_global@J@__crt_state_management@@QAEAAJXZ 10075fd1 f i libucrt:new_mode.obj
 0001:00074fd4       __query_new_mode           10075fd4 f   libucrt:new_mode.obj
 0001:00074fdb       __set_new_mode             10075fdb f   libucrt:new_mode.obj
 0001:000750bd       ___acrt_DownlevelLCIDToLocaleName 100760bd f   libucrt:lcidtoname_downlevel.obj
 0001:00075191       ___acrt_DownlevelLocaleNameToLCID 10076191 f   libucrt:lcidtoname_downlevel.obj
 0001:00075381       __commit                   10076381 f   libucrt:commit.obj
 0001:0007541d       ??$?RU__crt_lowio_handle_data@@@__crt_internal_free_policy@@QBEXQBU__crt_lowio_handle_data@@@Z 1007641d f i libucrt:osfinfo.obj
 0001:00075433       ??0?$__crt_unique_heap_ptr@U__crt_lowio_handle_data@@U__crt_internal_free_policy@@@@QAE@QAU__crt_lowio_handle_data@@@Z 10076433 f i libucrt:osfinfo.obj
 0001:00075447       ??1?$__crt_unique_heap_ptr@U__crt_lowio_handle_data@@U__crt_internal_free_policy@@@@QAE@XZ 10076447 f i libucrt:osfinfo.obj
 0001:0007545d       ??B?$__crt_unique_heap_ptr@U__crt_lowio_handle_data@@U__crt_internal_free_policy@@@@QBE_NXZ 1007645d f i libucrt:osfinfo.obj
 0001:00075464       ?detach@?$__crt_unique_heap_ptr@U__crt_lowio_handle_data@@U__crt_internal_free_policy@@@@QAEPAU__crt_lowio_handle_data@@XZ 10076464 f i libucrt:osfinfo.obj
 0001:0007546a       ?get@?$__crt_unique_heap_ptr@U__crt_lowio_handle_data@@U__crt_internal_free_policy@@@@QBEPAU__crt_lowio_handle_data@@XZ 1007646a f i libucrt:osfinfo.obj
 0001:0007546d       ?is_valid@?$__crt_unique_heap_ptr@U__crt_lowio_handle_data@@U__crt_internal_free_policy@@@@QBE_NXZ 1007646d f i libucrt:osfinfo.obj
 0001:00075474       ?release@?$__crt_unique_heap_ptr@U__crt_lowio_handle_data@@U__crt_internal_free_policy@@@@QAEXXZ 10076474 f i libucrt:osfinfo.obj
 0001:0007548a       ___acrt_lowio_create_handle_array 1007648a f   libucrt:osfinfo.obj
 0001:00075523       ___acrt_lowio_destroy_handle_array 10076523 f   libucrt:osfinfo.obj
 0001:00075565       ___acrt_lowio_ensure_fh_exists 10076565 f   libucrt:osfinfo.obj
 0001:0007562a       ___acrt_lowio_lock_fh      1007662a f   libucrt:osfinfo.obj
 0001:00075655       ___acrt_lowio_set_os_handle 10076655 f   libucrt:osfinfo.obj
 0001:0007570b       ___acrt_lowio_unlock_fh    1007670b f   libucrt:osfinfo.obj
 0001:00075736       __alloc_osfhnd             10076736 f   libucrt:osfinfo.obj
 0001:0007588d       __free_osfhnd              1007688d f   libucrt:osfinfo.obj
 0001:00075942       __get_osfhandle            10076942 f   libucrt:osfinfo.obj
 0001:000759c6       __open_osfhandle           100769c6 f   libucrt:osfinfo.obj
 0001:00075b21       ___iswcsym                 10076b21 f i libucrt:_wctype.obj
 0001:00075b50       ___iswcsymf                10076b50 f i libucrt:_wctype.obj
 0001:00075b7f       __isleadbyte_l             10076b7f f i libucrt:_wctype.obj
 0001:00075bc7       __iswalnum_l               10076bc7 f i libucrt:_wctype.obj
 0001:00075be2       __iswalpha_l               10076be2 f i libucrt:_wctype.obj
 0001:00075bfd       __iswblank_l               10076bfd f i libucrt:_wctype.obj
 0001:00075c21       __iswcntrl_l               10076c21 f i libucrt:_wctype.obj
 0001:00075c38       __iswcsym_l                10076c38 f i libucrt:_wctype.obj
 0001:00075c67       __iswcsymf_l               10076c67 f i libucrt:_wctype.obj
 0001:00075c96       __iswdigit_l               10076c96 f i libucrt:_wctype.obj
 0001:00075cad       __iswgraph_l               10076cad f i libucrt:_wctype.obj
 0001:00075cc8       __iswlower_l               10076cc8 f i libucrt:_wctype.obj
 0001:00075cdf       __iswprint_l               10076cdf f i libucrt:_wctype.obj
 0001:00075cfa       __iswpunct_l               10076cfa f i libucrt:_wctype.obj
 0001:00075d11       __iswspace_l               10076d11 f i libucrt:_wctype.obj
 0001:00075d28       __iswupper_l               10076d28 f i libucrt:_wctype.obj
 0001:00075d3f       __iswxdigit_l              10076d3f f i libucrt:_wctype.obj
 0001:00075d5a       _isleadbyte                10076d5a f i libucrt:_wctype.obj
 0001:00075d71       _iswalnum                  10076d71 f i libucrt:_wctype.obj
 0001:00075d8c       _iswalpha                  10076d8c f i libucrt:_wctype.obj
 0001:00075da7       _iswascii                  10076da7 f i libucrt:_wctype.obj
 0001:00075dc0       _iswblank                  10076dc0 f i libucrt:_wctype.obj
 0001:00075de4       _iswcntrl                  10076de4 f i libucrt:_wctype.obj
 0001:00075dfb       _iswdigit                  10076dfb f i libucrt:_wctype.obj
 0001:00075e12       _iswgraph                  10076e12 f i libucrt:_wctype.obj
 0001:00075e2d       _iswlower                  10076e2d f i libucrt:_wctype.obj
 0001:00075e44       _iswprint                  10076e44 f i libucrt:_wctype.obj
 0001:00075e5f       _iswpunct                  10076e5f f i libucrt:_wctype.obj
 0001:00075e76       _iswspace                  10076e76 f i libucrt:_wctype.obj
 0001:00075e8d       _iswupper                  10076e8d f i libucrt:_wctype.obj
 0001:00075ea4       _iswxdigit                 10076ea4 f i libucrt:_wctype.obj
 0001:00075ef6       ?__mbrtowc_utf8@__crt_mbstring@@YAIPA_WPBDIPAU_Mbstatet@@@Z 10076ef6 f   libucrt:mbrtowc.obj
 0001:00075f46       ?__mbsrtowcs_utf8@__crt_mbstring@@YAIPA_WPAPBDIPAU_Mbstatet@@@Z 10076f46 f   libucrt:mbrtowc.obj
 0001:0007645b       _btowc                     1007745b f   libucrt:mbrtowc.obj
 0001:000764c9       _mbrlen                    100774c9 f   libucrt:mbrtowc.obj
 0001:00076507       _mbrtowc                   10077507 f   libucrt:mbrtowc.obj
 0001:0007656c       _mbsrtowcs                 1007756c f   libucrt:mbrtowc.obj
 0001:00076579       _mbsrtowcs_s               10077579 f   libucrt:mbrtowc.obj
 0001:00076644       ??$?RG@__crt_internal_free_policy@@QBEXQBG@Z 10077644 f i libucrt:initctype.obj
 0001:0007665a       ??$?RJ@__crt_internal_free_policy@@QBEXQBJ@Z 1007765a f i libucrt:initctype.obj
 0001:00076670       ??0?$__crt_unique_heap_ptr@GU__crt_internal_free_policy@@@@QAE@QAG@Z 10077670 f i libucrt:initctype.obj
 0001:00076684       ??0?$__crt_unique_heap_ptr@JU__crt_internal_free_policy@@@@QAE@QAJ@Z 10077684 f i libucrt:initctype.obj
 0001:00076698       ??1?$__crt_unique_heap_ptr@GU__crt_internal_free_policy@@@@QAE@XZ 10077698 f i libucrt:initctype.obj
 0001:000766ae       ??1?$__crt_unique_heap_ptr@JU__crt_internal_free_policy@@@@QAE@XZ 100776ae f i libucrt:initctype.obj
 0001:000766c4       ?detach@?$__crt_unique_heap_ptr@GU__crt_internal_free_policy@@@@QAEPAGXZ 100776c4 f i libucrt:initctype.obj
 0001:000766ca       ?detach@?$__crt_unique_heap_ptr@JU__crt_internal_free_policy@@@@QAEPAJXZ 100776ca f i libucrt:initctype.obj
 0001:000766d0       ?release@?$__crt_unique_heap_ptr@GU__crt_internal_free_policy@@@@QAEXXZ 100776d0 f i libucrt:initctype.obj
 0001:000766e6       ?release@?$__crt_unique_heap_ptr@JU__crt_internal_free_policy@@@@QAEXXZ 100776e6 f i libucrt:initctype.obj
 0001:000766fc       ____lc_codepage_func       100776fc f   libucrt:initctype.obj
 0001:0007672a       ____lc_collate_cp_func     1007772a f   libucrt:initctype.obj
 0001:00076758       ____lc_locale_name_func    10077758 f   libucrt:initctype.obj
 0001:00076788       ____mb_cur_max_func        10077788 f   libucrt:initctype.obj
 0001:000767b6       ____mb_cur_max_l_func      100777b6 f   libucrt:initctype.obj
 0001:000767d5       ___acrt_locale_initialize_ctype 100777d5 f   libucrt:initctype.obj
 0001:00076d4a       ?__c32rtomb_utf8@__crt_mbstring@@YAIPAD_UPAU_Mbstatet@@@Z 10077d4a f   libucrt:c32rtomb.obj
 0001:00076e1f       ?reset_and_return@__crt_mbstring@@YAIIPAU_Mbstatet@@@Z 10077e1f f i libucrt:c32rtomb.obj
 0001:00076e38       ?return_illegal_sequence@__crt_mbstring@@YAIPAU_Mbstatet@@@Z 10077e38 f i libucrt:c32rtomb.obj
 0001:00076e5e       _c32rtomb                  10077e5e f   libucrt:c32rtomb.obj
 0001:00076e6b       ___acrt_add_locale_ref     10077e6b f   libucrt:locale_refcounting.obj
 0001:00076f07       ___acrt_free_locale        10077f07 f   libucrt:locale_refcounting.obj
 0001:000770a1       ___acrt_locale_add_lc_time_reference 100780a1 f   libucrt:locale_refcounting.obj
 0001:000770d4       ___acrt_locale_free_lc_time_if_unreferenced 100780d4 f   libucrt:locale_refcounting.obj
 0001:00077111       ___acrt_locale_release_lc_time_reference 10078111 f   libucrt:locale_refcounting.obj
 0001:00077144       ___acrt_release_locale_ref 10078144 f   libucrt:locale_refcounting.obj
 0001:000771e5       ___acrt_update_thread_locale_data 100781e5 f   libucrt:locale_refcounting.obj
 0001:00077286       __updatetlocinfoEx_nolock  10078286 f   libucrt:locale_refcounting.obj
 0001:000772ea       ___acrt_fp_strflt_to_string 100782ea f   libucrt:_fptostr.obj
 0001:00078a80       ??8__crt_strtox@@YA_NABUbig_integer@0@0@Z 10079a80 f i libucrt:cfout.obj
 0001:00078ad0       ??9__crt_strtox@@YA_NABUbig_integer@0@0@Z 10079ad0 f i libucrt:cfout.obj
 0001:00078b20       ?is_zero@__crt_strtox@@YA_NABUbig_integer@1@@Z 10079b20 f i libucrt:cfout.obj
 0001:00078b40       ?make_big_integer_power_of_two@__crt_strtox@@YA?AUbig_integer@1@I@Z 10079b40 f i libucrt:cfout.obj
 0001:00078b9f       ___acrt_fltout             10079b9f f   libucrt:cfout.obj
 0001:0007a45c       __isatty                   1007b45c f   libucrt:isatty.obj
 0001:0007a4c7       ??$?RUlconv@@@__crt_internal_free_policy@@QBEXQBUlconv@@@Z 1007b4c7 f i libucrt:initmon.obj
 0001:0007a4dd       ??0?$__crt_unique_heap_ptr@Ulconv@@U__crt_internal_free_policy@@@@QAE@QAUlconv@@@Z 1007b4dd f i libucrt:initmon.obj
 0001:0007a4f1       ??1?$__crt_unique_heap_ptr@Ulconv@@U__crt_internal_free_policy@@@@QAE@XZ 1007b4f1 f i libucrt:initmon.obj
 0001:0007a507       ?detach@?$__crt_unique_heap_ptr@Ulconv@@U__crt_internal_free_policy@@@@QAEPAUlconv@@XZ 1007b507 f i libucrt:initmon.obj
 0001:0007a50d       ?release@?$__crt_unique_heap_ptr@Ulconv@@U__crt_internal_free_policy@@@@QAEXXZ 1007b50d f i libucrt:initmon.obj
 0001:0007a523       ___acrt_locale_free_monetary 1007b523 f   libucrt:initmon.obj
 0001:0007a660       ___acrt_locale_initialize_monetary 1007b660 f   libucrt:initmon.obj
 0001:0007ab4a       ___acrt_locale_free_numeric 1007bb4a f   libucrt:initnum.obj
 0001:0007abcd       ___acrt_locale_initialize_numeric 1007bbcd f   libucrt:initnum.obj
 0001:0007aea5       ??$?RU__crt_lc_time_data@@@__crt_internal_free_policy@@QBEXQBU__crt_lc_time_data@@@Z 1007bea5 f i libucrt:inittime.obj
 0001:0007af45       ??0?$__crt_unique_heap_ptr@U__crt_lc_time_data@@U__crt_internal_free_policy@@@@QAE@QAU__crt_lc_time_data@@@Z 1007bf45 f i libucrt:inittime.obj
 0001:0007af59       ??1?$__crt_unique_heap_ptr@U__crt_lc_time_data@@U__crt_internal_free_policy@@@@QAE@XZ 1007bf59 f i libucrt:inittime.obj
 0001:0007af6f       ??B?$__crt_unique_heap_ptr@U__crt_lc_time_data@@U__crt_internal_free_policy@@@@QBE_NXZ 1007bf6f f i libucrt:inittime.obj
 0001:0007af76       ?detach@?$__crt_unique_heap_ptr@U__crt_lc_time_data@@U__crt_internal_free_policy@@@@QAEPAU__crt_lc_time_data@@XZ 1007bf76 f i libucrt:inittime.obj
 0001:0007afc2       ?get@?$__crt_unique_heap_ptr@U__crt_lc_time_data@@U__crt_internal_free_policy@@@@QBEPAU__crt_lc_time_data@@XZ 1007bfc2 f i libucrt:inittime.obj
 0001:0007b359       ?is_valid@?$__crt_unique_heap_ptr@U__crt_lc_time_data@@U__crt_internal_free_policy@@@@QBE_NXZ 1007c359 f i libucrt:inittime.obj
 0001:0007b360       ?release@?$__crt_unique_heap_ptr@U__crt_lc_time_data@@U__crt_internal_free_policy@@@@QAEXXZ 1007c360 f i libucrt:inittime.obj
 0001:0007b376       ___acrt_locale_free_time   1007c376 f   libucrt:inittime.obj
 0001:0007b493       ___acrt_locale_initialize_time 1007c493 f   libucrt:inittime.obj
 0001:0007b5ba       _wcscat_s                  1007c5ba f   libucrt:wcscat_s.obj
 0001:0007b76c       _wcsncat_s                 1007c76c f   libucrt:wcsncat_s.obj
 0001:0007b876       _wcsncpy_s                 1007c876 f   libucrt:wcsncpy_s.obj
 0001:0007b883       _wcscspn                   1007c883 f   libucrt:wcscspn.obj
 0001:0007b8f2       _wcspbrk                   1007c8f2 f   libucrt:wcspbrk.obj
 0001:0007b953       ??0?$__crt_scoped_stack_ptr@_W@@QAE@U?$__crt_scoped_stack_ptr_tag@_W@@@Z 1007c953 f i libucrt:getstringtypea.obj
 0001:0007b967       ??0?$__crt_scoped_stack_ptr_tag@_W@@QAE@QA_W@Z 1007c967 f i libucrt:getstringtypea.obj
 0001:0007b97b       ??1?$__crt_scoped_stack_ptr@_W@@QAE@XZ 1007c97b f i libucrt:getstringtypea.obj
 0001:0007b986       ?get@?$__crt_scoped_stack_ptr@_W@@QBEPA_WXZ 1007c986 f i libucrt:getstringtypea.obj
 0001:0007b989       __MallocaComputeSize       1007c989 f i libucrt:getstringtypea.obj
 0001:0007b9a0       __MarkAllocaS              1007c9a0 f i libucrt:getstringtypea.obj
 0001:0007b9bb       ___acrt_GetStringTypeA     1007c9bb f   libucrt:getstringtypea.obj
 0001:0007bafe       __freea_crt                1007cafe f i libucrt:getstringtypea.obj
 0001:0007c435       ___acrt_get_qualified_locale 1007d435 f   libucrt:get_qualified_locale.obj
 0001:0007d00d       ___acrt_get_qualified_locale_downlevel 1007e00d f   libucrt:getqloc_downlevel.obj
 0001:0007d27f       _localeconv                1007e27f f   libucrt:localeconv.obj
 0001:0007d2b1       ___ascii_wcsnicmp          1007e2b1 f   libucrt:wcsnicmp.obj
 0001:0007d313       __towlower_fast_internal   1007e313 f i libucrt:wcsnicmp.obj
 0001:0007d348       __towlower_internal        1007e348 f i libucrt:wcsnicmp.obj
 0001:0007d396       __wcsnicmp                 1007e396 f   libucrt:wcsnicmp.obj
 0001:0007d3f5       __wcsnicmp_l               1007e3f5 f   libucrt:wcsnicmp.obj
 0001:0007d4fc       __strnicmp                 1007e4fc f   libucrt:strnicmp.obj
 0001:0007d584       __strnicmp_l               1007e584 f   libucrt:strnicmp.obj
 0001:0007db01       ??$tsopen_nolock@PAHABQAHABQBDABHABHABHABH@?$__crt_char_traits@D@@SAH$$QAPAHABQAHABQBDABH333@Z 1007eb01 f i libucrt:open.obj
 0001:0007db3f       ??$tsopen_nolock@PAHABQAHABQB_WABHABHABHABH@?$__crt_char_traits@_W@@SAH$$QAPAHABQAHABQB_WABH333@Z 1007eb3f f i libucrt:open.obj
 0001:0007db7d       ??$tsopen_nolock@PAHPAHABQBDABHHABHH@?$__crt_char_traits@D@@SAH$$QAPAH0ABQBDABH$$QAH23@Z 1007eb7d f i libucrt:open.obj
 0001:0007dbbb       ??$tsopen_nolock@PAHPAHABQB_WABHHABHH@?$__crt_char_traits@_W@@SAH$$QAPAH0ABQB_WABH$$QAH23@Z 1007ebbb f i libucrt:open.obj
 0001:0007e395       __open                     1007f395 f   libucrt:open.obj
 0001:0007e3b3       __sopen                    1007f3b3 f   libucrt:open.obj
 0001:0007e3f2       __sopen_dispatch           1007f3f2 f   libucrt:open.obj
 0001:0007e3ff       __sopen_nolock             1007f3ff f   libucrt:open.obj
 0001:0007e488       __sopen_s                  1007f488 f   libucrt:open.obj
 0001:0007e4b0       __wopen                    1007f4b0 f   libucrt:open.obj
 0001:0007e4ce       __wsopen                   1007f4ce f   libucrt:open.obj
 0001:0007e50d       __wsopen_dispatch          1007f50d f   libucrt:open.obj
 0001:0007e51a       __wsopen_nolock            1007f51a f   libucrt:open.obj
 0001:0007e90e       __wsopen_s                 1007f90e f   libucrt:open.obj
 0001:0007e936       ___p__commode              1007f936 f   libucrt:ncommode.obj
 0001:0007e93c       ___acrt_stdio_allocate_buffer_nolock 1007f93c f   libucrt:_getbuf.obj
 0001:0007eac2       __putwch                   1007fac2 f   libucrt:putwch.obj
 0001:0007eafa       __putwch_nolock            1007fafa f   libucrt:putwch.obj
 0001:0007eb38       _nextafter                 1007fb38 f   libucrt:nextafter.obj
 0001:0007eb5e       ___acrt_initialize_sse2    1007fb5e f   libucrt:mathfcns.obj
 0001:0007eb72       __set_SSE2_enable          1007fb72 f   libucrt:mathfcns.obj
 0001:0007eba0       __CIcos                    1007fba0 f   libucrt:cos_impl.obj
 0001:0007ebdb       __CIcos_default            1007fbdb f   libucrt:cos_impl.obj
 0001:0007ebef       __cos_default              1007fbef     libucrt:cos_impl.obj
 0001:0007ecc0       __CIcos_pentium4           1007fcc0 f   libucrt:cos_pentium4.obj
 0001:0007ecd8       __cos_pentium4             1007fcd8     libucrt:cos_pentium4.obj
 0001:0007eee0       __CIsin                    1007fee0 f   libucrt:sin_impl.obj
 0001:0007ef1b       __CIsin_default            1007ff1b f   libucrt:sin_impl.obj
 0001:0007ef2f       __sin_default              1007ff2f     libucrt:sin_impl.obj
 0001:0007f000       __CIsin_pentium4           10080000 f   libucrt:sin_pentium4.obj
 0001:0007f018       __sin_pentium4             10080018     libucrt:sin_pentium4.obj
 0001:0007f23a       ___acrt_GetStringTypeW     1008023a f   libucrt:getstringtypew.obj
 0001:0007f259       ??$__acrt_fenv_shift_bits@W4__acrt_fenv_abstract_control@@@@YA?AW4__acrt_fenv_abstract_control@@W40@0I@Z 10080259 f i libucrt:_fenvutils.obj
 0001:0007f26f       ??$__acrt_fenv_shift_bits@W4__acrt_fenv_abstract_status@@@@YA?AW4__acrt_fenv_abstract_status@@W40@0I@Z 1008026f f i libucrt:_fenvutils.obj
 0001:0007f285       ??$__acrt_fenv_translate_bit@W4__acrt_fenv_abstract_control@@W4__acrt_fenv_machine_sse_control@@@@YA?AW4__acrt_fenv_abstract_control@@W4__acrt_fenv_machine_sse_control@@0W40@1@Z 10080285 f i libucrt:_fenvutils.obj
 0001:0007f2a3       ??$__acrt_fenv_translate_bit@W4__acrt_fenv_abstract_control@@W4__acrt_fenv_machine_x87_control@@@@YA?AW4__acrt_fenv_abstract_control@@W4__acrt_fenv_machine_x87_control@@0W40@1@Z 100802a3 f i libucrt:_fenvutils.obj
 0001:0007f2c1       ??$__acrt_fenv_translate_bit@W4__acrt_fenv_abstract_status@@W4__acrt_fenv_machine_sse_status@@@@YA?AW4__acrt_fenv_abstract_status@@W4__acrt_fenv_machine_sse_status@@0W40@1@Z 100802c1 f i libucrt:_fenvutils.obj
 0001:0007f2db       ??$__acrt_fenv_translate_bit@W4__acrt_fenv_abstract_status@@W4__acrt_fenv_machine_x87_status@@@@YA?AW4__acrt_fenv_abstract_status@@W4__acrt_fenv_machine_x87_status@@0W40@1@Z 100802db f i libucrt:_fenvutils.obj
 0001:0007f2f5       ??$__acrt_fenv_translate_bit@W4__acrt_fenv_machine_sse_control@@W4__acrt_fenv_abstract_control@@@@YA?AW4__acrt_fenv_machine_sse_control@@W4__acrt_fenv_abstract_control@@0W40@1@Z 100802f5 f i libucrt:_fenvutils.obj
 0001:0007f311       ??$__acrt_fenv_translate_bit@W4__acrt_fenv_machine_sse_status@@W4__acrt_fenv_abstract_status@@@@YA?AW4__acrt_fenv_machine_sse_status@@W4__acrt_fenv_abstract_status@@0W40@1@Z 10080311 f i libucrt:_fenvutils.obj
 0001:0007f32b       ??$__acrt_fenv_translate_bit@W4__acrt_fenv_machine_x87_control@@W4__acrt_fenv_abstract_control@@@@YA?AW4__acrt_fenv_machine_x87_control@@W4__acrt_fenv_abstract_control@@0W40@1@Z 1008032b f i libucrt:_fenvutils.obj
 0001:0007f347       ??$__acrt_fenv_translate_bit@W4__acrt_fenv_machine_x87_status@@W4__acrt_fenv_abstract_status@@@@YA?AW4__acrt_fenv_machine_x87_status@@W4__acrt_fenv_abstract_status@@0W40@1@Z 10080347 f i libucrt:_fenvutils.obj
 0001:0007f361       ??$__acrt_fenv_unshift_bits@W4__acrt_fenv_abstract_control@@@@YA?AW4__acrt_fenv_abstract_control@@W40@0I@Z 10080361 f i libucrt:_fenvutils.obj
 0001:0007f377       ??$__acrt_fenv_unshift_bits@W4__acrt_fenv_abstract_status@@@@YA?AW4__acrt_fenv_abstract_status@@W40@0I@Z 10080377 f i libucrt:_fenvutils.obj
 0001:0007f940       ??I@YA?AW4__acrt_fenv_abstract_control@@W40@0@Z 10080940 f i libucrt:_fenvutils.obj
 0001:0007f950       ??I@YA?AW4__acrt_fenv_abstract_status@@W40@0@Z 10080950 f i libucrt:_fenvutils.obj
 0001:0007f960       ??I@YA?AW4__acrt_fenv_machine_sse_control@@W40@0@Z 10080960 f i libucrt:_fenvutils.obj
 0001:0007f970       ??I@YA?AW4__acrt_fenv_machine_sse_status@@W40@0@Z 10080970 f i libucrt:_fenvutils.obj
 0001:0007f980       ??I@YA?AW4__acrt_fenv_machine_x87_control@@W40@0@Z 10080980 f i libucrt:_fenvutils.obj
 0001:0007f990       ??I@YA?AW4__acrt_fenv_machine_x87_status@@W40@0@Z 10080990 f i libucrt:_fenvutils.obj
 0001:0007f9a0       ??U@YA?AW4__acrt_fenv_abstract_control@@W40@0@Z 100809a0 f i libucrt:_fenvutils.obj
 0001:0007f9b0       ??U@YA?AW4__acrt_fenv_abstract_status@@W40@0@Z 100809b0 f i libucrt:_fenvutils.obj
 0001:0007f9c0       ??U@YA?AW4__acrt_fenv_machine_sse_control@@W40@0@Z 100809c0 f i libucrt:_fenvutils.obj
 0001:0007f9d0       ??U@YA?AW4__acrt_fenv_machine_x87_control@@W40@0@Z 100809d0 f i libucrt:_fenvutils.obj
 0001:0007f9e0       ??_5@YAAAW4__acrt_fenv_abstract_control@@AAW40@W40@@Z 100809e0 f i libucrt:_fenvutils.obj
 0001:0007f9f2       ??_5@YAAAW4__acrt_fenv_abstract_status@@AAW40@W40@@Z 100809f2 f i libucrt:_fenvutils.obj
 0001:0007fa04       ??_5@YAAAW4__acrt_fenv_machine_sse_control@@AAW40@W40@@Z 10080a04 f i libucrt:_fenvutils.obj
 0001:0007fa19       ??_5@YAAAW4__acrt_fenv_machine_sse_status@@AAW40@W40@@Z 10080a19 f i libucrt:_fenvutils.obj
 0001:0007fa2b       ??_5@YAAAW4__acrt_fenv_machine_x87_control@@AAW40@W40@@Z 10080a2b f i libucrt:_fenvutils.obj
 0001:0007fa40       ??_5@YAAAW4__acrt_fenv_machine_x87_status@@AAW40@W40@@Z 10080a40 f i libucrt:_fenvutils.obj
 0001:0007fa52       ?__acrt_fenv_shift_abstract_sse_control@@YA?AW4__acrt_fenv_abstract_control@@W41@@Z 10080a52 f i libucrt:_fenvutils.obj
 0001:0007fa76       ?__acrt_fenv_shift_abstract_sse_status@@YA?AW4__acrt_fenv_abstract_status@@W41@@Z 10080a76 f i libucrt:_fenvutils.obj
 0001:0007fa8a       ?__acrt_fenv_shift_abstract_x87_control@@YA?AW4__acrt_fenv_abstract_control@@W41@@Z 10080a8a f i libucrt:_fenvutils.obj
 0001:0007faae       ?__acrt_fenv_shift_abstract_x87_status@@YA?AW4__acrt_fenv_abstract_status@@W41@@Z 10080aae f i libucrt:_fenvutils.obj
 0001:0007fac2       ?__acrt_fenv_unshift_abstract_sse_control@@YA?AW4__acrt_fenv_abstract_control@@W41@@Z 10080ac2 f i libucrt:_fenvutils.obj
 0001:0007fae8       ?__acrt_fenv_unshift_abstract_sse_status@@YA?AW4__acrt_fenv_abstract_status@@W41@@Z 10080ae8 f i libucrt:_fenvutils.obj
 0001:0007fafc       ?__acrt_fenv_unshift_abstract_x87_control@@YA?AW4__acrt_fenv_abstract_control@@W41@@Z 10080afc f i libucrt:_fenvutils.obj
 0001:0007fb22       ?__acrt_fenv_unshift_abstract_x87_status@@YA?AW4__acrt_fenv_abstract_status@@W41@@Z 10080b22 f i libucrt:_fenvutils.obj
 0001:000801d4       ___acrt_fenv_expand_round_control 100811d4 f   libucrt:_fenvutils.obj
 0001:00080217       ___acrt_fenv_get_common_round_control 10081217 f   libucrt:_fenvutils.obj
 0001:00080241       ___acrt_fenv_get_control   10081241 f   libucrt:_fenvutils.obj
 0001:000802e1       ___acrt_fenv_get_fp_status_word_from_exception_mask 100812e1 f   libucrt:_fenvutils.obj
 0001:00080301       ___acrt_fenv_get_status    10081301 f   libucrt:_fenvutils.obj
 0001:000803e7       ___acrt_fenv_set_control   100813e7 f   libucrt:_fenvutils.obj
 0001:00080469       ___acrt_fenv_set_status    10081469 f   libucrt:_fenvutils.obj
 0001:00080690       _qsort                     10081690 f   libucrt:qsort.obj
 0001:00080cc4       _strncpy_s                 10081cc4 f   libucrt:strncpy_s.obj
 0001:00080ce0       _strpbrk                   10081ce0 f   libucrt:strpbrk.obj
 0001:00080d30       __mbsdec                   10081d30 f   libucrt:mbsdec.obj
 0001:00080d4c       __mbsdec_l                 10081d4c f   libucrt:mbsdec.obj
 0001:00080dfc       ??B?$__crt_scoped_stack_ptr@_W@@QBE_NXZ 10081dfc f i libucrt:lcmapstringa.obj
 0001:00081067       ___acrt_LCMapStringA       10082067 f   libucrt:lcmapstringa.obj
 0001:000810d4       __wcsnicoll                100820d4 f   libucrt:wcsnicol.obj
 0001:0008115c       __wcsnicoll_l              1008215c f   libucrt:wcsnicol.obj
 0001:0008124c       __strnicoll                1008224c f   libucrt:strnicol.obj
 0001:0008127f       __strnicoll_l              1008227f f   libucrt:strnicol.obj
 0001:00081480       ___acrt_SetEnvironmentVariableA 10082480 f   libucrt:setenvironmentvariablea.obj
 0001:0008153a       __msize                    1008253a f   libucrt:msize.obj
 0001:00081547       __msize_base               10082547 f   libucrt:msize.obj
 0001:0008164a       ___acrt_report_runtime_error 1008264a f   libucrt:report_runtime_error.obj
 0001:000817a4       __query_app_type           100827a4 f   libucrt:report_runtime_error.obj
 0001:000817aa       __set_app_type             100827aa f   libucrt:report_runtime_error.obj
 0001:000817bc       ?__mbrtoc32_utf8@__crt_mbstring@@YAIPA_UPBDIPAU_Mbstatet@@@Z 100827bc f   libucrt:mbrtoc32.obj
 0001:000819cc       _mbrtoc32                  100829cc f   libucrt:mbrtoc32.obj
 0001:00081aef       ___acrt_GetLocaleInfoA     10082aef f   libucrt:getlocaleinfoa.obj
 0001:00081d0b       _fegetenv                  10082d0b f   libucrt:fegetenv.obj
 0001:00081d2f       _fesetenv                  10082d2f f   libucrt:fesetenv.obj
 0001:00081d8c       _feholdexcept              10082d8c f   libucrt:feholdexcept.obj
 0001:00081df0       __CIlog10                  10082df0 f   libucrt:log10_impl.obj
 0001:00081e2b       __CIlog10_default          10082e2b f   libucrt:log10_impl.obj
 0001:00081e3f       __log10_default            10082e3f     libucrt:log10_impl.obj
 0001:00081f50       _ceil                      10082f50 f   libucrt:ceil_pentium4.obj
 0001:00081f90       __ceil_pentium4            10082f90 f   libucrt:ceil_pentium4.obj
 0001:000826a1       __i64toa                   100836a1 f   libucrt:xtoa.obj
 0001:000826f2       __i64toa_s                 100836f2 f   libucrt:xtoa.obj
 0001:00082740       __i64tow                   10083740 f   libucrt:xtoa.obj
 0001:00082791       __i64tow_s                 10083791 f   libucrt:xtoa.obj
 0001:000827df       __itoa                     100837df f   libucrt:xtoa.obj
 0001:00082821       __itoa_s                   10083821 f   libucrt:xtoa.obj
 0001:00082860       __itow                     10083860 f   libucrt:xtoa.obj
 0001:000828a2       __itow_s                   100838a2 f   libucrt:xtoa.obj
 0001:000828e1       __ltoa                     100838e1 f   libucrt:xtoa.obj
 0001:00082923       __ltoa_s                   10083923 f   libucrt:xtoa.obj
 0001:00082962       __ltow                     10083962 f   libucrt:xtoa.obj
 0001:000829a4       __ltow_s                   100839a4 f   libucrt:xtoa.obj
 0001:000829e3       __ui64toa                  100839e3 f   libucrt:xtoa.obj
 0001:00082a0d       __ui64toa_s                10083a0d f   libucrt:xtoa.obj
 0001:00082a35       __ui64tow                  10083a35 f   libucrt:xtoa.obj
 0001:00082a5f       __ui64tow_s                10083a5f f   libucrt:xtoa.obj
 0001:00082a87       __ultoa                    10083a87 f   libucrt:xtoa.obj
 0001:00082aad       __ultoa_s                  10083aad f   libucrt:xtoa.obj
 0001:00082ad1       __ultow                    10083ad1 f   libucrt:xtoa.obj
 0001:00082af7       __ultow_s                  10083af7 f   libucrt:xtoa.obj
 0001:00082b1b       ___ascii_wcsicmp           10083b1b f   libucrt:wcsicmp.obj
 0001:00082b67       __wcsicmp                  10083b67 f   libucrt:wcsicmp.obj
 0001:00082bc2       __wcsicmp_l                10083bc2 f   libucrt:wcsicmp.obj
 0001:00082ca8       __towlower_l               10083ca8 f   libucrt:towlower.obj
 0001:00082d72       _towlower                  10083d72 f   libucrt:towlower.obj
 0001:00082d90       ___ascii_strnicmp          10083d90 f   libucrt:_strnicm.obj
 0001:00082e09       ??$__crt_interlocked_read@H@@YAHPDH@Z 10083e09 f i libucrt:setmode.obj
 0001:00082e19       ?value@?$dual_state_global@H@__crt_state_management@@QAEAAHXZ 10083e19 f i libucrt:setmode.obj
 0001:00082e1c       __get_fmode                10083e1c f   libucrt:setmode.obj
 0001:00082e54       __set_fmode                10083e54 f   libucrt:setmode.obj
 0001:00082ea0       __setmode                  10083ea0 f   libucrt:setmode.obj
 0001:00082ff5       __setmode_nolock           10083ff5 f   libucrt:setmode.obj
 0001:00083223       ??0__crt_seek_guard@@QAE@H_J@Z 10084223 f i libucrt:chsize.obj
 0001:00083283       ??1__crt_seek_guard@@QAE@XZ 10084283 f i libucrt:chsize.obj
 0001:00083303       __chsize                   10084303 f   libucrt:chsize.obj
 0001:00083326       __chsize_nolock            10084326 f   libucrt:chsize.obj
 0001:000834f2       __chsize_s                 100844f2 f   libucrt:chsize.obj
 0001:000835c7       __umask                    100845c7 f   libucrt:umask.obj
 0001:000835f2       __umask_s                  100845f2 f   libucrt:umask.obj
 0001:00083715       ___dcrt_lowio_ensure_console_output_initialized 10084715 f   libucrt:initcon.obj
 0001:0008373b       ___dcrt_terminate_console_output 1008473b f   libucrt:initcon.obj
 0001:00083757       ___dcrt_write_console      10084757 f   libucrt:initcon.obj
 0001:000837c1       _nexttoward                100847c1 f   libucrt:nexttoward.obj
 0001:00083970       __trandisp1                10084970 f   libucrt:87disp.obj
 0001:000839e5       __trandisp2                100849e5 f   libucrt:87disp.obj
 0001:00083a7f       __rttospopde               10084a7f     libucrt:87disp.obj
 0001:00083a84       __rttospop                 10084a84     libucrt:87disp.obj
 0001:00083a90       __rtnospop                 10084a90 f   libucrt:87disp.obj
 0001:00083aa0       __rttosnpop                10084aa0 f   libucrt:87disp.obj
 0001:00083aa1       __rtnospopde               10084aa1     libucrt:87disp.obj
 0001:00083aa8       __rtzeropop                10084aa8     libucrt:87disp.obj
 0001:00083aaa       __rtzeronpop               10084aaa     libucrt:87disp.obj
 0001:00083ab0       __rtzerospop               10084ab0 f   libucrt:87disp.obj
 0001:00083abd       __rtonepop                 10084abd     libucrt:87disp.obj
 0001:00083ac0       __rtonenpop                10084ac0 f   libucrt:87disp.obj
 0001:00083ad0       __tosnan1                  10084ad0 f   libucrt:87disp.obj
 0001:00083b00       __nosnan2                  10084b00 f   libucrt:87disp.obj
 0001:00083b10       __tosnan2                  10084b10 f   libucrt:87disp.obj
 0001:00083b40       __nan2                     10084b40 f   libucrt:87disp.obj
 0001:00083b80       __rtindfpop                10084b80 f   libucrt:87disp.obj
 0001:00083b82       __rtindfnpop               10084b82     libucrt:87disp.obj
 0001:00083b93       __rttosnpopde              10084b93     libucrt:87disp.obj
 0001:00083ba0       __rtatan2inf               10084ba0 f   libucrt:87disp.obj
 0001:00083bbd       __rtchsifneg               10084bbd     libucrt:87disp.obj
 0001:00083c59       ___setfflag                10084c59 f   libucrt:fp_flags.obj
 0001:00083c80       __twoToTOS                 10084c80 f   libucrt:common.obj
 0001:00083c95       __load_CW                  10084c95 f   libucrt:common.obj
 0001:00083cac       __convertTOStoQNaN         10084cac f   libucrt:common.obj
 0001:00083cc5       __fload_withFB             10084cc5 f   libucrt:common.obj
 0001:00083d08       __checkTOS_withFB          10084d08 f   libucrt:common.obj
 0001:00083d1e       __fast_exit                10084d1e f   libucrt:common.obj
 0001:00083d2b       __math_exit                10084d2b f   libucrt:common.obj
 0001:00083d55       __check_overflow_exit      10084d55 f   libucrt:common.obj
 0001:00083d69       __check_range_exit         10084d69 f   libucrt:common.obj
 0001:00083e70       __startTwoArgErrorHandling 10084e70 f   libucrt:genexcep.obj
 0001:00083e87       __startOneArgErrorHandling 10084e87 f   libucrt:genexcep.obj
 0001:00083ed7       ___strncnt                 10084ed7 f   libucrt:strncnt.obj
 0001:00083efa       ___acrt_CompareStringW     10084efa f   libucrt:comparestringw.obj
 0001:000842a5       ___acrt_CompareStringA     100852a5 f   libucrt:comparestringa.obj
 0001:000842fc       __set_error_mode           100852fc f   libucrt:set_error_mode.obj
 0001:00084483       ??$message_box@$$TABQBDABQBDK@?$__crt_char_traits@D@@SAH$$QA$$TABQBD1$$QAK@Z 10085483 f i libucrt:crtmbox.obj
 0001:000844ab       ??$message_box@$$TABQB_WABQB_WK@?$__crt_char_traits@_W@@SAH$$QA$$TABQB_W1$$QAK@Z 100854ab f i libucrt:crtmbox.obj
 0001:000844d3       ??$message_box@PAUHWND__@@ABQBDABQBDABI@?$__crt_char_traits@D@@SAH$$QAPAUHWND__@@ABQBD1ABI@Z 100854d3 f i libucrt:crtmbox.obj
 0001:000844fb       ??$message_box@PAUHWND__@@ABQB_WABQB_WABI@?$__crt_char_traits@_W@@SAH$$QAPAUHWND__@@ABQB_W1ABI@Z 100854fb f i libucrt:crtmbox.obj
 0001:00084523       ??$output_debug_string@ABQBD@?$__crt_char_traits@D@@SAXABQBD@Z 10085523 f i libucrt:crtmbox.obj
 0001:00084538       ??$output_debug_string@ABQB_W@?$__crt_char_traits@_W@@SAXABQB_W@Z 10085538 f i libucrt:crtmbox.obj
 0001:0008454e       ___acrt_show_narrow_message_box 1008554e f   libucrt:crtmbox.obj
 0001:0008455b       ___acrt_show_wide_message_box 1008555b f   libucrt:crtmbox.obj
 0001:000846fa       ___control87_2             100856fa f   libucrt:ieee87.obj
 0001:00084cb8       ___fpreset_sse2            10085cb8 f   libucrt:ieee87.obj
 0001:00084f01       __clearfp                  10085f01 f   libucrt:ieee87.obj
 0001:00085016       __control87                10086016 f   libucrt:ieee87.obj
 0001:000853d7       __controlfp                100863d7 f   libucrt:ieee87.obj
 0001:000853f7       __fpreset                  100863f7 f   libucrt:ieee87.obj
 0001:000854fa       __set_controlfp            100864fa f   libucrt:ieee87.obj
 0001:00085589       __statusfp                 10086589 f   libucrt:ieee87.obj
 0001:0008564a       __statusfp2                1008664a f   libucrt:ieee87.obj
 0001:000856d0       __CIlog10_pentium4         100866d0 f   libucrt:log10_pentium4.obj
 0001:000856e8       __log10_pentium4           100866e8     libucrt:log10_pentium4.obj
 0001:00085a30       __fFEXP                    10086a30 f   libucrt:87tran.obj
 0001:00085a87       __rtinfpopse               10086a87     libucrt:87tran.obj
 0001:00085a89       __rtinfnpopse              10086a89     libucrt:87tran.obj
 0001:00085a99       __fFLN                     10086a99     libucrt:87tran.obj
 0001:00085b4e       __rtinfpop                 10086b4e     libucrt:87tran.obj
 0001:00085b50       __rtinfnpop                10086b50     libucrt:87tran.obj
 0001:00085b60       __rtforexpinf              10086b60 f   libucrt:87tran.obj
 0001:00085b6d       __ffexpm1                  10086b6d     libucrt:87tran.obj
 0001:00085c97       ___libm_error_support      10086c97 f   libucrt:libm_error.obj
 0001:00085f08       ___libm_setusermatherr     10086f08 f   libucrt:libm_error.obj
 0001:00085f38       __ceil_default             10086f38 f   libucrt:ceil.obj
 0001:0008601a       ___acrt_LCMapStringW       1008701a f   libucrt:lcmapstringw.obj
 0001:00086067       ___p__fmode                10087067 f   libucrt:txtmode.obj
 0001:00086103       __d_int                    10087103 f   libucrt:_test.obj
 0001:0008624a       __dtest                    1008724a f   libucrt:_test.obj
 0001:000862c7       __fd_int                   100872c7 f   libucrt:_test.obj
 0001:000863c7       __fdtest                   100873c7 f   libucrt:_test.obj
 0001:00086428       __fperrraise               10087428 f   libucrt:_test.obj
 0001:00086451       __ld_int                   10087451 f   libucrt:_test.obj
 0001:0008645e       __ldtest                   1008745e f   libucrt:_test.obj
 0001:0008646b       __87except                 1008746b f   libucrt:87except.obj
 0001:000865b7       ___acrt_OutputDebugStringA@4 100875b7 f   libucrt:outputdebugstringa.obj
 0001:00086641       __controlfp_s              10087641 f   libucrt:contrlfp.obj
 0001:000866b7       __d_inttype                100876b7 f   libucrt:powhlp.obj
 0001:00086739       __powhlp                   10087739 f   libucrt:powhlp.obj
 0001:000868ae       __frnd                     100878ae f   libucrt:frnd.obj
 0001:000868c7       ??_4@YAAAW4__acrt_fenv_abstract_status@@AAW40@W40@@Z 100878c7 f i libucrt:fegetexceptflag.obj
 0001:000868d9       _fegetexceptflag           100878d9 f   libucrt:fegetexceptflag.obj
 0001:00086916       ??S@YA?AW4__acrt_fenv_abstract_status@@W40@@Z 10087916 f i libucrt:fesetexceptflag.obj
 0001:00086925       _fesetexceptflag           10087925 f   libucrt:fesetexceptflag.obj
 0001:00086b9f       __mbstowcs_l               10087b9f f   libucrt:mbstowcs.obj
 0001:00086bac       __mbstowcs_s_l             10087bac f   libucrt:mbstowcs.obj
 0001:00086cc4       _mbstowcs                  10087cc4 f   libucrt:mbstowcs.obj
 0001:00086cf8       _mbstowcs_s                10087cf8 f   libucrt:mbstowcs.obj
 0001:00086d20       _fetestexcept              10087d20 f   libucrt:fetestexcept.obj
 0001:00086d50       __FindPESection            10087d50 f   LIBCMT:pesect.obj
 0001:00086db0       __IsNonwritableInCurrentImage 10087db0 f   LIBCMT:pesect.obj
 0001:00086ea0       __ValidateImageBase        10087ea0 f   LIBCMT:pesect.obj
 0001:00086edf       ??1type_info@@UAE@XZ       10087edf f   LIBCMT:std_type_info_static.obj
 0001:00086ee6       ??_Gtype_info@@UAEPAXI@Z   10087ee6 f i LIBCMT:std_type_info_static.obj
 0001:00086ee6       ??_Etype_info@@UAEPAXI@Z   10087ee6 f i LIBCMT:std_type_info_static.obj
 0001:00086f11       __EH_epilog3               10087f11 f   LIBCMT:ehprolg3.obj
 0001:00086f2b       __EH_epilog3_GS            10087f2b f   LIBCMT:ehprolg3.obj
 0001:00086f40       __EH_epilog3_catch_GS      10087f40 f   LIBCMT:ehprolg3.obj
 0001:00086f55       __EH_prolog3               10087f55 f   LIBCMT:ehprolg3.obj
 0001:00086f96       __EH_prolog3_GS            10087f96 f   LIBCMT:ehprolg3.obj
 0001:00086fda       __EH_prolog3_catch         10087fda f   LIBCMT:ehprolg3.obj
 0001:0008701e       __EH_prolog3_catch_GS      1008801e f   LIBCMT:ehprolg3.obj
 0001:00087070       __aulldvrm                 10088070 f   LIBCMT:ulldvrm.obj
 0001:0008712a       ??3@YAXPAXI@Z              1008812a f   LIBCMT:delete_scalar_size.obj
 0001:00087140       __allmul                   10088140 f   LIBCMT:llmul.obj
 0001:00087190       __allshl                   10088190 f   LIBCMT:llshl.obj
 0001:000871c0       __aullshr                  100881c0 f   LIBCMT:ullshr.obj
 0001:000871f0       __alldvrm                  100881f0 f   LIBCMT:lldvrm.obj
 0001:00087310       __chkstk                   10088310 f   LIBCMT:chkstk.obj
 0001:00087310       __alloca_probe             10088310 f   LIBCMT:chkstk.obj
 0001:00087350       __ftol2_sse                10088350     LIBCMT:ftol2.obj
 0001:00087350       __ftol2_sse_excpt          10088350     LIBCMT:ftol2.obj
 0001:00087350       __ftoi2                    10088350 f   LIBCMT:ftol2.obj
 0001:000873d0       __ftoui2                   100883d0 f   LIBCMT:ftol2.obj
 0001:00087480       __ftol2                    10088480 f   LIBCMT:ftol2.obj
 0001:00087530       __ftoul2                   10088530 f   LIBCMT:ftol2.obj
 0001:00087690       __alloca_probe_16          10088690 f   LIBCMT:alloca16.obj
 0001:000876a6       __alloca_probe_8           100886a6     LIBCMT:alloca16.obj
 0001:000876c7       __initialize_default_precision 100886c7 f   LIBCMT:default_precision.obj
 0001:000876f0       ??3@YAXPAX@Z               100886f0 f   LIBCMT:delete_scalar.obj
 0001:000876f5       _InterlockedPushEntrySList@8 100886f5 f   kernel32:KERNEL32.dll
 0001:000876fb       _InterlockedFlushSList@4   100886fb f   kernel32:KERNEL32.dll
 0001:00087701       _RtlUnwind@16              10088701 f   kernel32:KERNEL32.dll
 0001:00087707       _GetLastError@0            10088707 f   kernel32:KERNEL32.dll
 0001:0008770d       _SetLastError@4            1008870d f   kernel32:KERNEL32.dll
 0001:00087713       _EnterCriticalSection@4    10088713 f   kernel32:KERNEL32.dll
 0001:00087719       _LeaveCriticalSection@4    10088719 f   kernel32:KERNEL32.dll
 0001:0008771f       _DeleteCriticalSection@4   1008871f f   kernel32:KERNEL32.dll
 0001:00087725       _InitializeCriticalSectionAndSpinCount@8 10088725 f   kernel32:KERNEL32.dll
 0001:0008772b       _TlsAlloc@0                1008872b f   kernel32:KERNEL32.dll
 0001:00087731       _TlsGetValue@4             10088731 f   kernel32:KERNEL32.dll
 0001:00087737       _TlsSetValue@8             10088737 f   kernel32:KERNEL32.dll
 0001:0008773d       _TlsFree@4                 1008873d f   kernel32:KERNEL32.dll
 0001:00087743       _FreeLibrary@4             10088743 f   kernel32:KERNEL32.dll
 0001:00087749       _LoadLibraryExW@12         10088749 f   kernel32:KERNEL32.dll
 0001:0008774f       _EncodePointer@4           1008874f f   kernel32:KERNEL32.dll
 0001:00087755       _RaiseException@16         10088755 f   kernel32:KERNEL32.dll
 0001:0008775b       _ExitProcess@4             1008875b f   kernel32:KERNEL32.dll
 0001:00087761       _GetModuleHandleExW@12     10088761 f   kernel32:KERNEL32.dll
 0001:00087767       _GetModuleFileNameW@12     10088767 f   kernel32:KERNEL32.dll
 0001:0008776d       _HeapAlloc@12              1008876d f   kernel32:KERNEL32.dll
 0001:00087773       _HeapFree@12               10088773 f   kernel32:KERNEL32.dll
 0001:00087779       _GetDateFormatW@24         10088779 f   kernel32:KERNEL32.dll
 0001:0008777f       _GetTimeFormatW@24         1008877f f   kernel32:KERNEL32.dll
 0001:00087785       _CompareStringW@24         10088785 f   kernel32:KERNEL32.dll
 0001:0008778b       _LCMapStringW@24           1008878b f   kernel32:KERNEL32.dll
 0001:00087791       _GetLocaleInfoW@16         10088791 f   kernel32:KERNEL32.dll
 0001:00087797       _IsValidLocale@8           10088797 f   kernel32:KERNEL32.dll
 0001:0008779d       _GetUserDefaultLCID@0      1008879d f   kernel32:KERNEL32.dll
 0001:000877a3       _EnumSystemLocalesW@8      100887a3 f   kernel32:KERNEL32.dll
 0001:000877a9       _GetStdHandle@4            100887a9 f   kernel32:KERNEL32.dll
 0001:000877af       _GetFileType@4             100887af f   kernel32:KERNEL32.dll
 0001:000877b5       _GetCurrentThread@0        100887b5 f   kernel32:KERNEL32.dll
 0001:000877bb       _HeapReAlloc@16            100887bb f   kernel32:KERNEL32.dll
 0001:000877c1       _CloseHandle@4             100887c1 f   kernel32:KERNEL32.dll
 0001:000877c7       _ReadFile@20               100887c7 f   kernel32:KERNEL32.dll
 0001:000877cd       _GetConsoleMode@8          100887cd f   kernel32:KERNEL32.dll
 0001:000877d3       _ReadConsoleW@20           100887d3 f   kernel32:KERNEL32.dll
 0001:000877d9       _WriteFile@20              100887d9 f   kernel32:KERNEL32.dll
 0001:000877df       _GetConsoleCP@0            100887df f   kernel32:KERNEL32.dll
 0001:000877e5       _GetFileSizeEx@8           100887e5 f   kernel32:KERNEL32.dll
 0001:000877eb       _SetFilePointerEx@20       100887eb f   kernel32:KERNEL32.dll
 0001:000877f1       _MultiByteToWideChar@24    100887f1 f   kernel32:KERNEL32.dll
 0001:000877f7       _DeleteFileW@4             100887f7 f   kernel32:KERNEL32.dll
 0001:000877fd       _FindClose@4               100887fd f   kernel32:KERNEL32.dll
 0001:00087803       _FindFirstFileExW@24       10088803 f   kernel32:KERNEL32.dll
 0001:00087809       _FindNextFileW@8           10088809 f   kernel32:KERNEL32.dll
 0001:0008780f       _IsValidCodePage@4         1008880f f   kernel32:KERNEL32.dll
 0001:00087815       _GetACP@0                  10088815 f   kernel32:KERNEL32.dll
 0001:0008781b       _GetOEMCP@0                1008881b f   kernel32:KERNEL32.dll
 0001:00087821       _GetCPInfo@8               10088821 f   kernel32:KERNEL32.dll
 0001:00087827       _GetCommandLineA@0         10088827 f   kernel32:KERNEL32.dll
 0001:0008782d       _GetCommandLineW@0         1008882d f   kernel32:KERNEL32.dll
 0001:00087833       _WideCharToMultiByte@32    10088833 f   kernel32:KERNEL32.dll
 0001:00087839       _GetEnvironmentStringsW@0  10088839 f   kernel32:KERNEL32.dll
 0001:0008783f       _FreeEnvironmentStringsW@4 1008883f f   kernel32:KERNEL32.dll
 0001:00087845       _SetEnvironmentVariableW@8 10088845 f   kernel32:KERNEL32.dll
 0001:0008784b       _GetProcessHeap@0          1008884b f   kernel32:KERNEL32.dll
 0001:00087851       _SetConsoleCtrlHandler@8   10088851 f   kernel32:KERNEL32.dll
 0001:00087857       _FlushFileBuffers@4        10088857 f   kernel32:KERNEL32.dll
 0001:0008785d       _SetStdHandle@8            1008885d f   kernel32:KERNEL32.dll
 0001:00087863       _GetStringTypeW@16         10088863 f   kernel32:KERNEL32.dll
 0001:00087869       _CreateFileW@28            10088869 f   kernel32:KERNEL32.dll
 0001:0008786f       _HeapSize@12               1008886f f   kernel32:KERNEL32.dll
 0001:00087875       _SetEndOfFile@4            10088875 f   kernel32:KERNEL32.dll
 0001:0008787b       _WriteConsoleW@20          1008887b f   kernel32:KERNEL32.dll
 0001:00087881       _OutputDebugStringW@4      10088881 f   kernel32:KERNEL32.dll
 0001:00087887       _DecodePointer@4           10088887 f   kernel32:KERNEL32.dll
 0001:00087890       _strrchr                   10088890 f   libvcruntime:strrchr.obj
 0001:00087b45       _memcmp                    10088b45 f   libvcruntime:memcmp.obj
 0001:00089fe9       _wcschr                    1008afe9 f   libvcruntime:wcschr.obj
 0001:0008a0e1       __filter_x86_sse2_floating_point_exception_default 1008b0e1 f   LIBCMT:x86_exception_filter.obj
 0001:0008a0e1       __filter_x86_sse2_floating_point_exception 1008b0e1 f   LIBCMT:x86_exception_filter.obj
 0002:00000000       ___xc_a                    10090000     LIBCMT:initializers.obj
 0002:00000104       ___xc_z                    10090104     LIBCMT:initializers.obj
 0002:00000208       ___xi_a                    10090208     LIBCMT:initializers.obj
 0002:0000030c       ___acrt_stdio_initializer  1009030c     libucrt:stdio_initializer.obj
 0002:00000310       ___acrt_multibyte_initializer 10090310     libucrt:multibyte_initializer.obj
 0002:00000314       ___acrt_tran_sse2_initializer 10090314     libucrt:sse2_initializer.obj
 0002:0000041c       ___xi_z                    1009041c     LIBCMT:initializers.obj
 0002:00000520       ___xp_a                    10090520     LIBCMT:initializers.obj
 0002:00000624       ___acrt_locale_terminator  10090624     libucrt:locale_initializer.obj
 0002:00000628       ___dcrt_console_output_terminator 10090628     libucrt:console_output_initializer.obj
 0002:00000730       ___acrt_stdio_terminator   10090730     libucrt:stdio_initializer.obj
 0002:00000834       ___xp_z                    10090834     LIBCMT:initializers.obj
 0002:00000938       ___xt_a                    10090938     LIBCMT:initializers.obj
 0002:00000a3c       ___xt_z                    10090a3c     LIBCMT:initializers.obj
 0002:00000b40       ??_C@_0BB@EGMJCNAC@RITM_test_RT1007@ 10090b40     xpctarget.obj
 0002:00000b54       _ptsetfilename             10090b54     xpctarget.obj
 0002:00000b58       _xmlfile                   10090b58     xpctarget.obj
 0002:00000b60       ??_C@_04JPIIEGBP@6?412@    10090b60     xpctarget.obj
 0002:00000b68       ??_C@_01DNKMNLPK@?$HM@     10090b68     xpctarget.obj
 0002:00000b70       __real@3fb999999999999a    10090b70     xpctarget.obj
 0002:00000b80       __real@408f400000000000    10090b80     xpctarget.obj
 0002:00000b90       _RITM_test_RT1007_BIOMAP   10090b90     appmappingData.obj
 0002:00001058       _RITM_test_RT1007_LBLMAP   10091058     appmappingData.obj
 0002:00001520       _RITM_test_RT1007_SIDMAP   10091520     appmappingData.obj
 0002:000019e8       _RITM_test_RT1007_SBIO     100919e8     appmappingData.obj
 0002:00001b80       _RITM_test_RT1007_SLBL     10091b80     appmappingData.obj
 0002:00001d18       _RITM_test_RT1007_PTIDSMAP 10091d18     appmappingData.obj
 0002:000021f8       _RITM_test_RT1007_PTNAMESMAP 100921f8     appmappingData.obj
 0002:000026d8       _RITM_test_RT1007_SPTMAP   100926d8     appmappingData.obj
 0002:00002948       _RITM_test_RT1007_dtmap    10092948     appmappingData.obj
 0002:000029a0       _appInfo                   100929a0     appmappingData.obj
 0002:00002ffe       ??_C@_00CNPNBAHC@@         10092ffe     appmappingData.obj
 0002:00003000       __real@3cb0000000000000    10093000     rt_matrx.obj
 0002:00003010       __real@3fe0000000000000    10093010     rt_matrx.obj
 0002:00003020       __real@3ff0000000000000    10093020     rt_matrx.obj
 0002:00003890       ??_C@_0DJ@FHKINPLE@Unexpected?5itemKind?5?$DN?5DATA_ITEM@ 10093890     rt_logging.obj
 0002:000038d4       ??_C@_0DA@IEHFPFCJ@Unexpected?5itemKind?$DN?$CFd?5in?5rt_Pr@ 100938d4     rt_logging.obj
 0002:00003910       ??_C@_0DA@IFLHJPBO@Unexpected?5itemKind?$DN?$CFd?5in?5rt_Pr@ 10093910     rt_logging.obj
 0002:0000394c       ??_C@_0DA@IAPIIJJL@Unexpected?5itemKind?$DN?$CFd?5in?5rt_Pr@ 1009394c     rt_logging.obj
 0002:00003988       ??_C@_0BE@LCIGPJIG@MATLAB?55?40?5MAT?9file@ 10093988     rt_logging.obj
 0002:000039a0       ??_C@_0FB@PCJEAJIB@?$CK?$CK?$CK?5Log?5variable?5?$CFs?5has?5wrapped@ 100939a0     rt_logging.obj
 0002:00003a08       ??_C@_0MG@NKMLMOGF@?$CK?$CK?$CK?5To?5avoid?5wrapping?0?5explicit@ 10093a08     rt_logging.obj
 0002:00003af8       ??_C@_0N@IPAEOLLP@_rtw_tmw?4tmw@ 10093af8     rt_logging.obj
 0002:00003b08       ??_C@_04HDOCAJNK@?$CFs?$CFs@ 10093b08     rt_logging.obj
 0002:00003b10       ??_C@_03ELIABIOC@w?$CLb@   10093b10     rt_logging.obj
 0002:00003b14       ??_C@_0BF@JPILDDFA@?$CK?$CK?$CK?5Error?5opening?5?$CFs@ 10093b14     rt_logging.obj
 0002:00003b30       ??_C@_0BK@EEMDELA@unable?5to?5open?5data?5file?6@ 10093b30     rt_logging.obj
 0002:00003b50       ??_C@_04CGFJFPFD@none@     10093b50     rt_logging.obj
 0002:00003b58       ??_C@_0EE@LCGFPNON@?$CK?$CK?$CK?5Error?5creating?5signals?5stru@ 10093b58     rt_logging.obj
 0002:00003bac       ??_C@_0CE@NHECEDMK@?$CK?$CK?$CK?5Error?5creating?5log?5variable@ 10093bac     rt_logging.obj
 0002:00003bd8       ??_C@_0DB@IOCGKAGH@?$CK?$CK?$CK?5Errors?5occurred?5when?5starti@ 10093bd8     rt_logging.obj
 0002:00003c14       ??_C@_0BO@BBLOGEBK@?$CK?$CK?$CK?5Memory?5allocation?5error?4?6@ 10093c14     rt_logging.obj
 0002:00003c38       ??_C@_0N@LGFBAGEL@?5?$CIreal?5part?$CJ@ 10093c38     rt_logging.obj
 0002:00003c48       ??_C@_0KH@CGNMHNFE@?5?5?5?5varName?5?5?5?5?5?5?5?5?5?5?$DN?5?$CFs?$CFs?6?5?5?5@ 10093c48     rt_logging.obj
 0002:00003d10       ??_C@_0LE@OALKKEFM@?5?5?5?5varName?5?5?5?5?5?5?5?5?5?5?$DN?5?$CFs?5?$CIcomp@ 10093d10     rt_logging.obj
 0002:00003de8       ??_C@_0KF@JDDLEOKO@?5?5?5?5varName?5?5?5?5?5?5?5?5?5?5?$DN?5?$CFs?6?5?5?5?5n@ 10093de8     rt_logging.obj
 0002:00003eb0       ??_C@_0CH@CBMJDKEA@Could?5not?5allocate?5memory?5for?5l@ 10093eb0     rt_logging.obj
 0002:00003ee0       ??_C@_04IBEKCEIE@?$CFs?4?6@ 10093ee0     rt_logging.obj
 0002:00003ee8       ??_C@_0DP@HPDMIOFM@?$CK?$CK?$CK?5Using?5a?5default?5buffer?5of?5s@ 10093ee8     rt_logging.obj
 0002:00003f38       ??_C@_0KE@JEFOLKNF@?6?$CK?$CK?$CK?5Memory?5required?5to?5log?5var@ 10093f38     rt_logging.obj
 0002:00004000       ??_C@_0JP@DKLMHCBI@?$CK?$CK?$CK?5Details?3?6?5?5?5?5?5?5?5varName?5?5?5?5@ 10094000     rt_logging.obj
 0002:000040c0       ??_C@_0CM@CAMILBED@?$CK?$CK?$CK?5Error?5allocating?5memory?5for@ 100940c0     rt_logging.obj
 0002:000040f4       ??_C@_0DF@BBCNMOPM@?$CK?$CK?$CK?5Error?5allocating?5memory?5for@ 100940f4     rt_logging.obj
 0002:00004138       ??_C@_0JP@DBCLPCCI@?$CK?$CK?$CK?5Details?3?6?5?5?5?5?5?5?5varName?5?5?5?5@ 10094138     rt_logging.obj
 0002:000041f8       ??_C@_0FK@DPGAOBGA@?$CK?$CK?$CK?5Error?5allocating?5memory?5for@ 100941f8     rt_logging.obj
 0002:00004264       ??_C@_0BI@GGDNPHLJ@?$CK?$CK?$CK?5Error?5writing?5to?5?$CFs@ 10094264     rt_logging.obj
 0002:00004280       ??_C@_0CB@IBGJGELG@?$CK?$CK?$CK?5Error?5writing?5?$CFs?5due?5to?3?5?$CFs@ 10094280     rt_logging.obj
 0002:000042a8       ??_C@_0CN@FLMCHCPB@?$CK?$CK?$CK?5Error?5writing?5log?5variable?5@ 100942a8     rt_logging.obj
 0002:000042e0       ??_C@_0DH@GAJCNOJP@?$CK?$CK?$CK?5Error?5writing?5structure?5log@ 100942e0     rt_logging.obj
 0002:00004324       ??_C@_0BD@POEALECL@?$CK?$CK?5created?5?$CFs?5?$CK?$CK?6?6@ 10094324     rt_logging.obj
 0002:00004340       __real@4020000000000000    10094340     rt_logging.obj
 0002:00004350       __real@41dfffffffc00000    10094350     rt_logging.obj
 0002:00004360       __real@41efffffffe00000    10094360     rt_logging.obj
 0002:00004370       __real@4330000000000000    10094370     rt_logging.obj
 0002:00004380       __real@8000000000000000    10094380     rt_logging.obj
 0002:00004390       __real@bfbf9add3afd2773    10094390     rt_logging.obj
 0002:000043a0       __real@bff0000000000000    100943a0     rt_logging.obj
 0002:000043b0       __real@c000000000000000    100943b0     rt_logging.obj
 0002:000043c0       __xmm@20202020202020202020202020202020 100943c0     rt_logging.obj
 0002:000043e0       __xmm@41f00000000000000000000000000000 100943e0     rt_logging.obj
 0002:000043f4       _RITM_test_RT1007_U8GND    100943f4     RITM_test_RT1007.obj
 0002:000043f8       _RITM_test_RT1007_M        100943f8     RITM_test_RT1007.obj
 0002:00004400       ??_C@_0CJ@LHLOEJAD@A?5UART?5at?5address?50x?$CFx?5is?5not?5r@ 10094400     RITM_test_RT1007.obj
 0002:00004434       ??_C@_0BI@OOBIPLKB@Error?5allocating?5memory@ 10094434     RITM_test_RT1007.obj
 0002:00004450       ??_C@_04LIEBAAE@FIFO@      10094450     RITM_test_RT1007.obj
 0002:00004458       ??_C@_0BF@KEBOPNDL@RCV?5channel?51?0?5IRQ?54@ 10094458     RITM_test_RT1007.obj
 0002:00004474       ??_C@_0DC@CECGIJCE@Attempted?5write?5to?5hardware?5fif@ 10094474     RITM_test_RT1007.obj
 0002:000044b0       ??_C@_0BF@OLFPGLPM@RCV?5channel?51?0?5IRQ?53@ 100944b0     RITM_test_RT1007.obj
 0002:000044cc       ??_C@_0BF@EHCFCOGB@XMT?5channel?51?0?5IRQ?53@ 100944cc     RITM_test_RT1007.obj
 0002:000044e8       ??_C@_0BF@HOKIBCKE@XMT?5channel?52?0?5IRQ?53@ 100944e8     RITM_test_RT1007.obj
 0002:00004504       ??_C@_0BF@IGELIKG@XMT?5channel?51?0?5IRQ?54@ 10094504     RITM_test_RT1007.obj
 0002:00004520       ??_C@_0BF@DBOJIEGD@XMT?5channel?52?0?5IRQ?54@ 10094520     RITM_test_RT1007.obj
 0002:0000453c       ??_C@_0BI@PBFPDHLE@Error?5creating?5scope?54?6@ 1009453c     RITM_test_RT1007.obj
 0002:00004558       ??_C@_0BM@BAHJEAEI@BA?9IS?9GPIO?1BA_IS_gpio_di?1p1@ 10094558     RITM_test_RT1007.obj
 0002:0000457c       ??_C@_0BI@PDBJIJON@Error?5creating?5scope?57?6@ 1009457c     RITM_test_RT1007.obj
 0002:00004598       ??_C@_0BL@FBBBKKHE@BA?9IS?9PWM?9CAP?1BA?9IS?9CAP?1p1@ 10094598     RITM_test_RT1007.obj
 0002:000045b8       ??_C@_0BL@HKDMPJLH@BA?9IS?9PWM?9CAP?1BA?9IS?9CAP?1p2@ 100945b8     RITM_test_RT1007.obj
 0002:000045d8       ??_C@_06MDHFEA@?$CF15?48f@ 100945d8     RITM_test_RT1007.obj
 0002:000045e0       ??_C@_0BI@PAJNFNID@Error?5creating?5scope?55?6@ 100945e0     RITM_test_RT1007.obj
 0002:000045fc       ??_C@_0BP@FEEFGGAA@BA?9IS?9UART?1BA?9IS?9UART_rx?1p1?1s1@ 100945fc     RITM_test_RT1007.obj
 0002:00004624       ??_C@_0BP@HPGIDFMD@BA?9IS?9UART?1BA?9IS?9UART_rx?1p1?1s2@ 10094624     RITM_test_RT1007.obj
 0002:0000464c       ??_C@_0BP@GGHDAEIC@BA?9IS?9UART?1BA?9IS?9UART_rx?1p1?1s3@ 1009464c     RITM_test_RT1007.obj
 0002:00004674       ??_C@_0BP@CJDCJCEF@BA?9IS?9UART?1BA?9IS?9UART_rx?1p1?1s4@ 10094674     RITM_test_RT1007.obj
 0002:0000469c       ??_C@_06KFNFIEK@?$CF15?46f@ 1009469c     RITM_test_RT1007.obj
 0002:000046a4       ??_C@_0BI@PHJEPFFP@Error?5creating?5scope?51?6@ 100946a4     RITM_test_RT1007.obj
 0002:000046c0       ??_C@_0BH@PECIBIHA@CA?9MA?945?1CAN?5Unpack?1p1@ 100946c0     RITM_test_RT1007.obj
 0002:000046dc       ??_C@_0BI@PEBACBDB@Error?5creating?5scope?53?6@ 100946dc     RITM_test_RT1007.obj
 0002:000046f8       ??_C@_0BF@NEHJPIHG@RS?9232?1ASCII?5Decode?5@ 100946f8     RITM_test_RT1007.obj
 0002:00004714       ??_C@_0BI@PIEFMONA@Error?5creating?5scope?58?6@ 10094714     RITM_test_RT1007.obj
 0002:00004730       ??_C@_0BP@HMGJNHDH@BA?9IS?9I2C?1BA?9IS?9I2C_read?1p1?1s1@ 10094730     RITM_test_RT1007.obj
 0002:00004758       ??_C@_0BP@FHEEIEPE@BA?9IS?9I2C?1BA?9IS?9I2C_read?1p1?1s2@ 10094758     RITM_test_RT1007.obj
 0002:00004780       ??_C@_0BP@EOFPLFLF@BA?9IS?9I2C?1BA?9IS?9I2C_read?1p1?1s3@ 10094780     RITM_test_RT1007.obj
 0002:000047a8       ??_C@_0BP@BBOCDHC@BA?9IS?9I2C?1BA?9IS?9I2C_read?1p1?1s4@ 100947a8     RITM_test_RT1007.obj
 0002:000047d0       ??_C@_0BI@PCNLODNK@Error?5creating?5scope?56?6@ 100947d0     RITM_test_RT1007.obj
 0002:000047ec       ??_C@_0BI@JHCILLJP@BA?9IS?9SPI?1BA?9IS?9SPI1?1s1@ 100947ec     RITM_test_RT1007.obj
 0002:00004808       ??_C@_0BI@LMAFOIFM@BA?9IS?9SPI?1BA?9IS?9SPI1?1s2@ 10094808     RITM_test_RT1007.obj
 0002:00004824       ??_C@_0BI@KFBONJBN@BA?9IS?9SPI?1BA?9IS?9SPI1?1s3@ 10094824     RITM_test_RT1007.obj
 0002:00004840       ??_C@_0BI@OKFPEPNK@BA?9IS?9SPI?1BA?9IS?9SPI1?1s4@ 10094840     RITM_test_RT1007.obj
 0002:0000485c       ??_C@_0DJ@NIFJKAJA@ISR?5registration?5failed?5for?5Int@ 1009485c     RITM_test_RT1007.obj
 0002:000048a0       ??_C@_0BC@OJJPBDHH@FixedStepDiscrete@ 100948a0     RITM_test_RT1007.obj
 0002:000048b8       ??_C@_04EPKDLPPB@tout@     100948b8     RITM_test_RT1007.obj
 0002:000048c0       ??_C@_03HBFGMJOD@rt_@      100948c0     RITM_test_RT1007.obj
 0002:000048c4       ??_C@_0O@JIPKMHNA@BA_IS_gpio_di@ 100948c4     RITM_test_RT1007.obj
 0002:000048d4       ??_C@_0CK@HFHEJKG@RITM_test_RT1007?1BA?9IS?9GPIO?1BA_@ 100948d4     RITM_test_RT1007.obj
 0002:00004908       ??_C@_0O@MOKAGAFG@BA_IS_gpio_do@ 10094908     RITM_test_RT1007.obj
 0002:00004918       ??_C@_0CK@FBANOOCA@RITM_test_RT1007?1BA?9IS?9GPIO?1BA_@ 10094918     RITM_test_RT1007.obj
 0002:0000494c       ??_C@_0P@GOAMDKGM@BA?9IS?9I2C_read@ 1009494c     RITM_test_RT1007.obj
 0002:00004960       ??_C@_0CK@FGILNEKC@RITM_test_RT1007?1BA?9IS?9I2C?1BA?9I@ 10094960     RITM_test_RT1007.obj
 0002:00004994       ??_C@_09NDKMMOB@BA?9IS?9CAP@ 10094994     RITM_test_RT1007.obj
 0002:000049a0       ??_C@_0CJ@MNBENEKG@RITM_test_RT1007?1BA?9IS?9PWM?9CAP?1@ 100949a0     RITM_test_RT1007.obj
 0002:000049d4       ??_C@_0L@BBFNOPJA@BA?9IS?9CAP1@ 100949d4     RITM_test_RT1007.obj
 0002:000049e4       ??_C@_0CK@PJCFBFLL@RITM_test_RT1007?1BA?9IS?9PWM?9CAP?1@ 100949e4     RITM_test_RT1007.obj
 0002:00004a18       ??_C@_0L@DKHALMFD@BA?9IS?9CAP2@ 10094a18     RITM_test_RT1007.obj
 0002:00004a28       ??_C@_0CK@NCAIEGHI@RITM_test_RT1007?1BA?9IS?9PWM?9CAP?1@ 10094a28     RITM_test_RT1007.obj
 0002:00004a5c       ??_C@_0L@CDGLINBC@BA?9IS?9CAP3@ 10094a5c     RITM_test_RT1007.obj
 0002:00004a6c       ??_C@_0CK@MLBDHHDJ@RITM_test_RT1007?1BA?9IS?9PWM?9CAP?1@ 10094a6c     RITM_test_RT1007.obj
 0002:00004aa0       ??_C@_09KIFBIHEO@BA?9IS?9PWM@ 10094aa0     RITM_test_RT1007.obj
 0002:00004aac       ??_C@_0CJ@GIHPJPAJ@RITM_test_RT1007?1BA?9IS?9PWM?9CAP?1@ 10094aac     RITM_test_RT1007.obj
 0002:00004ae0       ??_C@_0L@FHJBDKKC@BA?9IS?9PWM1@ 10094ae0     RITM_test_RT1007.obj
 0002:00004af0       ??_C@_0CK@LPOJMAIJ@RITM_test_RT1007?1BA?9IS?9PWM?9CAP?1@ 10094af0     RITM_test_RT1007.obj
 0002:00004b24       ??_C@_0L@IKOPNABH@BA?9IS?9SPI1@ 10094b24     RITM_test_RT1007.obj
 0002:00004b34       ??_C@_0CG@EDGBHLFD@RITM_test_RT1007?1BA?9IS?9SPI?1BA?9I@ 10094b34     RITM_test_RT1007.obj
 0002:00004b64       ??_C@_0BB@PDHOCKCO@BA?9IS?9UART_setup@ 10094b64     RITM_test_RT1007.obj
 0002:00004b78       ??_C@_0CN@JGPNNGAL@RITM_test_RT1007?1BA?9IS?9UART?1BA?9@ 10094b78     RITM_test_RT1007.obj
 0002:00004bb0       ??_C@_0O@LEBMELCF@BA?9IS?9UART_rx@ 10094bb0     RITM_test_RT1007.obj
 0002:00004bc0       ??_C@_0CK@JDJBIKBF@RITM_test_RT1007?1BA?9IS?9UART?1BA?9@ 10094bc0     RITM_test_RT1007.obj
 0002:00004bf4       ??_C@_0O@LAJBDHJH@BA?9IS?9UART_tx@ 10094bf4     RITM_test_RT1007.obj
 0002:00004c04       ??_C@_0CK@JHBMPGKH@RITM_test_RT1007?1BA?9IS?9UART?1BA?9@ 10094c04     RITM_test_RT1007.obj
 0002:00004c38       ??_C@_08DLOLLHMB@CA_MA_rx@ 10094c38     RITM_test_RT1007.obj
 0002:00004c44       ??_C@_0CD@EDPNEAOK@RITM_test_RT1007?1CA?9MA?945?1CA_MA@ 10094c44     RITM_test_RT1007.obj
 0002:00004c70       ??_C@_0N@MFPDIAIC@CA_MA_status@ 10094c70     RITM_test_RT1007.obj
 0002:00004c80       ??_C@_0DE@NKCLKIFD@RITM_test_RT1007?1CA?9MA?945?1CA_MA@ 10094c80     RITM_test_RT1007.obj
 0002:00004cc0       ??_C@_08DPGGMLHD@CA_MA_tx@ 10094cc0     RITM_test_RT1007.obj
 0002:00004ccc       ??_C@_0CD@EHHADMFI@RITM_test_RT1007?1CA?9MA?945?1CA_MA@ 10094ccc     RITM_test_RT1007.obj
 0002:00004cf8       ??_C@_09CKAFBOCD@CA_MA_rx1@ 10094cf8     RITM_test_RT1007.obj
 0002:00004d04       ??_C@_0CE@IGMBPBJE@RITM_test_RT1007?1CA?9MA?945?1CA_MA@ 10094d04     RITM_test_RT1007.obj
 0002:00004d30       ??_C@_0M@MGEFJLND@CA_MA_setup@ 10094d30     RITM_test_RT1007.obj
 0002:00004d40       ??_C@_0CG@FNHEPAIB@RITM_test_RT1007?1CA?9MA?945?1CA_MA@ 10094d40     RITM_test_RT1007.obj
 0002:00004d70       ??_C@_0O@MCJDFIKD@ASCII?5Decode?5@ 10094d70     RITM_test_RT1007.obj
 0002:00004d80       ??_C@_0CG@MLEFHKBK@RITM_test_RT1007?1RS?9232?1ASCII?5D@ 10094d80     RITM_test_RT1007.obj
 0002:00004db0       ??_C@_06OKIIDEAB@Setup1@   10094db0     RITM_test_RT1007.obj
 0002:00004db8       ??_C@_0DD@FBOGHEFN@RITM_test_RT1007?1RS?9232?1Baseboa@ 10094db8     RITM_test_RT1007.obj
 0002:00004df8       ??_C@_06MBKFGHMC@Setup2@   10094df8     RITM_test_RT1007.obj
 0002:00004e00       ??_C@_0DD@HKMLCHJO@RITM_test_RT1007?1RS?9232?1Baseboa@ 10094e00     RITM_test_RT1007.obj
 0002:00004e40       ??_C@_0O@MDOAMMH@ASCII?5Encode?5@ 10094e40     RITM_test_RT1007.obj
 0002:00004e50       ??_C@_0CG@FOICOHO@RITM_test_RT1007?1RS?9232?1ASCII?5E@ 10094e50     RITM_test_RT1007.obj
 0002:00004e80       ??_C@_0DC@PDOFHPAF@RITM_test_RT1007?1RS?9232?1Baseboa@ 10094e80     RITM_test_RT1007.obj
 0002:00004ebc       ??_C@_0DC@NIMICMMG@RITM_test_RT1007?1RS?9232?1Baseboa@ 10094ebc     RITM_test_RT1007.obj
 0002:00004ef8       __real@3f50624dd2f1a9fc    10094ef8     RITM_test_RT1007.obj
 0002:00004f08       __real@3f847ae147ae147b    10094f08     RITM_test_RT1007.obj
 0002:00004f18       __real@4000000000000000    10094f18     RITM_test_RT1007.obj
 0002:00004f28       __real@4008000000000000    10094f28     RITM_test_RT1007.obj
 0002:00004f38       __real@4059000000000000    10094f38     RITM_test_RT1007.obj
 0002:00004f48       __real@406f400000000000    10094f48     RITM_test_RT1007.obj
 0002:00004f58       __real@407f400000000000    10094f58     RITM_test_RT1007.obj
 0002:00004f68       __real@40a3880000000000    10094f68     RITM_test_RT1007.obj
 0002:00004f78       __real@41f0000000000000    10094f78     RITM_test_RT1007.obj
 0002:00004f90       __xmm@00000000000000003fb999999999999a 10094f90     RITM_test_RT1007.obj
 0002:00004fb0       __xmm@0000000d00000000000000010000003c 10094fb0     RITM_test_RT1007.obj
 0002:00004fd0       __xmm@0000000d000000010000000100000400 10094fd0     RITM_test_RT1007.obj
 0002:00004ff0       __xmm@000001a4000000640000009100000003 10094ff0     RITM_test_RT1007.obj
 0002:00005010       __xmm@3f847ae147ae147b3f50624dd2f1a9fc 10095010     RITM_test_RT1007.obj
 0002:00006f34       ??_C@_0BK@JAIHLNJG@BA?9IS?9GPIO?1Twice?5a?5second@ 10096f34     RITM_test_RT1007_capi.obj
 0002:00006f54       ??_C@_0BM@DLFEBDIL@BA?9IS?9GPIO?1BA_IS_gpio_di?1p2@ 10096f54     RITM_test_RT1007_capi.obj
 0002:00006f78       ??_C@_0BM@CCEPCCMK@BA?9IS?9GPIO?1BA_IS_gpio_di?1p3@ 10096f78     RITM_test_RT1007_capi.obj
 0002:00006f9c       ??_C@_0BM@GNAOLEAN@BA?9IS?9GPIO?1BA_IS_gpio_di?1p4@ 10096f9c     RITM_test_RT1007_capi.obj
 0002:00006fc0       ??_C@_0BM@HEBFIFEM@BA?9IS?9GPIO?1BA_IS_gpio_di?1p5@ 10096fc0     RITM_test_RT1007_capi.obj
 0002:00006fe4       ??_C@_0BM@FPDINGIP@BA?9IS?9GPIO?1BA_IS_gpio_di?1p6@ 10096fe4     RITM_test_RT1007_capi.obj
 0002:00007008       ??_C@_0BM@EGCDOHMO@BA?9IS?9GPIO?1BA_IS_gpio_di?1p7@ 10097008     RITM_test_RT1007_capi.obj
 0002:0000702c       ??_C@_0BM@MBLLPLAB@BA?9IS?9GPIO?1BA_IS_gpio_di?1p8@ 1009702c     RITM_test_RT1007_capi.obj
 0002:00007050       ??_C@_0BM@NIKAMKEA@BA?9IS?9GPIO?1BA_IS_gpio_di?1p9@ 10097050     RITM_test_RT1007_capi.obj
 0002:00007074       ??_C@_0BN@KHFBIGBB@BA?9IS?9GPIO?1BA_IS_gpio_di?1p10@ 10097074     RITM_test_RT1007_capi.obj
 0002:00007098       ??_C@_0BN@LOEKLHFA@BA?9IS?9GPIO?1BA_IS_gpio_di?1p11@ 10097098     RITM_test_RT1007_capi.obj
 0002:000070bc       ??_C@_0BN@JFGHOEJD@BA?9IS?9GPIO?1BA_IS_gpio_di?1p12@ 100970bc     RITM_test_RT1007_capi.obj
 0002:000070e0       ??_C@_0BN@IMHMNFNC@BA?9IS?9GPIO?1BA_IS_gpio_di?1p13@ 100970e0     RITM_test_RT1007_capi.obj
 0002:00007104       ??_C@_0BM@FMPKICGN@BA?9IS?9I2C?1BA?9IS?9I2C_read?1p1@ 10097104     RITM_test_RT1007_capi.obj
 0002:00007128       ??_C@_0BM@HHNHNBKO@BA?9IS?9I2C?1BA?9IS?9I2C_read?1p2@ 10097128     RITM_test_RT1007_capi.obj
 0002:0000714c       ??_C@_0BI@CPEHOHBG@BA?9IS?9PWM?9CAP?1Constant1@ 1009714c     RITM_test_RT1007_capi.obj
 0002:00007168       ??_C@_0BI@EGKLENF@BA?9IS?9PWM?9CAP?1Constant2@ 10097168     RITM_test_RT1007_capi.obj
 0002:00007184       ??_C@_0BI@BNHBIFJE@BA?9IS?9PWM?9CAP?1Constant3@ 10097184     RITM_test_RT1007_capi.obj
 0002:000071a0       ??_C@_0BI@POIFFMFP@BA?9IS?9PWM?9CAP?1Constant8@ 100971a0     RITM_test_RT1007_capi.obj
 0002:000071bc       ??_C@_0BM@KMICHCNN@BA?9IS?9PWM?9CAP?1BA?9IS?9CAP1?1p1@ 100971bc     RITM_test_RT1007_capi.obj
 0002:000071e0       ??_C@_0BM@IHKPCBBO@BA?9IS?9PWM?9CAP?1BA?9IS?9CAP1?1p2@ 100971e0     RITM_test_RT1007_capi.obj
 0002:00007204       ??_C@_0BM@OLCCAIAN@BA?9IS?9PWM?9CAP?1BA?9IS?9CAP2?1p1@ 10097204     RITM_test_RT1007_capi.obj
 0002:00007228       ??_C@_0BM@MAAPFLMO@BA?9IS?9PWM?9CAP?1BA?9IS?9CAP2?1p2@ 10097228     RITM_test_RT1007_capi.obj
 0002:0000724c       ??_C@_0BM@NGECCBLN@BA?9IS?9PWM?9CAP?1BA?9IS?9CAP3?1p1@ 1009724c     RITM_test_RT1007_capi.obj
 0002:00007270       ??_C@_0BM@PNGPHCHO@BA?9IS?9PWM?9CAP?1BA?9IS?9CAP3?1p2@ 10097270     RITM_test_RT1007_capi.obj
 0002:00007294       ??_C@_0BA@GFGFANEC@BA?9IS?9SPI?1Bias1@ 10097294     RITM_test_RT1007_capi.obj
 0002:000072a8       ??_C@_0BF@FMFNPJDP@BA?9IS?9SPI?1BA?9IS?9SPI1@ 100972a8     RITM_test_RT1007_capi.obj
 0002:000072c4       ??_C@_0BI@PMNHBOPB@BA?9IS?9SPI?1Manual?5Switch@ 100972c4     RITM_test_RT1007_capi.obj
 0002:000072e0       ??_C@_0BM@EFLBODJN@BA?9IS?9UART?1BA?9IS?9UART_rx?1p1@ 100972e0     RITM_test_RT1007_capi.obj
 0002:00007304       ??_C@_0BM@GOJMLAFO@BA?9IS?9UART?1BA?9IS?9UART_rx?1p2@ 10097304     RITM_test_RT1007_capi.obj
 0002:00007328       ??_C@_0BM@HHIHIBBP@BA?9IS?9UART?1BA?9IS?9UART_rx?1p3@ 10097328     RITM_test_RT1007_capi.obj
 0002:0000734c       ??_C@_0BJ@OBJHHGFL@BA?9IS?9UART?1Manual?5Switch@ 1009734c     RITM_test_RT1007_capi.obj
 0002:0000736c       ??_C@_0BB@JFBLPFNF@BA?9IS?9UART?1Width@ 1009736c     RITM_test_RT1007_capi.obj
 0002:00007380       ??_C@_0BC@IEIOOCDN@CA?9MA?945?1CAN?5Pack@ 10097380     RITM_test_RT1007_capi.obj
 0002:00007398       ??_C@_0BH@NPAFELLD@CA?9MA?945?1CAN?5Unpack?1p2@ 10097398     RITM_test_RT1007_capi.obj
 0002:000073b4       ??_C@_0BH@MGBOHKPC@CA?9MA?945?1CAN?5Unpack?1p3@ 100973b4     RITM_test_RT1007_capi.obj
 0002:000073d0       ??_C@_0BH@IJFPOMDF@CA?9MA?945?1CAN?5Unpack?1p4@ 100973d0     RITM_test_RT1007_capi.obj
 0002:000073ec       ??_C@_0BH@JAEENNHE@CA?9MA?945?1CAN?5Unpack?1p5@ 100973ec     RITM_test_RT1007_capi.obj
 0002:00007408       ??_C@_0BH@LLGJIOLH@CA?9MA?945?1CAN?5Unpack?1p6@ 10097408     RITM_test_RT1007_capi.obj
 0002:00007424       ??_C@_0BH@KCHCLPPG@CA?9MA?945?1CAN?5Unpack?1p7@ 10097424     RITM_test_RT1007_capi.obj
 0002:00007440       ??_C@_0BF@OCMBMGHH@CA?9MA?945?1CA_MA_rx?1p1@ 10097440     RITM_test_RT1007_capi.obj
 0002:0000745c       ??_C@_0BF@MJOMJFLE@CA?9MA?945?1CA_MA_rx?1p2@ 1009745c     RITM_test_RT1007_capi.obj
 0002:00007478       ??_C@_0BG@DFDIPDAL@CA?9MA?945?1CA_MA_rx1?1p1@ 10097478     RITM_test_RT1007_capi.obj
 0002:00007494       ??_C@_0BG@BOBFKAMI@CA?9MA?945?1CA_MA_rx1?1p2@ 10097494     RITM_test_RT1007_capi.obj
 0002:000074b0       ??_C@_0BC@MELPKMAE@CA?9MA?945?1CA_MA_tx@ 100974b0     RITM_test_RT1007_capi.obj
 0002:000074c8       ??_C@_0BD@CKBAHMIF@CA?9MA?945?1Sine?5Wave@ 100974c8     RITM_test_RT1007_capi.obj
 0002:000074e0       ??_C@_0BF@BKNEKMBC@RS?9232?1ASCII?5Encode?5@ 100974e0     RITM_test_RT1007_capi.obj
 0002:000074fc       ??_C@_0BC@DANCGLPL@RS?9232?1FIFO?5read?5@ 100974fc     RITM_test_RT1007_capi.obj
 0002:00007514       ??_C@_0BB@NIODFGIO@RS?9232?1Sine?5Wave@ 10097514     RITM_test_RT1007_capi.obj
 0002:00007528       ??_C@_0CC@BDIHFKMH@BA?9IS?9SPI?1Counter?5Limited1?1Outp@ 10097528     RITM_test_RT1007_capi.obj
 0002:00007550       ??_C@_0CC@NPNJPFAH@BA?9IS?9UART?1Counter?5Limited?1Outp@ 10097550     RITM_test_RT1007_capi.obj
 0002:00007578       ??_C@_0CI@DHFLAPAA@CA?9MA?945?1CA_MA_status?1Signal?5Co@ 10097578     RITM_test_RT1007_capi.obj
 0002:000075a8       ??_C@_0P@PHGIOPKP@RxErrorCounter@ 100975a8     RITM_test_RT1007_capi.obj
 0002:000075bc       ??_C@_0CJ@MGGKFMLN@CA?9MA?945?1CA_MA_status?1Signal?5Co@ 100975bc     RITM_test_RT1007_capi.obj
 0002:000075f0       ??_C@_0P@NFJCDLFN@TxErrorCounter@ 100975f0     RITM_test_RT1007_capi.obj
 0002:00007604       ??_C@_0CD@JABIGNID@CA?9MA?945?1CA_MA_status?1CA_MA_sta@ 10097604     RITM_test_RT1007_capi.obj
 0002:00007630       ??_C@_0CK@PEGLDCDK@RS?9232?1Baseboard?5Serial?5F?1Rate?5@ 10097630     RITM_test_RT1007_capi.obj
 0002:00007664       ??_C@_0CL@KFLFDC@RS?9232?1Baseboard?5Serial?5F?1Rate?5@ 10097664     RITM_test_RT1007_capi.obj
 0002:00007698       ??_C@_0CL@CLIIOGPB@RS?9232?1Baseboard?5Serial?5F?1Rate?5@ 10097698     RITM_test_RT1007_capi.obj
 0002:000076cc       ??_C@_0CL@DCJDNHLA@RS?9232?1Baseboard?5Serial?5F?1Rate?5@ 100976cc     RITM_test_RT1007_capi.obj
 0002:00007700       ??_C@_0CK@CDBJPOID@RS?9232?1Baseboard?5Serial?5F?1FIFO?5@ 10097700     RITM_test_RT1007_capi.obj
 0002:00007734       ??_C@_0CK@IDEKNEA@RS?9232?1Baseboard?5Serial?5F?1FIFO?5@ 10097734     RITM_test_RT1007_capi.obj
 0002:00007768       ??_C@_0CK@GELJIEFD@RS?9232?1Baseboard?5Serial?5F?1FIFO?5@ 10097768     RITM_test_RT1007_capi.obj
 0002:0000779c       ??_C@_0CK@EPJENHJA@RS?9232?1Baseboard?5Serial?5F?1FIFO?5@ 1009779c     RITM_test_RT1007_capi.obj
 0002:000077d0       ??_C@_0CL@PFOMGCOM@RS?9232?1Baseboard?5Serial?5F1?1Rate@ 100977d0     RITM_test_RT1007_capi.obj
 0002:00007804       ??_C@_0CM@GPBEEFID@RS?9232?1Baseboard?5Serial?5F1?1Rate@ 10097804     RITM_test_RT1007_capi.obj
 0002:00007838       ??_C@_0CM@EEDJBGEA@RS?9232?1Baseboard?5Serial?5F1?1Rate@ 10097838     RITM_test_RT1007_capi.obj
 0002:0000786c       ??_C@_0CM@FNCCCHAB@RS?9232?1Baseboard?5Serial?5F1?1Rate@ 1009786c     RITM_test_RT1007_capi.obj
 0002:000078a0       ??_C@_0CL@CCJOKOFF@RS?9232?1Baseboard?5Serial?5F1?1FIFO@ 100978a0     RITM_test_RT1007_capi.obj
 0002:000078d4       ??_C@_0CL@JLDPNJG@RS?9232?1Baseboard?5Serial?5F1?1FIFO@ 100978d4     RITM_test_RT1007_capi.obj
 0002:00007908       ??_C@_0CL@GFDONEIF@RS?9232?1Baseboard?5Serial?5F1?1FIFO@ 10097908     RITM_test_RT1007_capi.obj
 0002:0000793c       ??_C@_0CL@EOBDIHEG@RS?9232?1Baseboard?5Serial?5F1?1FIFO@ 1009793c     RITM_test_RT1007_capi.obj
 0002:00007970       ??_C@_0DL@LBAIEHHM@BA?9IS?9SPI?1Counter?5Limited1?1Incr@ 10097970     RITM_test_RT1007_capi.obj
 0002:000079b8       ??_C@_0DF@GEBGADCH@BA?9IS?9SPI?1Counter?5Limited1?1Wrap@ 100979b8     RITM_test_RT1007_capi.obj
 0002:000079f8       ??_C@_0DL@HOPPJEMH@BA?9IS?9UART?1Counter?5Limited?1Incr@ 100979f8     RITM_test_RT1007_capi.obj
 0002:00007a40       ??_C@_0DF@GIMPABFP@BA?9IS?9UART?1Counter?5Limited?1Wrap@ 10097a40     RITM_test_RT1007_capi.obj
 0002:00007a80       ??_C@_0DI@NGDHNKOA@CA?9MA?945?1CA_MA_status?1Extract?5B@ 10097a80     RITM_test_RT1007_capi.obj
 0002:00007ac4       ??_C@_0DH@OHNDHLFB@CA?9MA?945?1CA_MA_status?1Extract?5B@ 10097ac4     RITM_test_RT1007_capi.obj
 0002:00007b08       ??_C@_0DJ@MDMNKEFK@CA?9MA?945?1CA_MA_status?1Extract?5B@ 10097b08     RITM_test_RT1007_capi.obj
 0002:00007b4c       ??_C@_0DI@MHIAIIAM@CA?9MA?945?1CA_MA_status?1Extract?5B@ 10097b4c     RITM_test_RT1007_capi.obj
 0002:00007b90       ??_C@_0DI@MCLHOFEA@RS?9232?1Baseboard?5Serial?5F?1RS232@ 10097b90     RITM_test_RT1007_capi.obj
 0002:00007bd4       ??_C@_0DJ@ECFGOEFH@RS?9232?1Baseboard?5Serial?5F1?1RS23@ 10097bd4     RITM_test_RT1007_capi.obj
 0002:00007c18       ??_C@_0DL@PPBGPFFF@RS?9232?1Baseboard?5Serial?5F?1RS232@ 10097c18     RITM_test_RT1007_capi.obj
 0002:00007c60       ??_C@_0DM@NOEBBFBM@RS?9232?1Baseboard?5Serial?5F?1RS232@ 10097c60     RITM_test_RT1007_capi.obj
 0002:00007ca8       ??_C@_0DL@MFEGMMOP@RS?9232?1Baseboard?5Serial?5F?1RS232@ 10097ca8     RITM_test_RT1007_capi.obj
 0002:00007cf0       ??_C@_0DM@NMKEPCCN@RS?9232?1Baseboard?5Serial?5F?1RS232@ 10097cf0     RITM_test_RT1007_capi.obj
 0002:00007d38       ??_C@_0DO@FNPPHOIO@RS?9232?1Baseboard?5Serial?5F?1RS232@ 10097d38     RITM_test_RT1007_capi.obj
 0002:00007d84       ??_C@_0DO@HGNCCNEN@RS?9232?1Baseboard?5Serial?5F?1RS232@ 10097d84     RITM_test_RT1007_capi.obj
 0002:00007dd0       ??_C@_0DO@EJMFFPNK@RS?9232?1Baseboard?5Serial?5F?1RS232@ 10097dd0     RITM_test_RT1007_capi.obj
 0002:00007e1c       ??_C@_0DO@GCOIAMBJ@RS?9232?1Baseboard?5Serial?5F?1RS232@ 10097e1c     RITM_test_RT1007_capi.obj
 0002:00007e68       ??_C@_0DM@CIGJKDIP@RS?9232?1Baseboard?5Serial?5F1?1RS23@ 10097e68     RITM_test_RT1007_capi.obj
 0002:00007eb0       ??_C@_0DN@LIJAFBIA@RS?9232?1Baseboard?5Serial?5F1?1RS23@ 10097eb0     RITM_test_RT1007_capi.obj
 0002:00007efc       ??_C@_0DM@BCDJJKDF@RS?9232?1Baseboard?5Serial?5F1?1RS23@ 10097efc     RITM_test_RT1007_capi.obj
 0002:00007f44       ??_C@_0DN@LKHFLGLB@RS?9232?1Baseboard?5Serial?5F1?1RS23@ 10097f44     RITM_test_RT1007_capi.obj
 0002:00007f90       ??_C@_0DP@PBLKFIMA@RS?9232?1Baseboard?5Serial?5F1?1RS23@ 10097f90     RITM_test_RT1007_capi.obj
 0002:00007fdc       ??_C@_0DP@NKJHALAD@RS?9232?1Baseboard?5Serial?5F1?1RS23@ 10097fdc     RITM_test_RT1007_capi.obj
 0002:00008028       ??_C@_0DP@OFIAHJJE@RS?9232?1Baseboard?5Serial?5F1?1RS23@ 10098028     RITM_test_RT1007_capi.obj
 0002:00008074       ??_C@_0DP@MOKNCKFH@RS?9232?1Baseboard?5Serial?5F1?1RS23@ 10098074     RITM_test_RT1007_capi.obj
 0002:000080c0       ??_C@_09IHLJOMI@Amplitude@ 100980c0     RITM_test_RT1007_capi.obj
 0002:000080cc       ??_C@_06JOFJHOEH@Period@   100980cc     RITM_test_RT1007_capi.obj
 0002:000080d4       ??_C@_0L@HCJBDGGO@PulseWidth@ 100980d4     RITM_test_RT1007_capi.obj
 0002:000080e4       ??_C@_0L@JNLMCMDB@PhaseDelay@ 100980e4     RITM_test_RT1007_capi.obj
 0002:000080f4       ??_C@_0BJ@GKONLKPJ@BA?9IS?9GPIO?1BA_IS_gpio_di@ 100980f4     RITM_test_RT1007_capi.obj
 0002:00008114       ??_C@_02KKFPAPOP@P1@       10098114     RITM_test_RT1007_capi.obj
 0002:00008118       ??_C@_02IBHCFMCM@P2@       10098118     RITM_test_RT1007_capi.obj
 0002:0000811c       ??_C@_02JIGJGNGN@P3@       1009811c     RITM_test_RT1007_capi.obj
 0002:00008120       ??_C@_02NHCIPLKK@P4@       10098120     RITM_test_RT1007_capi.obj
 0002:00008124       ??_C@_0BJ@DMLHBNHP@BA?9IS?9GPIO?1BA_IS_gpio_do@ 10098124     RITM_test_RT1007_capi.obj
 0002:00008144       ??_C@_0BJ@DLDBCHPN@BA?9IS?9I2C?1BA?9IS?9I2C_read@ 10098144     RITM_test_RT1007_capi.obj
 0002:00008164       ??_C@_02MODDMKOL@P5@       10098164     RITM_test_RT1007_capi.obj
 0002:00008168       ??_C@_02OFBOJJCI@P6@       10098168     RITM_test_RT1007_capi.obj
 0002:0000816c       ??_C@_05LPIJGKJ@Value@     1009816c     RITM_test_RT1007_capi.obj
 0002:00008174       ??_C@_0BI@KKADGALD@BA?9IS?9PWM?9CAP?1BA?9IS?9CAP@ 10098174     RITM_test_RT1007_capi.obj
 0002:00008190       ??_C@_0BJ@JEJPOGOE@BA?9IS?9PWM?9CAP?1BA?9IS?9CAP1@ 10098190     RITM_test_RT1007_capi.obj
 0002:000081b0       ??_C@_0BJ@LPLCLFCH@BA?9IS?9PWM?9CAP?1BA?9IS?9CAP2@ 100981b0     RITM_test_RT1007_capi.obj
 0002:000081d0       ??_C@_0BJ@KGKJIEGG@BA?9IS?9PWM?9CAP?1BA?9IS?9CAP3@ 100981d0     RITM_test_RT1007_capi.obj
 0002:000081f0       ??_C@_0BI@PGICLBM@BA?9IS?9PWM?9CAP?1BA?9IS?9PWM@ 100981f0     RITM_test_RT1007_capi.obj
 0002:0000820c       ??_C@_0BJ@NCFDDDNG@BA?9IS?9PWM?9CAP?1BA?9IS?9PWM1@ 1009820c     RITM_test_RT1007_capi.obj
 0002:0000822c       ??_C@_0BL@HMLFJJBA@BA?9IS?9SPI?1Counter?5Limited1@ 1009822c     RITM_test_RT1007_capi.obj
 0002:0000824c       ??_C@_07LMAINGNH@uplimit@  1009824c     RITM_test_RT1007_capi.obj
 0002:00008258       ??_C@_04BAMHDAGA@Bias@     10098258     RITM_test_RT1007_capi.obj
 0002:00008260       ??_C@_0BN@EJFOMFKI@BA?9IS?9SPI?1Generate?5some?5data@ 10098260     RITM_test_RT1007_capi.obj
 0002:00008284       ??_C@_02PMAFKIGJ@P7@       10098284     RITM_test_RT1007_capi.obj
 0002:00008288       ??_C@_02HLJNLEKG@P8@       10098288     RITM_test_RT1007_capi.obj
 0002:0000828c       ??_C@_0P@HMEAEHIM@CurrentSetting@ 1009828c     RITM_test_RT1007_capi.obj
 0002:000082a0       ??_C@_0BL@CPCJAHLN@BA?9IS?9UART?1Counter?5Limited@ 100982a0     RITM_test_RT1007_capi.obj
 0002:000082c0       ??_C@_0BO@CKNHMKP@BA?9IS?9UART?1Generate?5some?5data@ 100982c0     RITM_test_RT1007_capi.obj
 0002:000082e4       ??_C@_0BJ@POCLHJEK@BA?9IS?9UART?1BA?9IS?9UART_rx@ 100982e4     RITM_test_RT1007_capi.obj
 0002:00008304       ??_C@_0BM@OFDIFHAH@BA?9IS?9UART?1BA?9IS?9UART_setup@ 10098304     RITM_test_RT1007_capi.obj
 0002:00008328       ??_C@_0BJ@PKKGAFPI@BA?9IS?9UART?1BA?9IS?9UART_tx@ 10098328     RITM_test_RT1007_capi.obj
 0002:00008348       ??_C@_0BC@MADCNALG@CA?9MA?945?1CA_MA_rx@ 10098348     RITM_test_RT1007_capi.obj
 0002:00008360       ??_C@_0BD@OEJPCDNL@CA?9MA?945?1CA_MA_rx1@ 10098360     RITM_test_RT1007_capi.obj
 0002:00008378       ??_C@_0BF@ECEIHCON@CA?9MA?945?1CA_MA_setup@ 10098378     RITM_test_RT1007_capi.obj
 0002:00008394       ??_C@_09OGDICNME@Frequency@ 10098394     RITM_test_RT1007_capi.obj
 0002:000083a0       ??_C@_04HKKJCGFH@SinH@     100983a0     RITM_test_RT1007_capi.obj
 0002:000083a8       ??_C@_04CLNMNOCK@CosH@     100983a8     RITM_test_RT1007_capi.obj
 0002:000083b0       ??_C@_06EAKBABMB@SinPhi@   100983b0     RITM_test_RT1007_capi.obj
 0002:000083b8       ??_C@_06GJFGCNCB@CosPhi@   100983b8     RITM_test_RT1007_capi.obj
 0002:000083c0       ??_C@_0BB@CFEOEMDC@InitialCondition@ 100983c0     RITM_test_RT1007_capi.obj
 0002:000083d4       ??_C@_0CB@PAIGDNME@RS?9232?1Baseboard?5Serial?5F?1Setup@ 100983d4     RITM_test_RT1007_capi.obj
 0002:000083fc       ??_C@_0CB@NLKLGOAH@RS?9232?1Baseboard?5Serial?5F?1Setup@ 100983fc     RITM_test_RT1007_capi.obj
 0002:00008424       ??_C@_0CC@LNIGOFDJ@RS?9232?1Baseboard?5Serial?5F1?1Setu@ 10098424     RITM_test_RT1007_capi.obj
 0002:0000844c       ??_C@_0CC@JGKLLGPK@RS?9232?1Baseboard?5Serial?5F1?1Setu@ 1009844c     RITM_test_RT1007_capi.obj
 0002:00008474       ??_C@_0DP@JEJCNPKK@BA?9IS?9SPI?1Counter?5Limited1?1Incr@ 10098474     RITM_test_RT1007_capi.obj
 0002:000084c0       ??_C@_0DB@PCAKKHMM@BA?9IS?9SPI?1Counter?5Limited1?1Wrap@ 100984c0     RITM_test_RT1007_capi.obj
 0002:000084fc       ??_C@_0DP@IBAIDFAD@BA?9IS?9UART?1Counter?5Limited?1Incr@ 100984fc     RITM_test_RT1007_capi.obj
 0002:00008548       ??_C@_0DB@MIDHKBJG@BA?9IS?9UART?1Counter?5Limited?1Wrap@ 10098548     RITM_test_RT1007_capi.obj
 0002:00008584       ??_C@_0DH@CMBOBBNN@RS?9232?1Baseboard?5Serial?5F?1RS232@ 10098584     RITM_test_RT1007_capi.obj
 0002:000085c8       ??_C@_0DH@LFPMHHNM@RS?9232?1Baseboard?5Serial?5F?1RS232@ 100985c8     RITM_test_RT1007_capi.obj
 0002:0000860c       ??_C@_0DJ@PBGKICD@RS?9232?1Baseboard?5Serial?5F?1RS232@ 1009860c     RITM_test_RT1007_capi.obj
 0002:00008650       ??_C@_0DJ@FDKFCJBA@RS?9232?1Baseboard?5Serial?5F?1RS232@ 10098650     RITM_test_RT1007_capi.obj
 0002:00008694       ??_C@_0DI@KIHIMNEI@RS?9232?1Baseboard?5Serial?5F1?1RS23@ 10098694     RITM_test_RT1007_capi.obj
 0002:000086d8       ??_C@_0DI@DBJKKLEJ@RS?9232?1Baseboard?5Serial?5F1?1RS23@ 100986d8     RITM_test_RT1007_capi.obj
 0002:0000871c       ??_C@_0DK@IMEFMMOF@RS?9232?1Baseboard?5Serial?5F1?1RS23@ 1009871c     RITM_test_RT1007_capi.obj
 0002:00008764       ??_C@_0DK@NAPGENNG@RS?9232?1Baseboard?5Serial?5F1?1RS23@ 10098764     RITM_test_RT1007_capi.obj
 0002:000087ac       ??_C@_06BNJCAIGJ@double@   100987ac     RITM_test_RT1007_capi.obj
 0002:000087b4       ??_C@_06CNMIJIPB@real_T@   100987b4     RITM_test_RT1007_capi.obj
 0002:000087bc       ??_C@_0O@PPAIJIHF@unsigned?5char@ 100987bc     RITM_test_RT1007_capi.obj
 0002:000087cc       ??_C@_07NCEHLPOC@uint8_T@  100987cc     RITM_test_RT1007_capi.obj
 0002:000087d8       ??_C@_0N@OFHMGPAL@unsigned?5int@ 100987d8     RITM_test_RT1007_capi.obj
 0002:000087e8       ??_C@_08CCMIKNJF@uint32_T@ 100987e8     RITM_test_RT1007_capi.obj
 0002:000087f4       ??_C@_07MMLECJPG@numeric@  100987f4     RITM_test_RT1007_capi.obj
 0002:00008800       ??_C@_0N@HINIGIGN@CAN_DATATYPE@ 10098800     RITM_test_RT1007_capi.obj
 0002:00008810       ??_C@_03JBIPMCLC@int@      10098810     RITM_test_RT1007_capi.obj
 0002:00008814       ??_C@_07BLNHOAMI@int32_T@  10098814     RITM_test_RT1007_capi.obj
 0002:00008820       ??_C@_0O@CEKHAEHG@serialfifoptr@ 10098820     RITM_test_RT1007_capi.obj
 0002:00008830       ??_C@_09JBMFCIMO@boolean_T@ 10098830     RITM_test_RT1007_capi.obj
 0002:0000883c       ??_C@_05KNFBNCOH@float@    1009883c     RITM_test_RT1007_capi.obj
 0002:00008844       _RITM_test_RT1007_ConstB   10098844     RITM_test_RT1007_data.obj
 0002:00008848       ??_C@_0DL@PGGFBBLM@Error?3?5task?5ID?5?$CFd?5is?5out?5of?5ran@ 10098848     RITM_test_RT1007_xcp_TET.obj
 0002:00008890       __real@3e112e0be826d695    10098890     RITM_test_RT1007_xcp_TET.obj
 0002:000088a0       __real@3fefae147ae147ae    100988a0     RITM_test_RT1007_xcp_TET.obj
 0002:000088b0       _CAN_DATATYPE_GROUND       100988b0     can_datatype_ground.obj
 0002:000088cc       __real@7f800000            100988cc     rtGetInf.obj
 0002:000088d0       __real@ff800000            100988d0     rtGetInf.obj
 0002:000088d4       __real@ffc00000            100988d4     rtGetNaN.obj
 0002:000088d8       _serialfifoground          100988d8     xpc_datatype_ground.obj
 0002:000088e4       _bcmsg1553ground           100988e4     xpc_datatype_ground.obj
 0002:000088f4       _bcstatground              100988f4     xpc_datatype_ground.obj
 0002:0000890c       _bmmsg1553ground           1009890c     xpc_datatype_ground.obj
 0002:0000892c       ??_C@_0CE@CFKFKGCJ@Fifo?5read?3?5null?5pointer?0?5enable@ 1009892c     fiforeadwrite.obj
 0002:00008958       ??_C@_0BA@OPMNCLAD@FIFO?5overflow?3?5@ 10098958     fiforeadwrite.obj
 0002:0000896c       ??_C@_0DJ@GBIJAKNA@Input?5port?5width?5less?5than?5the?5@ 1009896c     fiforeadwrite.obj
 0002:000089cc       ??_C@_0BI@INNPNFJN@Memory?5Allocation?5Error@ 100989cc     rtw_modelmap_utils.obj
 0002:000089e8       ??_C@_06JFOKFOED@CSTATE@   100989e8     rtw_modelmap_utils.obj
 0002:000089f0       ??_C@_06FAENGAMN@DSTATE@   100989f0     rtw_modelmap_utils.obj
 0002:000089f8       ??_C@_0CC@FIFFDAB@?$CFd?5input?5args?5expected?0?5?$CFd?5pass@ 100989f8     BA_IS_cap.obj
 0002:00008a20       ??_C@_0CL@MPDAKJC@BA?9IS?9XX?5ID?5?$CFd?5initialization?5f@ 10098a20     BA_IS_cap.obj
 0002:00008a58       ??_C@_0EC@GIPHNEED@Port?5initialization?5failed?4?5Rev@ 10098a58     BA_IS_uart_rx.obj
 0002:00008aa8       ??_C@_0DG@MIMDBLDP@Stopping?5model?4?5Review?5errors?5a@ 10098aa8     BA_IS_uart_rx.obj
 0002:00008ae8       ??_C@_0CL@DFMFAHPC@CA?9MA?9XX?5ID?5?$CFd?5initialization?5f@ 10098ae8     CA_MA_setup.obj
 0002:00008b20       ??_C@_0ED@LKHIFFLC@Wrong?5number?5of?5input?5arguments@ 10098b20     asciidecode.obj
 0002:00008b70       ??_C@_0CP@GNPFCBGC@Number?5of?5variables?5argument?5mu@ 10098b70     asciidecode.obj
 0002:00008ba8       ??_C@_0DE@JPPPAPBN@ASCII?5Decode?3?5Unable?5to?5allocat@ 10098ba8     asciidecode.obj
 0002:00008be8       ??_C@_0BI@MKEHIOKD@error?5in?5format?5string?6@ 10098be8     asciidecode.obj
 0002:00008c04       ??_C@_0CD@HPFDKADH@RS232?5Send?1Rec?3?5receive?5data?5er@ 10098c04     asciidecode.obj
 0002:00008c30       ??_C@_0DO@FPEMOPIN@Converted?5string?5length?5exceeds@ 10098c30     asciiencode.obj
 0002:00008c7c       ??_C@_0BK@EBKJELMI@maxfunc?5?$DN?5?$CFd?5at?5?$FL?$CFd?0?5?$CFd?$FN?6@ 10098c7c     xpcruntime:xpcimports.obj
 0002:00008c9c       ??_C@_0CC@DMFKNLL@VendorId?5?$DN?50x?$CFx?0?5DeviceId?5?$DN?50x?$CF@ 10098c9c     xpcruntime:xpcimports.obj
 0002:00008cc4       ??_C@_0DH@OHCBLNMG@Subsystem?5Device?5ID?5?$DN?50x?$CFx?6Subs@ 10098cc4     xpcruntime:xpcimports.obj
 0002:00008d08       ??_C@_0BD@MMMMEFCM@Class?5Code?5?$DN?50x?$CFx?6@ 10098d08     xpcruntime:xpcimports.obj
 0002:00008d20       ??_C@_0BE@OLDDDNHM@InterruptLine?5?$DN?5?$CFd?6@ 10098d20     xpcruntime:xpcimports.obj
 0002:00008d38       ??_C@_0CE@IBMFFAPN@bus?5?$DN?5?$CFd?0?5slot?5?$DN?5?$CFd?0?5function?5?$DN@ 10098d38     xpcruntime:xpcimports.obj
 0002:00008d64       ??_C@_0CE@DGLLGDFH@?5?5?5?5Phys?5?5?5Virtual?5?5?5Length?5IO?1@ 10098d64     xpcruntime:xpcimports.obj
 0002:00008d90       ??_C@_0BI@FEOPLEMG@?$CF08x?5?$CF08x?5?$CF08x?5?5?5?5?5?5?$CFc?6@ 10098d90     xpcruntime:xpcimports.obj
 0002:00008dac       ??_C@_0BB@BNNCEDPC@rl32eScopeExists@ 10098dac     xpcruntime:xpcimports.obj
 0002:00008dc0       ??_C@_0BM@FJBFEGFG@rl32eScopeExists?5not?5found?6@ 10098dc0     xpcruntime:xpcimports.obj
 0002:00008de4       ??_C@_0O@BNNGKJEA@rl32eDefScope@ 10098de4     xpcruntime:xpcimports.obj
 0002:00008df4       ??_C@_0BJ@CDNOENKA@rl32eDefScope?5not?5found?6@ 10098df4     xpcruntime:xpcimports.obj
 0002:00008e14       ??_C@_0P@CKNKILDP@rl32eAddSignal@ 10098e14     xpcruntime:xpcimports.obj
 0002:00008e28       ??_C@_0BK@GMJAJBAI@rl32eAddSignal?5not?5found?6@ 10098e28     xpcruntime:xpcimports.obj
 0002:00008e48       ??_C@_0BB@LDMIHGCE@rl32eGetSignalNo@ 10098e48     xpcruntime:xpcimports.obj
 0002:00008e5c       ??_C@_0BM@LGAMBAID@rl32eGetSignalNo?5not?5found?6@ 10098e5c     xpcruntime:xpcimports.obj
 0002:00008e80       ??_C@_0O@CFDGALBP@rl32eSetScope@ 10098e80     xpcruntime:xpcimports.obj
 0002:00008e90       ??_C@_0BJ@JCLHHIN@rl32eSetScope?5not?5found?6@ 10098e90     xpcruntime:xpcimports.obj
 0002:00008eb0       ??_C@_0P@IKMCBMHH@xpceFSScopeSet@ 10098eb0     xpcruntime:xpcimports.obj
 0002:00008ec4       ??_C@_0BK@JODJPNNH@xpceFSScopeSet?5not?5found?6@ 10098ec4     xpcruntime:xpcimports.obj
 0002:00008ee4       ??_C@_0BE@DLACEEJM@rl32eSetTargetScope@ 10098ee4     xpcruntime:xpcimports.obj
 0002:00008efc       ??_C@_0BP@JCHFMKPJ@rl32eSetTargetScope?5not?5found?6@ 10098efc     xpcruntime:xpcimports.obj
 0002:00008f24       ??_C@_0BJ@LIDLNDHC@rl32eSetTargetScopeSigFt@ 10098f24     xpcruntime:xpcimports.obj
 0002:00008f44       ??_C@_0CE@JLGHCFHI@rl32eSetTargetScopeSigFt?5not?5fo@ 10098f44     xpcruntime:xpcimports.obj
 0002:00008f70       ??_C@_0BI@JAPOIDNG@rl32eRestartAcquisition@ 10098f70     xpcruntime:xpcimports.obj
 0002:00008f8c       ??_C@_0CD@LLBEFFBO@rl32eRestartAcquisition?5not?5fou@ 10098f8c     xpcruntime:xpcimports.obj
 0002:00008fb8       ??_C@_0P@IEIIADJB@xpceScopeAcqOK@ 10098fb8     xpcruntime:xpcimports.obj
 0002:00008fcc       ??_C@_0BK@NJCKNFPN@xpceScopeAcqOK?5not?5found?6@ 10098fcc     xpcruntime:xpcimports.obj
 0002:00008fec       ??_C@_0BA@IJINKAHF@xpceRegisterISR@ 10098fec     xpcruntime:xpcimports.obj
 0002:00009000       ??_C@_0BL@NNDLOEJE@xpceRegisterISR?5not?5found?6@ 10099000     xpcruntime:xpcimports.obj
 0002:00009020       ??_C@_0BC@NLBADGKF@xpceDeRegisterISR@ 10099020     xpcruntime:xpcimports.obj
 0002:00009038       ??_C@_0BN@DCAIKFFD@xpceDeRegisterISR?5not?5found?6@ 10099038     xpcruntime:xpcimports.obj
 0002:0000905c       ??_C@_07JPMEPILD@xpcInpB@  1009905c     xpcruntime:xpcimports.obj
 0002:00009068       ??_C@_0BD@PGABEJOL@xpcInpB?5not?5found?6@ 10099068     xpcruntime:xpcimports.obj
 0002:00009080       ??_C@_07KIHBBOKH@xpcInpW@  10099080     xpcruntime:xpcimports.obj
 0002:0000908c       ??_C@_0BD@FPCJFMCC@xpcInpW?5not?5found?6@ 1009908c     xpcruntime:xpcimports.obj
 0002:000090a4       ??_C@_08KDIAJBOP@xpcInpDW@ 100990a4     xpcruntime:xpcimports.obj
 0002:000090b0       ??_C@_0BE@PIELDNIL@xpcInpDW?5not?5found?6@ 100990b0     xpcruntime:xpcimports.obj
 0002:000090c8       ??_C@_08PJFMOIGO@xpcOutpB@ 100990c8     xpcruntime:xpcimports.obj
 0002:000090d4       ??_C@_0BE@HCKNCEKF@xpcOutpB?5not?5found?6@ 100990d4     xpcruntime:xpcimports.obj
 0002:000090ec       ??_C@_08MOOJAOHK@xpcOutpW@ 100990ec     xpcruntime:xpcimports.obj
 0002:000090f8       ??_C@_0BE@NLIFDBGM@xpcOutpW?5not?5found?6@ 100990f8     xpcruntime:xpcimports.obj
 0002:00009110       ??_C@_09FLIEKHJG@xpcOutpDW@ 10099110     xpcruntime:xpcimports.obj
 0002:0000911c       ??_C@_0BF@GJKLPNHB@xpcOutpDW?5not?5found?6@ 1009911c     xpcruntime:xpcimports.obj
 0002:00009138       ??_C@_0BH@EHOLELHH@xpcReserveMemoryRegion@ 10099138     xpcruntime:xpcimports.obj
 0002:00009154       ??_C@_0CC@KAAAGPI@xpcReserveMemoryRegion?5not?5foun@ 10099154     xpcruntime:xpcimports.obj
 0002:0000917c       ??_C@_0BA@JGPMHGAF@rl32eShowPCIDev@ 1009917c     xpcruntime:xpcimports.obj
 0002:00009190       ??_C@_0BL@DDFFLNHI@rl32eShowPCIDev?5not?5found?6@ 10099190     xpcruntime:xpcimports.obj
 0002:000091b0       ??_C@_0BB@KBCOJPFB@rl32eShowPCIInfo@ 100991b0     xpcruntime:xpcimports.obj
 0002:000091c4       ??_C@_0BM@IFDMAGLO@rl32eShowPCIInfo?5not?5found?6@ 100991c4     xpcruntime:xpcimports.obj
 0002:000091e8       ??_C@_0BA@BGPAADB@rl32eGetPCIInfo@ 100991e8     xpcruntime:xpcimports.obj
 0002:000091fc       ??_C@_0BL@IGOMLDCK@rl32eGetPCIInfo?5not?5found?6@ 100991fc     xpcruntime:xpcimports.obj
 0002:0000921c       ??_C@_0BG@NJPFKFDP@rl32eGetPCIInfoAtSlot@ 1009921c     xpcruntime:xpcimports.obj
 0002:00009238       ??_C@_0CB@BBKIPMLA@rl32eGetPCIInfoAtSlot?5not?5found@ 10099238     xpcruntime:xpcimports.obj
 0002:00009260       ??_C@_0BH@OKBOPNFG@xpceAssignPCIInterrupt@ 10099260     xpcruntime:xpcimports.obj
 0002:0000927c       ??_C@_0CC@CDNDNJBJ@xpceAssignPCIInterrupt?5not?5foun@ 1009927c     xpcruntime:xpcimports.obj
 0002:000092a4       ??_C@_0BD@PCKOKHO@xpceGetSignalValue@ 100992a4     xpcruntime:xpcimports.obj
 0002:000092bc       ??_C@_0BO@GCBDJHMB@xpceGetSignalValue?5not?5found?6@ 100992bc     xpcruntime:xpcimports.obj
 0002:000092e0       ??_C@_0BB@BJONJAGA@xpceSetParameter@ 100992e0     xpcruntime:xpcimports.obj
 0002:000092f4       ??_C@_0BM@BJIKDLHA@xpceSetParameter?5not?5found?6@ 100992f4     xpcruntime:xpcimports.obj
 0002:00009318       ??_C@_0BB@GNFDFMCM@xpceGetParameter@ 10099318     xpcruntime:xpcimports.obj
 0002:0000932c       ??_C@_0BM@POHNKBC@xpceGetParameter?5not?5found?6@ 1009932c     xpcruntime:xpcimports.obj
 0002:00009350       ??_C@_0BB@CEIJLFCD@xpceGetParamDims@ 10099350     xpcruntime:xpcimports.obj
 0002:00009364       ??_C@_0BM@OABDBKAO@xpceGetParamDims?5not?5found?6@ 10099364     xpcruntime:xpcimports.obj
 0002:00009388       ??_C@_0L@OCBLLHBM@xpceGetTET@ 10099388     xpcruntime:xpcimports.obj
 0002:00009398       ??_C@_0BG@HNOFBOB@xpceGetTET?5not?5found?6@ 10099398     xpcruntime:xpcimports.obj
 0002:000093b4       ??_C@_0P@OKGNGAGH@xpcIsModelInit@ 100993b4     xpcruntime:xpcimports.obj
 0002:000093c8       ??_C@_0BK@DHEMLBIM@xpcIsModelInit?5not?5found?6@ 100993c8     xpcruntime:xpcimports.obj
 0002:000093e8       ??_C@_0BH@KJJLCAOJ@xpcAllocPhysicalMemory@ 100993e8     xpcruntime:xpcimports.obj
 0002:00009404       ??_C@_0CC@MOJPNHKL@xpcAllocPhysicalMemory?5not?5foun@ 10099404     xpcruntime:xpcimports.obj
 0002:0000942c       ??_C@_0BG@CBNPGAEL@xpcFreePhysicalMemory@ 1009942c     xpcruntime:xpcimports.obj
 0002:00009448       ??_C@_0CB@PKJEBPOG@xpcFreePhysicalMemory?5not?5found@ 10099448     xpcruntime:xpcimports.obj
 0002:00009470       ??_C@_0BC@JGKNLICL@xpcGetElapsedTime@ 10099470     xpcruntime:xpcimports.obj
 0002:00009488       ??_C@_0BN@OEOAHCIO@xpcGetElapsedTime?5not?5found?6@ 10099488     xpcruntime:xpcimports.obj
 0002:000094ac       ??_C@_0M@ICBLMODA@xpcBusyWait@ 100994ac     xpcruntime:xpcimports.obj
 0002:000094bc       ??_C@_0BH@FBOPECBI@xpcBusyWait?5not?5found?6@ 100994bc     xpcruntime:xpcimports.obj
 0002:000094d8       ??_C@_0N@LKKJEKKA@TBCreateSpin@ 100994d8     xpcruntime:xpcimports.obj
 0002:000094e8       ??_C@_0BI@FHKMLKOE@TBCreateSpin?5not?5found?6@ 100994e8     xpcruntime:xpcimports.obj
 0002:00009504       ??_C@_0N@HOAJHNBD@TBDeleteSpin@ 10099504     xpcruntime:xpcimports.obj
 0002:00009514       ??_C@_0BI@BKCPAAG@TBDeleteSpin?5not?5found?6@ 10099514     xpcruntime:xpcimports.obj
 0002:00009530       ??_C@_0P@DAHDDBJG@TBTakeSpinFast@ 10099530     xpcruntime:xpcimports.obj
 0002:00009544       ??_C@_0BK@NKAIBHGB@TBTakeSpinFast?5not?5found?6@ 10099544     xpcruntime:xpcimports.obj
 0002:00009564       ??_C@_0P@FKNAAELA@TBGiveSpinFast@ 10099564     xpcruntime:xpcimports.obj
 0002:00009578       ??_C@_0BK@KGPJBJND@TBGiveSpinFast?5not?5found?6@ 10099578     xpcruntime:xpcimports.obj
 0002:00009598       ??_C@_0BE@IIGBFDHK@xpceCreateSemaphore@ 10099598     xpcruntime:xpcimports.obj
 0002:000095b0       ??_C@_0BP@KFBAFFKJ@xpceCreateSemaphore?5not?5found?6@ 100995b0     xpcruntime:xpcimports.obj
 0002:000095d8       ??_C@_0BC@IFNIONKJ@xpceWaitSemaphore@ 100995d8     xpcruntime:xpcimports.obj
 0002:000095f0       ??_C@_0BN@NMFAADIO@xpceWaitSemaphore?5not?5found?6@ 100995f0     xpcruntime:xpcimports.obj
 0002:00009614       ??_C@_0BE@NNDIOBKE@xpceSignalSemaphore@ 10099614     xpcruntime:xpcimports.obj
 0002:0000962c       ??_C@_0BP@LBANMHJP@xpceSignalSemaphore?5not?5found?6@ 1009962c     xpcruntime:xpcimports.obj
 0002:00009654       ??_C@_0BE@MEBEKOIM@xpceDeleteSemaphore@ 10099654     xpcruntime:xpcimports.obj
 0002:0000966c       ??_C@_0BP@OFNCKOJH@xpceDeleteSemaphore?5not?5found?6@ 1009966c     xpcruntime:xpcimports.obj
 0002:00009694       ??_C@_0BD@MFNDMBOF@FindUsbVideoDevice@ 10099694     xpcruntime:xpcimports.obj
 0002:000096ac       ??_C@_0BO@POKLDHMI@FindUsbVideoDevice?5not?5found?6@ 100996ac     xpcruntime:xpcimports.obj
 0002:000096d0       ??_C@_0BA@PLPAPNAB@GetVideoConfigs@ 100996d0     xpcruntime:xpcimports.obj
 0002:000096e4       ??_C@_0BL@DALDHKHC@GetVideoConfigs?5not?5found?6@ 100996e4     xpcruntime:xpcimports.obj
 0002:00009704       ??_C@_0L@GBAEMHMH@StartVideo@ 10099704     xpcruntime:xpcimports.obj
 0002:00009714       ??_C@_0BG@HDCELEBP@StartVideo?5not?5found?6@ 10099714     xpcruntime:xpcimports.obj
 0002:00009730       ??_C@_0BA@FDNPOCLN@ReadFrameBuffer@ 10099730     xpcruntime:xpcimports.obj
 0002:00009744       ??_C@_0BL@JHGHPNBI@ReadFrameBuffer?5not?5found?6@ 10099744     xpcruntime:xpcimports.obj
 0002:00009764       ??_C@_09FAHCLKAG@StopVideo@ 10099764     xpcruntime:xpcimports.obj
 0002:00009770       ??_C@_0BF@NKGKKADL@StopVideo?5not?5found?6@ 10099770     xpcruntime:xpcimports.obj
 0002:0000978c       ??_C@_0O@MCPKDLLL@ConvertUImage@ 1009978c     xpcruntime:xpcimports.obj
 0002:0000979c       ??_C@_0BJ@PHJKOAFL@ConvertUImage?5not?5found?6@ 1009979c     xpcruntime:xpcimports.obj
 0002:000097bc       ??_C@_0BD@NKCBPBJJ@CreateVideoDisplay@ 100997bc     xpcruntime:xpcimports.obj
 0002:000097d4       ??_C@_0BO@HPPLLNFP@CreateVideoDisplay?5not?5found?6@ 100997d4     xpcruntime:xpcimports.obj
 0002:000097f8       ??_C@_0BE@KJCKGPHA@DestroyVideoDisplay@ 100997f8     xpcruntime:xpcimports.obj
 0002:00009810       ??_C@_0BP@FMGLJAIJ@DestroyVideoDisplay?5not?5found?6@ 10099810     xpcruntime:xpcimports.obj
 0002:00009838       ??_C@_0BC@HCMIMIDN@StartVideoDisplay@ 10099838     xpcruntime:xpcimports.obj
 0002:00009850       ??_C@_0BN@EFIEBGOO@StartVideoDisplay?5not?5found?6@ 10099850     xpcruntime:xpcimports.obj
 0002:00009874       ??_C@_0BB@JBBLMILG@StopVideoDisplay@ 10099874     xpcruntime:xpcimports.obj
 0002:00009888       ??_C@_0BM@DBJBPLEL@StopVideoDisplay?5not?5found?6@ 10099888     xpcruntime:xpcimports.obj
 0002:000098ac       ??_C@_0M@MFJEGMHC@StreamVideo@ 100998ac     xpcruntime:xpcimports.obj
 0002:000098bc       ??_C@_0BH@OINCDMLA@StreamVideo?5not?5found?6@ 100998bc     xpcruntime:xpcimports.obj
 0002:000098d8       ??_C@_0N@IGGLCIGE@xpceaddEvent@ 100998d8     xpcruntime:xpcimports.obj
 0002:000098e8       ??_C@_0BI@NHJNFMKH@xpceaddEvent?5not?5found?6@ 100998e8     xpcruntime:xpcimports.obj
 0002:00009904       ??_C@_0BC@MLJODBHJ@slrtStartProfiler@ 10099904     xpcruntime:xpcimports.obj
 0002:0000991c       ??_C@_0BN@HLNCOKA@slrtStartProfiler?5not?5found?6@ 1009991c     xpcruntime:xpcimports.obj
 0002:00009940       ??_C@_0BB@ONJONMCD@slrtStopProfiler@ 10099940     xpcruntime:xpcimports.obj
 0002:00009954       ??_C@_0BM@GAKJEGBA@slrtStopProfiler?5not?5found?6@ 10099954     xpcruntime:xpcimports.obj
 0002:00009978       ??_C@_0BF@EILBHBBF@slrtGetProfilerState@ 10099978     xpcruntime:xpcimports.obj
 0002:00009994       ??_C@_0CA@EDDFOCLE@slrtGetProfilerState?5not?5found?6@ 10099994     xpcruntime:xpcimports.obj
 0002:000099bc       ??_C@_0BB@HDPOIJAB@xpceDAQPostEvent@ 100999bc     xpcruntime:xpcimports.obj
 0002:000099d0       ??_C@_0BM@IHANBKGN@xpceDAQPostEvent?5not?5found?6@ 100999d0     xpcruntime:xpcimports.obj
 0002:000099f4       ??_C@_0BH@MBACMOD@xpceDAQUpdateTimeStamp@ 100999f4     xpcruntime:xpcimports.obj
 0002:00009a10       ??_C@_0CC@DAKBBINL@xpceDAQUpdateTimeStamp?5not?5foun@ 10099a10     xpcruntime:xpcimports.obj
 0002:00009a38       ??_C@_0BD@HLALHPHI@slrtRegisterSignal@ 10099a38     xpcruntime:xpcimports.obj
 0002:00009a50       ??_C@_0BO@BALEBHKF@slrtRegisterSignal?5not?5found?6@ 10099a50     xpcruntime:xpcimports.obj
 0002:00009a74       ??_C@_0O@DKILEOIJ@slrtLogSignal@ 10099a74     xpcruntime:xpcimports.obj
 0002:00009a84       ??_C@_0BJ@FMKKIEDD@slrtLogSignal?5not?5found?6@ 10099a84     xpcruntime:xpcimports.obj
 0002:00009aa4       ??_C@_0BG@CCHICKPN@slrteSetStepSizeDelta@ 10099aa4     xpcruntime:xpcimports.obj
 0002:00009ac0       ??_C@_0CB@MKHINEIJ@slrteSetStepSizeDelta?5not?5found@ 10099ac0     xpcruntime:xpcimports.obj
 0002:00009ae8       ??_C@_0BI@CLNBLDKJ@slrteGetCurrentStepSize@ 10099ae8     xpcruntime:xpcimports.obj
 0002:00009b04       ??_C@_0CD@GIOJPGJA@slrteGetCurrentStepSize?5not?5fou@ 10099b04     xpcruntime:xpcimports.obj
 0002:00009b30       ??_C@_0BE@FCLCBOC@registerPTPTimeRead@ 10099b30     xpcruntime:xpcimports.obj
 0002:00009b48       ??_C@_0BP@LHPKAJIP@registerPTPTimeRead?5not?5found?6@ 10099b48     xpcruntime:xpcimports.obj
 0002:00009b70       ??_C@_0BG@KIGCDDJI@unRegisterPTPTimeRead@ 10099b70     xpcruntime:xpcimports.obj
 0002:00009b8c       ??_C@_0CB@MLFFBFCM@unRegisterPTPTimeRead?5not?5found@ 10099b8c     xpcruntime:xpcimports.obj
 0002:00009bb4       ??_C@_0BB@IPMDDBHK@slTestInitialize@ 10099bb4     xpcruntime:xpcimports.obj
 0002:00009bc8       ??_C@_0BM@LAJFCCJH@slTestInitialize?5not?5found?6@ 10099bc8     xpcruntime:xpcimports.obj
 0002:00009bec       ??_C@_0BF@OOMPMEBC@slTestLogAssessments@ 10099bec     xpcruntime:xpcimports.obj
 0002:00009c08       ??_C@_0CA@FGJCEBAG@slTestLogAssessments?5not?5found?6@ 10099c08     xpcruntime:xpcimports.obj
 0002:00009c30       ??_C@_0BB@HJHKONHO@slTestEvalOnFail@ 10099c30     xpcruntime:xpcimports.obj
 0002:00009c44       ??_C@_0BM@JIKCFFNJ@slTestEvalOnFail?5not?5found?6@ 10099c44     xpcruntime:xpcimports.obj
 0002:00009c68       ??_C@_0BA@LBHLABFP@slTestTerminate@ 10099c68     xpcruntime:xpcimports.obj
 0002:00009c7c       ??_C@_0BL@EMFGKAPA@slTestTerminate?5not?5found?6@ 10099c7c     xpcruntime:xpcimports.obj
 0002:00009c9c       ??_C@_0BE@JPNPBBEO@slTestRegAssessment@ 10099c9c     xpcruntime:xpcimports.obj
 0002:00009cb4       ??_C@_0BP@FBDEJJJH@slTestRegAssessment?5not?5found?6@ 10099cb4     xpcruntime:xpcimports.obj
 0002:00009cdc       ??_C@_0O@NCLGDNIB@slrteSetupMSI@ 10099cdc     xpcruntime:xpcimports.obj
 0002:00009cec       ??_C@_0BJ@HEFMECLM@slrteSetupMSI?5not?5found?6@ 10099cec     xpcruntime:xpcimports.obj
 0002:00009d0c       ??_C@_0BH@BPOLALHD@slrtGetCRBScratchSpace@ 10099d0c     xpcruntime:xpcimports.obj
 0002:00009d28       ??_C@_0CC@KCKAJKKJ@slrtGetCRBScratchSpace?5not?5foun@ 10099d28     xpcruntime:xpcimports.obj
 0002:00009d50       ??_C@_0BC@MKFDAKOL@slrtGetSgCRBSpace@ 10099d50     xpcruntime:xpcimports.obj
 0002:00009d68       ??_C@_0BN@JDPHPLHL@slrtGetSgCRBSpace?5not?5found?6@ 10099d68     xpcruntime:xpcimports.obj
 0002:00009d8c       ??_C@_0P@EPAPKLIF@slrtfsOpenFile@ 10099d8c     xpcruntime:xpcimports.obj
 0002:00009da0       ??_C@_0BK@FIHCBOHG@slrtfsOpenFile?5not?5found?6@ 10099da0     xpcruntime:xpcimports.obj
 0002:00009dc0       ??_C@_0BA@LILAFDDL@slrtfsCloseFile@ 10099dc0     xpcruntime:xpcimports.obj
 0002:00009dd4       ??_C@_0BL@DEGHJFIB@slrtfsCloseFile?5not?5found?6@ 10099dd4     xpcruntime:xpcimports.obj
 0002:00009df4       ??_C@_0BC@OKMJDIEH@slrtfsWriteToFile@ 10099df4     xpcruntime:xpcimports.obj
 0002:00009e0c       ??_C@_0BN@KCFLCLAH@slrtfsWriteToFile?5not?5found?6@ 10099e0c     xpcruntime:xpcimports.obj
 0002:00009e30       ??_C@_0BK@GIPNFFFF@slrtfsGetFileErrorMessage@ 10099e30     xpcruntime:xpcimports.obj
 0002:00009e50       ??_C@_0CF@BCBLMKLE@slrtfsGetFileErrorMessage?5not?5f@ 10099e50     xpcruntime:xpcimports.obj
 0002:00009e7c       ??_C@_0BD@ICBOKMK@slrtfsGetFileError@ 10099e7c     xpcruntime:xpcimports.obj
 0002:00009e94       ??_C@_0BO@FNBANAE@slrtfsGetFileError?5not?5found?6@ 10099e94     xpcruntime:xpcimports.obj
 0002:00009eb8       ??_C@_0BE@PPAJMHJP@slrtfsOpenFileAsync@ 10099eb8     xpcruntime:xpcimports.obj
 0002:00009ed0       ??_C@_0BP@HKBMMJOK@slrtfsOpenFileAsync?5not?5found?6@ 10099ed0     xpcruntime:xpcimports.obj
 0002:00009ef8       ??_C@_0BF@IGNDIBPF@slrtfsCloseFileAsync@ 10099ef8     xpcruntime:xpcimports.obj
 0002:00009f14       ??_C@_0CA@GJPFDBKN@slrtfsCloseFileAsync?5not?5found?6@ 10099f14     xpcruntime:xpcimports.obj
 0002:00009f3c       ??_C@_0BE@IOLEBNB@slrtfsGetFileStatus@ 10099f3c     xpcruntime:xpcimports.obj
 0002:00009f54       ??_C@_0BP@PEFHDGHL@slrtfsGetFileStatus?5not?5found?6@ 10099f54     xpcruntime:xpcimports.obj
 0002:00009f7c       ??_C@_0M@HKIJIMG@slrtfsFread@ 10099f7c     xpcruntime:xpcimports.obj
 0002:00009f8c       ??_C@_0BH@OOKBGONO@slrtfsFread?5not?5found?6@ 10099f8c     xpcruntime:xpcimports.obj
 0002:00009fa8       ??_C@_0BE@OGCMPLAP@slrtGetDefaultDrive@ 10099fa8     xpcruntime:xpcimports.obj
 0002:00009fc0       ??_C@_0BP@HKFGLHOE@slrtGetDefaultDrive?5not?5found?6@ 10099fc0     xpcruntime:xpcimports.obj
 0002:00009fe8       ??_C@_0N@NAJIKFFI@slrtLogEvent@ 10099fe8     xpcruntime:xpcimports.obj
 0002:00009ff8       ??_C@_0BI@NKCEACND@slrtLogEvent?5not?5found?6@ 10099ff8     xpcruntime:xpcimports.obj
 0002:0000a014       ??_C@_0N@IDKFJOHI@getlasterror@ 1009a014     xpcruntime:xpcimports.obj
 0002:0000a024       ??_C@_0BI@MIHMCHGL@getlasterror?5not?5found?6@ 1009a024     xpcruntime:xpcimports.obj
 0002:0000a040       ??_C@_0P@OKHGKJKN@geterrorstring@ 1009a040     xpcruntime:xpcimports.obj
 0002:0000a054       ??_C@_0BK@NOHFDMLP@geterrorstring?5not?5found?6@ 1009a054     xpcruntime:xpcimports.obj
 0002:0000a074       ??_C@_0BD@HNFFKMGJ@slrtGetCPUTCelsius@ 1009a074     xpcruntime:xpcimports.obj
 0002:0000a08c       ??_C@_0BO@LHBFKLIH@slrtGetCPUTCelsius?5not?5found?6@ 1009a08c     xpcruntime:xpcimports.obj
 0002:0000a0b0       ??_C@_0M@OONCNCLM@slrtWarning@ 1009a0b0     xpcruntime:xpcimports.obj
 0002:0000a0c0       ??_C@_0BH@ICKGIEMB@slrtWarning?5not?5found?6@ 1009a0c0     xpcruntime:xpcimports.obj
 0002:0000a0dc       ??_C@_0M@JACEPOPN@registerNIC@ 1009a0dc     xpcruntime:xpcimports.obj
 0002:0000a0ec       ??_C@_0BH@JMDHJIAC@registerNIC?5not?5found?6@ 1009a0ec     xpcruntime:xpcimports.obj
 0002:0000a108       ??_C@_0M@KBKHECFH@NICSetIface@ 1009a108     xpcruntime:xpcimports.obj
 0002:0000a118       ??_C@_0BH@NJAHOBA@NICSetIface?5not?5found?6@ 1009a118     xpcruntime:xpcimports.obj
 0002:0000a134       ??_C@_0M@FAILFBCK@NICGetIface@ 1009a134     xpcruntime:xpcimports.obj
 0002:0000a144       ??_C@_0BH@KDLLDOGM@NICGetIface?5not?5found?6@ 1009a144     xpcruntime:xpcimports.obj
 0002:0000a160       ??_C@_0L@JNFPDPO@releaseNIC@ 1009a160     xpcruntime:xpcimports.obj
 0002:0000a170       ??_C@_0BG@EBGJANLA@releaseNIC?5not?5found?6@ 1009a170     xpcruntime:xpcimports.obj
 0002:0000a18c       ??_C@_0BC@HLDKJAG@SetIPTASKPriority@ 1009a18c     xpcruntime:xpcimports.obj
 0002:0000a1a4       ??_C@_0BN@OGKMHHAE@SetIPTASKPriority?5not?5found?6@ 1009a1a4     xpcruntime:xpcimports.obj
 0002:0000a1c8       ??_C@_0O@LHENMBDD@OpenInterface@ 1009a1c8     xpcruntime:xpcimports.obj
 0002:0000a1d8       ??_C@_0BJ@PFGDBKHB@OpenInterface?5not?5found?6@ 1009a1d8     xpcruntime:xpcimports.obj
 0002:0000a1f8       ??_C@_0P@IINFELKD@CloseInterface@ 1009a1f8     xpcruntime:xpcimports.obj
 0002:0000a20c       ??_C@_0BK@PAPDNDBK@CloseInterface?5not?5found?6@ 1009a20c     xpcruntime:xpcimports.obj
 0002:0000a22c       ??_C@_05LEFIAAOI@SetIP@    1009a22c     xpcruntime:xpcimports.obj
 0002:0000a234       ??_C@_0BB@CGLIBAMM@SetIP?5not?5found?6@ 1009a234     xpcruntime:xpcimports.obj
 0002:0000a248       ??_C@_0BA@HIJJHHMD@AddGatewayRoute@ 1009a248     xpcruntime:xpcimports.obj
 0002:0000a25c       ??_C@_0BL@BFCFMDMN@AddGatewayRoute?5not?5found?6@ 1009a25c     xpcruntime:xpcimports.obj
 0002:0000a27c       ??_C@_0BC@OGIEOMEH@AddMulticastRoute@ 1009a27c     xpcruntime:xpcimports.obj
 0002:0000a294       ??_C@_0BN@IMNDPFCL@AddMulticastRoute?5not?5found?6@ 1009a294     xpcruntime:xpcimports.obj
 0002:0000a2b8       ??_C@_0M@PHMABFPI@DeleteRoute@ 1009a2b8     xpcruntime:xpcimports.obj
 0002:0000a2c8       ??_C@_0BH@JPJGLLID@DeleteRoute?5not?5found?6@ 1009a2c8     xpcruntime:xpcimports.obj
 0002:0000a2e4       ??_C@_0BA@FCDIMKIJ@GetHostTarIPAdd@ 1009a2e4     xpcruntime:xpcimports.obj
 0002:0000a2f8       ??_C@_0BL@MBKDGKBO@GetHostTarIPAdd?5not?5found?6@ 1009a2f8     xpcruntime:xpcimports.obj
 0002:0000a318       ??_C@_0M@HPMIPIBI@GetDCUUsage@ 1009a318     xpcruntime:xpcimports.obj
 0002:0000a328       ??_C@_0BH@EBLJKCJC@GetDCUUsage?5not?5found?6@ 1009a328     xpcruntime:xpcimports.obj
 0002:0000a344       ??_C@_09PCFJFKEK@NICGetMac@ 1009a344     xpcruntime:xpcimports.obj
 0002:0000a350       ??_C@_0BF@NJBGNKON@NICGetMac?5not?5found?6@ 1009a350     xpcruntime:xpcimports.obj
 0002:0000a36c       ??_C@_0BC@NMGIOALA@GetHostTarNICInfo@ 1009a36c     xpcruntime:xpcimports.obj
 0002:0000a384       ??_C@_0BN@POBIFKAA@GetHostTarNICInfo?5not?5found?6@ 1009a384     xpcruntime:xpcimports.obj
 0002:0000a3a8       ??_C@_06MPKMECK@accept@    1009a3a8     xpcruntime:xpcimports.obj
 0002:0000a3b0       ??_C@_0BC@GBGIEMNO@accept?5not?5found?6@ 1009a3b0     xpcruntime:xpcimports.obj
 0002:0000a3c8       ??_C@_04NPNJNMMP@bind@     1009a3c8     xpcruntime:xpcimports.obj
 0002:0000a3d0       ??_C@_0BA@DAJNENLO@bind?5not?5found?6@ 1009a3d0     xpcruntime:xpcimports.obj
 0002:0000a3e4       ??_C@_0L@CKHNIFCM@setsockopt@ 1009a3e4     xpcruntime:xpcimports.obj
 0002:0000a3f4       ??_C@_0BG@MFIIOMFE@setsockopt?5not?5found?6@ 1009a3f4     xpcruntime:xpcimports.obj
 0002:0000a410       ??_C@_0M@ODDJDCDK@closesocket@ 1009a410     xpcruntime:xpcimports.obj
 0002:0000a420       ??_C@_0BH@JHGHMIL@closesocket?5not?5found?6@ 1009a420     xpcruntime:xpcimports.obj
 0002:0000a43c       ??_C@_07KAIBNCHO@connect@  1009a43c     xpcruntime:xpcimports.obj
 0002:0000a448       ??_C@_0BD@MKLLMBM@connect?5not?5found?6@ 1009a448     xpcruntime:xpcimports.obj
 0002:0000a460       ??_C@_0M@PBPOCKDG@ioctlsocket@ 1009a460     xpcruntime:xpcimports.obj
 0002:0000a470       ??_C@_0BH@NFCNHHIH@ioctlsocket?5not?5found?6@ 1009a470     xpcruntime:xpcimports.obj
 0002:0000a48c       ??_C@_06OODDLKLE@listen@   1009a48c     xpcruntime:xpcimports.obj
 0002:0000a494       ??_C@_0BC@NHBILEKI@listen?5not?5found?6@ 1009a494     xpcruntime:xpcimports.obj
 0002:0000a4ac       ??_C@_08HMBBGFHE@recvfrom@ 1009a4ac     xpcruntime:xpcimports.obj
 0002:0000a4b8       ??_C@_0BE@BJAJFFLF@recvfrom?5not?5found?6@ 1009a4b8     xpcruntime:xpcimports.obj
 0002:0000a4d0       ??_C@_06MEPBGKEC@sendto@   1009a4d0     xpcruntime:xpcimports.obj
 0002:0000a4d8       ??_C@_0BC@BHPIMDJO@sendto?5not?5found?6@ 1009a4d8     xpcruntime:xpcimports.obj
 0002:0000a4f0       ??_C@_09JKBDEEOB@inet_addr@ 1009a4f0     xpcruntime:xpcimports.obj
 0002:0000a4fc       ??_C@_0BF@HKJPGECN@inet_addr?5not?5found?6@ 1009a4fc     xpcruntime:xpcimports.obj
 0002:0000a518       ??_C@_06HBELJPBO@socket@   1009a518     xpcruntime:xpcimports.obj
 0002:0000a520       ??_C@_0BC@NAGFFJGA@socket?5not?5found?6@ 1009a520     xpcruntime:xpcimports.obj
 0002:0000a538       ??_C@_09ICJIFGNC@GetSocket@ 1009a538     xpcruntime:xpcimports.obj
 0002:0000a544       ??_C@_0BF@KDBCKMOJ@GetSocket?5not?5found?6@ 1009a544     xpcruntime:xpcimports.obj
 0002:0000a560       ??_C@_0P@KJEGJMJI@GetSocketState@ 1009a560     xpcruntime:xpcimports.obj
 0002:0000a574       ??_C@_0BK@IALBJHEB@GetSocketState?5not?5found?6@ 1009a574     xpcruntime:xpcimports.obj
 0002:0000a594       ??_C@_0L@MEAJHNHB@SocketSend@ 1009a594     xpcruntime:xpcimports.obj
 0002:0000a5a4       ??_C@_0BG@EOCMBFJA@SocketSend?5not?5found?6@ 1009a5a4     xpcruntime:xpcimports.obj
 0002:0000a5c0       ??_C@_0O@PFPCLEMF@SocketReceive@ 1009a5c0     xpcruntime:xpcimports.obj
 0002:0000a5d0       ??_C@_0BJ@HIBADDFO@SocketReceive?5not?5found?6@ 1009a5d0     xpcruntime:xpcimports.obj
 0002:0000a5f0       ??_C@_0BD@OOGFNAIK@CreateServerSocket@ 1009a5f0     xpcruntime:xpcimports.obj
 0002:0000a608       ??_C@_0BO@GKIJHIPH@CreateServerSocket?5not?5found?6@ 1009a608     xpcruntime:xpcimports.obj
 0002:0000a62c       ??_C@_0BB@KGHJGFFO@OpenServerListen@ 1009a62c     xpcruntime:xpcimports.obj
 0002:0000a640       ??_C@_0BM@NFMMLIO@OpenServerListen?5not?5found?6@ 1009a640     xpcruntime:xpcimports.obj
 0002:0000a664       ??_C@_0BE@BAJLDJAH@ConnectServerSocket@ 1009a664     xpcruntime:xpcimports.obj
 0002:0000a67c       ??_C@_0BP@KJNODIKE@ConnectServerSocket?5not?5found?6@ 1009a67c     xpcruntime:xpcimports.obj
 0002:0000a6a4       ??_C@_0BC@PLKKJDIM@CloseServerSocket@ 1009a6a4     xpcruntime:xpcimports.obj
 0002:0000a6bc       ??_C@_0BN@KEJEPNMB@CloseServerSocket?5not?5found?6@ 1009a6bc     xpcruntime:xpcimports.obj
 0002:0000a6e0       ??_C@_0BC@IHMNIGFJ@ResetServerSocket@ 1009a6e0     xpcruntime:xpcimports.obj
 0002:0000a6f8       ??_C@_0BN@NIOGJLCG@ResetServerSocket?5not?5found?6@ 1009a6f8     xpcruntime:xpcimports.obj
 0002:0000a71c       ??_C@_0BD@MCLPKCPP@CreateClientSocket@ 1009a71c     xpcruntime:xpcimports.obj
 0002:0000a734       ??_C@_0BO@DILAGPFN@CreateClientSocket?5not?5found?6@ 1009a734     xpcruntime:xpcimports.obj
 0002:0000a758       ??_C@_0BB@DAPKNNLG@BindClientSocket@ 1009a758     xpcruntime:xpcimports.obj
 0002:0000a76c       ??_C@_0BM@LLLMMDFN@BindClientSocket?5not?5found?6@ 1009a76c     xpcruntime:xpcimports.obj
 0002:0000a790       ??_C@_0BE@DMEBELHC@ConnectClientSocket@ 1009a790     xpcruntime:xpcimports.obj
 0002:0000a7a8       ??_C@_0BP@PLOHCPAO@ConnectClientSocket?5not?5found?6@ 1009a7a8     xpcruntime:xpcimports.obj
 0002:0000a7d0       ??_C@_0BC@NHHAOBPJ@CloseClientSocket@ 1009a7d0     xpcruntime:xpcimports.obj
 0002:0000a7e8       ??_C@_0BN@PGKNOKGL@CloseClientSocket?5not?5found?6@ 1009a7e8     xpcruntime:xpcimports.obj
 0002:0000a80c       ??_C@_0BC@KLBHPECM@ResetClientSocket@ 1009a80c     xpcruntime:xpcimports.obj
 0002:0000a824       ??_C@_0BN@IKNPIMIM@ResetClientSocket?5not?5found?6@ 1009a824     xpcruntime:xpcimports.obj
 0002:0000a848       ??_C@_0M@IJOPFCCE@UDPOpenSend@ 1009a848     xpcruntime:xpcimports.obj
 0002:0000a858       ??_C@_0BH@CCHBDPG@UDPOpenSend?5not?5found?6@ 1009a858     xpcruntime:xpcimports.obj
 0002:0000a874       ??_C@_0P@MEPACHPD@UDPOpenReceive@ 1009a874     xpcruntime:xpcimports.obj
 0002:0000a888       ??_C@_0BK@PFMCPKIO@UDPOpenReceive?5not?5found?6@ 1009a888     xpcruntime:xpcimports.obj
 0002:0000a8a8       ??_C@_0BK@BGNLEHGA@UDPAddMulticastMembership@ 1009a8a8     xpcruntime:xpcimports.obj
 0002:0000a8c8       ??_C@_0CF@CAEMAELE@UDPAddMulticastMembership?5not?5f@ 1009a8c8     xpcruntime:xpcimports.obj
 0002:0000a8f4       ??_C@_0N@NMMOLOEM@UDPCloseSend@ 1009a8f4     xpcruntime:xpcimports.obj
 0002:0000a904       ??_C@_0BI@ENKCOCDG@UDPCloseSend?5not?5found?6@ 1009a904     xpcruntime:xpcimports.obj
 0002:0000a920       ??_C@_0BA@DMJGBBIA@UDPCloseReceive@ 1009a920     xpcruntime:xpcimports.obj
 0002:0000a934       ??_C@_0BL@PEBIMLNC@UDPCloseReceive?5not?5found?6@ 1009a934     xpcruntime:xpcimports.obj
 0002:0000a954       ??_C@_0BI@JGCAAKMN@UDPGetSocketFromAddress@ 1009a954     xpcruntime:xpcimports.obj
 0002:0000a970       ??_C@_0CD@DGHJKHHG@UDPGetSocketFromAddress?5not?5fou@ 1009a970     xpcruntime:xpcimports.obj
 0002:0000a99c       ??_C@_0BA@FDNJFNAB@UDPGetSocketNum@ 1009a99c     xpcruntime:xpcimports.obj
 0002:0000a9b0       ??_C@_0BL@MOBBLIGC@UDPGetSocketNum?5not?5found?6@ 1009a9b0     xpcruntime:xpcimports.obj
 0002:0000a9d0       ??_C@_0N@LACABHBB@UDPSendToAdd@ 1009a9d0     xpcruntime:xpcimports.obj
 0002:0000a9e0       ??_C@_0BI@NOHFLMID@UDPSendToAdd?5not?5found?6@ 1009a9e0     xpcruntime:xpcimports.obj
 0002:0000a9fc       ??_C@_0BD@FIMKKOMF@UDPReceiveMessages@ 1009a9fc     xpcruntime:xpcimports.obj
 0002:0000aa14       ??_C@_0BO@OMDNLCOI@UDPReceiveMessages?5not?5found?6@ 1009aa14     xpcruntime:xpcimports.obj
 0002:0000aa38       ??_C@_0P@NPOCJKPL@registerDFTask@ 1009aa38     xpcruntime:xpcimports.obj
 0002:0000aa4c       ??_C@_0BK@JHOOFMMI@registerDFTask?5not?5found?6@ 1009aa4c     xpcruntime:xpcimports.obj
 0002:0000aa6c       ??_C@_0BB@ICCLEIPB@deregisterDFTask@ 1009aa6c     xpcruntime:xpcimports.obj
 0002:0000aa80       ??_C@_0BM@PEOCAIDM@deregisterDFTask?5not?5found?6@ 1009aa80     xpcruntime:xpcimports.obj
 0002:0000aaa4       ??_C@_0O@PHHDMOJH@triggerDFTask@ 1009aaa4     xpcruntime:xpcimports.obj
