 Ethernet_slrt

 Timestamp is 601abf8d (Wed Feb  3 18:21:49 2021)

 Preferred load address is 10000000

 Start         Length     Name                   Class
 0001:00000000 0006a922H .text$mn                CODE
 0001:0006a922 00001058H .text$x                 CODE
 0002:00000000 00000104H .CRT$XCA                DATA
 0002:00000104 00000104H .CRT$XCZ                DATA
 0002:00000208 00000104H .CRT$XIA                DATA
 0002:0000030c 00000110H .CRT$XIC                DATA
 0002:0000041c 00000104H .CRT$XIZ                DATA
 0002:00000520 00000104H .CRT$XPA                DATA
 0002:00000624 0000010cH .CRT$XPX                DATA
 0002:00000730 00000104H .CRT$XPXA               DATA
 0002:00000834 00000104H .CRT$XPZ                DATA
 0002:00000938 00000104H .CRT$XTA                DATA
 0002:00000a3c 00000104H .CRT$XTZ                DATA
 0002:00000b40 0000e900H .rdata                  DATA
 0002:0000f440 00000104H .rdata$CastGuardVftablesA DATA
 0002:0000f544 00000104H .rdata$CastGuardVftablesC DATA
 0002:0000f648 00000444H .rdata$r                DATA
 0002:0000fa8c 00000124H .rdata$sxdata           DATA
 0002:0000fbb0 000001a4H .rdata$zzzdbg           DATA
 0002:0000fd54 00000104H .rtc$IAA                DATA
 0002:0000fe58 00000104H .rtc$IZZ                DATA
 0002:0000ff5c 00000104H .rtc$TAA                DATA
 0002:00010060 00000108H .rtc$TZZ                DATA
 0002:00010168 00000c98H .xdata$x                DATA
 0002:00010e00 00000200H .edata                  DATA
 0003:00000000 000011f0H .data                   DATA
 0003:000011f0 00000250H .data$r                 DATA
 0003:00001440 00014170H .bss                    DATA
 0004:00000000 000001b8H .idata$5                DATA
 0004:000001b8 00000014H .idata$2                DATA
 0004:000001cc 00000014H .idata$3                DATA
 0004:000001e0 000001b8H .idata$4                DATA
 0004:00000398 000007b4H .idata$6                DATA
 0005:00000000 00000109H .00cfg                  DATA

  Address         Publics by Value              Rva+Base       Lib:Object

 0000:00000000       ___guard_iat_table         00000000     <absolute>
 0000:00000000       ___hybrid_auxiliary_iat    00000000     <absolute>
 0000:00000000       ___guard_eh_cont_count     00000000     <absolute>
 0000:00000000       ___guard_iat_count         00000000     <absolute>
 0000:00000000       ___AbsoluteZero            00000000     <absolute>
 0000:00000000       ___dynamic_value_reloc_table 00000000     <absolute>
 0000:00000000       ___guard_longjmp_count     00000000     <absolute>
 0000:00000000       ___hybrid_code_map_count   00000000     <absolute>
 0000:00000000       ___arm64x_native_entrypoint 00000000     <absolute>
 0000:00000000       ___guard_eh_cont_table     00000000     <absolute>
 0000:00000000       __except_list              00000000     <absolute>
 0000:00000000       ___arm64x_redirection_metadata_count 00000000     <absolute>
 0000:00000000       ___volatile_metadata       00000000     <absolute>
 0000:00000000       ___hybrid_code_map         00000000     <absolute>
 0000:00000000       ___x64_code_ranges_to_entry_points 00000000     <absolute>
 0000:00000000       ___guard_longjmp_table     00000000     <absolute>
 0000:00000000       ___arm64x_extra_rfe_table  00000000     <absolute>
 0000:00000000       ___arm64x_redirection_metadata 00000000     <absolute>
 0000:00000000       ___enclave_config          00000000     <absolute>
 0000:00000000       ___arm64x_extra_rfe_table_size 00000000     <absolute>
 0000:00000000       ___x64_code_ranges_to_entry_points_count 00000000     <absolute>
 0000:00000000       ___guard_fids_count        00000000     <absolute>
 0000:00000000       ___guard_fids_table        00000000     <absolute>
 0000:00000007       ___safe_se_handler_count   00000007     <absolute>
 0000:00000100       ___guard_flags             00000100     <absolute>
 0000:00000000       ___ImageBase               10000000     <linker-defined>
 0001:00006400       _DllMain@12                10007400 f   xpctarget.obj
 0001:00006410       _Ethernet_ChangeStepSize   10007410 f   xpctarget.obj
 0001:00006460       _SLRTSetErrorStatus        10007460 f   xpctarget.obj
 0001:00006480       _changeStepSize            10007480 f   xpctarget.obj
 0001:000064d0       _getDLMVersion             100074d0 f   xpctarget.obj
 0001:000064e0       _getFullPathToRefMdl       100074e0 f   xpctarget.obj
 0001:00006590       _getRefMdlPath             10007590 f   xpctarget.obj
 0001:00006610       _getRefMdlSignalNumber     10007610 f   xpctarget.obj
 0001:000066c0       _getrlmdlinfo              100076c0 f   xpctarget.obj
 0001:00006820       _slrtRegisterSignalToLoggingService 10007820 f   xpctarget.obj
 0001:00006980       _updateDiscreteEvents      10007980 f   xpctarget.obj
 0001:00006990       _getNumRef                 10007990 f   appmappingData.obj
 0001:000069a0       ___local_stdio_printf_options 100079a0 f i legacy_stdio.obj
 0001:000069b0       __vfprintf_l               100079b0 f i legacy_stdio.obj
 0001:000069e0       _vprintf                   100079e0 f i legacy_stdio.obj
 0001:00006a20       _rt_mxCreateCharMatrixFromStrings 10007a20 f   rt_matrx.obj
 0001:00006b80       _rt_mxCreateDoubleMatrix   10007b80 f   rt_matrx.obj
 0001:00006be0       _rt_mxCreateNumericArray   10007be0 f   rt_matrx.obj
 0001:00006c50       _rt_mxCreateString         10007c50 f   rt_matrx.obj
 0001:00006ce0       _rt_mxDuplicateArray       10007ce0 f   rt_matrx.obj
 0001:00006d40       _rt_mxGetDimensions        10007d40 f   rt_matrx.obj
 0001:00006d80       _rt_mxGetEps               10007d80 f   rt_matrx.obj
 0001:00006d90       _rt_mxGetString            10007d90 f   rt_matrx.obj
 0001:00006e10       _rtPrintfNoOp              10007e10 f   rt_printf.obj
 0001:00006e20       __vsnprintf_l              10007e20 f i rt_logging.obj
 0001:00006e60       __vsprintf_l               10007e60 f i rt_logging.obj
 0001:00006ea0       _fprintf                   10007ea0 f i rt_logging.obj
 0001:000073a0       _printf                    100083a0 f i rt_logging.obj
 0001:000073e0       _rt_CreateLogVar           100083e0 f   rt_logging.obj
 0001:00007470       _rt_CreateLogVarWithConvert 10008470 f   rt_logging.obj
 0001:00007da0       _rt_CreateStructLogVar     10008da0 f   rt_logging.obj
 0001:00008ba0       _rt_GetMxIdFromDTypeId     10009ba0 f   rt_logging.obj
 0001:00008bd0       _rt_GetMxIdFromDTypeIdForRSim 10009bd0 f   rt_logging.obj
 0001:0000b760       _rt_StartDataLogging       1000c760 f   rt_logging.obj
 0001:0000bc30       _rt_StartDataLoggingWithStartTime 1000cc30 f   rt_logging.obj
 0001:0000c0b0       _rt_StopDataLogging        1000d0b0 f   rt_logging.obj
 0001:0000c0d0       _rt_StopDataLoggingImpl    1000d0d0 f   rt_logging.obj
 0001:0000c7e0       _rt_UpdateLogVar           1000d7e0 f   rt_logging.obj
 0001:0000d7b0       _rt_UpdateLogVarWithDiscontiguousData 1000e7b0 f   rt_logging.obj
 0001:0000da80       _rt_UpdateStructLogVar     1000ea80 f   rt_logging.obj
 0001:0000db10       _rt_UpdateTXXFYLogVars     1000eb10 f   rt_logging.obj
 0001:0000df60       _rt_UpdateTXYLogVars       1000ef60 f   rt_logging.obj
 0001:0000e1a0       _rt_getTempMemory          1000f1a0 f   rt_logging.obj
 0001:0000e1f0       _rt_preProcessAndLogData   1000f1f0 f   rt_logging.obj
 0001:0000e290       _rt_preProcessAndLogDataWithIndex 1000f290 f   rt_logging.obj
 0001:0000e340       _sprintf                   1000f340 f i rt_logging.obj
 0001:0000e380       _Ethernet                  1000f380 f   Ethernet.obj
 0001:0000f5e0       _MdlInitialize             100105e0 f   Ethernet.obj
 0001:0000f5f0       _MdlInitializeSampleTimes  100105f0 f   Ethernet.obj
 0001:0000f600       _MdlInitializeSizes        10010600 f   Ethernet.obj
 0001:0000f610       _MdlOutputs                10010610 f   Ethernet.obj
 0001:0000f620       _MdlStart                  10010620 f   Ethernet.obj
 0001:0000f6c0       _MdlTerminate              100106c0 f   Ethernet.obj
 0001:0000f6f0       _MdlUpdate                 100106f0 f   Ethernet.obj
 0001:0000f8a0       _Ethernet_GetCAPIStaticMap 100108a0 f   Ethernet_capi.obj
 0001:0000f8b0       _Ethernet_InitializeDataMapInfo 100108b0 f   Ethernet_capi.obj
 0001:0000f980       _mdlXcp_GetMdlXcpInfo      10010980 f   Ethernet_xcp.obj
 0001:0000f990       _SLRT_update_TET           10010990 f   Ethernet_xcp_TET.obj
 0001:0000fa60       _rtGetInf                  10010a60 f   rtGetInf.obj
 0001:0000fa90       _rtGetInfF                 10010a90 f   rtGetInf.obj
 0001:0000faa0       _rtGetMinusInf             10010aa0 f   rtGetInf.obj
 0001:0000fad0       _rtGetMinusInfF            10010ad0 f   rtGetInf.obj
 0001:0000fae0       _rtGetNaN                  10010ae0 f   rtGetNaN.obj
 0001:0000fb10       _rtGetNaNF                 10010b10 f   rtGetNaN.obj
 0001:0000fb20       _rtIsInf                   10010b20 f   rt_nonfinite.obj
 0001:0000fb60       _rtIsInfF                  10010b60 f   rt_nonfinite.obj
 0001:0000fba0       _rtIsNaN                   10010ba0 f   rt_nonfinite.obj
 0001:0000fbf0       _rtIsNaNF                  10010bf0 f   rt_nonfinite.obj
 0001:0000fc30       _rt_InitInfAndNaN          10010c30 f   rt_nonfinite.obj
 0001:0000fc90       _rt_CleanUpForStateLogWithMMI 10010c90 f   rt_logging_mmi.obj
 0001:0000fda0       _rt_FillStateSigInfoFromMMI 10010da0 f   rt_logging_mmi.obj
 0001:000101f0       _rtwCAPI_CountSysRan       100111f0 f   rtw_modelmap_utils.obj
 0001:00010290       _rtwCAPI_EncodePath        10011290 f   rtw_modelmap_utils.obj
 0001:00010330       _rtwCAPI_FillSysRan        10011330 f   rtw_modelmap_utils.obj
 0001:00010420       _rtwCAPI_FreeFullPaths     10011420 f   rtw_modelmap_utils.obj
 0001:00010480       _rtwCAPI_GetFullStateBlockPath 10011480 f   rtw_modelmap_utils.obj
 0001:00010600       _rtwCAPI_GetNumContStateRecords 10011600 f   rtw_modelmap_utils.obj
 0001:00010680       _rtwCAPI_GetNumSigLogRecords 10011680 f   rtw_modelmap_utils.obj
 0001:000106d0       _rtwCAPI_GetNumSigLogRecordsForRTWLogging 100116d0 f   rtw_modelmap_utils.obj
 0001:00010770       _rtwCAPI_GetNumStateRecords 10011770 f   rtw_modelmap_utils.obj
 0001:000107c0       _rtwCAPI_GetNumStateRecordsForRTWLogging 100117c0 f   rtw_modelmap_utils.obj
 0001:00010860       _rtwCAPI_GetSigAddrFromMap 10011860 f   rtw_modelmap_utils.obj
 0001:000108a0       _rtwCAPI_GetSigLogRecordInfo 100118a0 f   rtw_modelmap_utils.obj
 0001:00010c30       _rtwCAPI_GetStateRecordInfo 10011c30 f   rtw_modelmap_utils.obj
 0001:000110c0       _rtwCAPI_GetStateWidth     100120c0 f   rtw_modelmap_utils.obj
 0001:00011110       _rtwCAPI_HasStates         10012110 f   rtw_modelmap_utils.obj
 0001:00011170       _rtwCAPI_UpdateFullPaths   10012170 f   rtw_modelmap_utils.obj
 0001:000112b0       _timestamp_x86             100122b0 f   host_timer_x86.obj
 0001:000112c0       _taskTimeEnd               100122c0 f   xpc_code_profiling_utility_functions.obj
 0001:000112d0       _taskTimeEnd_              100122d0 f   xpc_code_profiling_utility_functions.obj
 0001:000112e0       _taskTimeStart             100122e0 f   xpc_code_profiling_utility_functions.obj
 0001:000112f0       _taskTimeStart_            100122f0 f   xpc_code_profiling_utility_functions.obj
 0001:00011300       _xilProfilingTimerFreeze   10012300 f   xpc_code_profiling_utility_functions.obj
 0001:00011310       _xilProfilingTimerFreezeInternal 10012310 f   xpc_code_profiling_utility_functions.obj
 0001:00011320       _xilProfilingTimerUnFreeze 10012320 f   xpc_code_profiling_utility_functions.obj
 0001:00011330       _xilProfilingTimerUnFreezeInternal 10012330 f   xpc_code_profiling_utility_functions.obj
 0001:00011340       _xilUploadProfilingData    10012340 f   xpc_code_profiling_utility_functions.obj
 0001:000120c0       _slrtIPConfig              100130c0 f   slrtIPConfig.obj
 0001:00012680       _slrtUDPSend               10013680 f   slrtUDPSend.obj
 0001:000126d0       _GetPCIDeviceFull          100136d0 f   xpcruntime:xpcimports.obj
 0001:00012840       _GetPCIDeviceFunction      10013840 f   xpcruntime:xpcimports.obj
 0001:000129b0       _ShowPCIDevice             100139b0 f   xpcruntime:xpcimports.obj
 0001:00012fe0       _slrtGetPciConfigAtFunction 10013fe0 f   xpcruntime:xpcimports.obj
 0001:00013350       _xpcGetPciConfigAtSlot     10014350 f   xpcruntime:xpcimports.obj
 0001:00013370       _xpcInitProcs              10014370 f   xpcruntime:xpcimports.obj
 0001:00014da0       _xpceuploadevent           10015da0 f   xpcruntime:xpcimports.obj
 0001:00014db0       __ftoui3                   10015db0 f   LIBCMT:ftol3.obj
 0001:00014df6       __ftoul3                   10015df6 f   LIBCMT:ftol3.obj
 0001:00014e68       __ftol3                    10015e68 f   LIBCMT:ftol3.obj
 0001:00014ed5       __dtoui3                   10015ed5 f   LIBCMT:ftol3.obj
 0001:00014f49       __dtoul3                   10015f49 f   LIBCMT:ftol3.obj
 0001:00014feb       __dtol3                    10015feb f   LIBCMT:ftol3.obj
 0001:000150a0       __ultod3                   100160a0 f   LIBCMT:ftol3.obj
 0001:00015100       __ltod3                    10016100 f   LIBCMT:ftol3.obj
 0001:00015225       ___raise_securityfailure   10016225 f   LIBCMT:gs_report.obj
 0001:00015257       ___report_gsfailure        10016257 f   LIBCMT:gs_report.obj
 0001:0001538e       ___report_rangecheckfailure 1001638e f   LIBCMT:gs_report.obj
 0001:0001539d       ___report_securityfailure  1001639d f   LIBCMT:gs_report.obj
 0001:0001549e       ___report_securityfailureEx 1001649e f   LIBCMT:gs_report.obj
 0001:000155f7       @__security_check_cookie@4 100165f7 f   LIBCMT:secchk.obj
 0001:0001560c       ___isa_available_init      1001660c f   LIBCMT:cpu_disp.obj
 0001:00015c5d       __CRT_INIT@12              10016c5d f   LIBCMT:dll_dllmain.obj
 0001:00015c68       __DllMainCRTStartup@12     10016c68 f   LIBCMT:dll_dllmain.obj
 0001:00015cf3       ___security_init_cookie    10016cf3 f   LIBCMT:gs_support.obj
 0001:00015d50       ?__scrt_initialize_type_info@@YAXXZ 10016d50 f   LIBCMT:tncleanup.obj
 0001:00015d5f       ?__scrt_uninitialize_type_info@@YAXXZ 10016d5f f   LIBCMT:tncleanup.obj
 0001:00015d6e       ___local_stdio_scanf_options 10016d6e f i LIBCMT:default_local_stdio_options.obj
 0001:00015d74       ___scrt_initialize_default_local_stdio_options 10016d74 f   LIBCMT:default_local_stdio_options.obj
 0001:00015d98       ?configure_argv@__scrt_narrow_argv_policy@@SAHXZ 10016d98 f i LIBCMT:utility.obj
 0001:00015dfd       ?initialize_environment@__scrt_narrow_environment_policy@@SAHXZ 10016dfd f i LIBCMT:utility.obj
 0001:00015e43       _NtCurrentTeb              10016e43 f i LIBCMT:utility.obj
 0001:00015e4a       ___scrt_acquire_startup_lock 10016e4a f   LIBCMT:utility.obj
 0001:00015e88       ___scrt_dllmain_after_initialize_c 10016e88 f   LIBCMT:utility.obj
 0001:00015ebd       ___scrt_dllmain_before_initialize_c 10016ebd f   LIBCMT:utility.obj
 0001:00015ece       ___scrt_dllmain_crt_thread_attach 10016ece f   LIBCMT:utility.obj
 0001:00015ef4       ___scrt_dllmain_crt_thread_detach 10016ef4 f   LIBCMT:utility.obj
 0001:00015f04       ___scrt_dllmain_exception_filter 10016f04 f   LIBCMT:utility.obj
 0001:00015f45       ___scrt_dllmain_uninitialize_c 10016f45 f   LIBCMT:utility.obj
 0001:00015f70       ___scrt_dllmain_uninitialize_critical 10016f70 f   LIBCMT:utility.obj
 0001:00015f80       ___scrt_initialize_crt     10016f80 f   LIBCMT:utility.obj
 0001:00015fc7       ___scrt_initialize_onexit_tables 10016fc7 f   LIBCMT:utility.obj
 0001:0001606f       ___scrt_is_nonwritable_in_current_image 1001706f f   LIBCMT:utility.obj
 0001:00016128       ___scrt_release_startup_lock 10017128 f   LIBCMT:utility.obj
 0001:0001614c       ___scrt_uninitialize_crt   1001714c f   LIBCMT:utility.obj
 0001:0001617e       __onexit                   1001717e f   LIBCMT:utility.obj
 0001:000161b6       _at_quick_exit             100171b6 f   LIBCMT:utility.obj
 0001:000161e1       _atexit                    100171e1 f   LIBCMT:utility.obj
 0001:000161fb       ___scrt_get_dyn_tls_init_callback 100171fb f   LIBCMT:dyn_tls_init.obj
 0001:00016201       ___scrt_fastfail           10017201 f   LIBCMT:utility_desktop.obj
 0001:00016361       ___scrt_get_show_window_mode 10017361 f   LIBCMT:utility_desktop.obj
 0001:0001639e       ___scrt_initialize_mta     1001739e f   LIBCMT:utility_desktop.obj
 0001:000163a3       ___scrt_initialize_winrt   100173a3 f   LIBCMT:utility_desktop.obj
 0001:000163a6       ___scrt_is_managed_app     100173a6 f   LIBCMT:utility_desktop.obj
 0001:000163f9       ___scrt_set_unhandled_exception_filter 100173f9 f   LIBCMT:utility_desktop.obj
 0001:00016408       ___scrt_stub_for_initialize_mta 10017408 f   LIBCMT:utility_desktop.obj
 0001:00016408       ___scrt_exe_initialize_mta 10017408 f   LIBCMT:utility_desktop.obj
 0001:0001640b       ___scrt_unhandled_exception_filter@4 1001740b f   LIBCMT:utility_desktop.obj
 0001:00016476       __crt_debugger_hook        10017476 f   LIBCMT:utility_desktop.obj
 0001:00016480       __RTC_Initialize           10017480 f   LIBCMT:initsect.obj
 0001:000164b7       __RTC_Terminate            100174b7 f   LIBCMT:initsect.obj
 0001:000164f0       __SEH_prolog4              100174f0 f   LIBCMT:sehprolg4.obj
 0001:00016534       __SEH_epilog4              10017534 f   LIBCMT:sehprolg4.obj
 0001:0001655e       @_guard_check_icall_nop@4  1001755e f i LIBCMT:guard_support.obj
 0001:00016561       _ReadNoFence               10017561 f i LIBCMT:guard_support.obj
 0001:0001656d       _ReadPointerNoFence        1001756d f i LIBCMT:guard_support.obj
 0001:00016579       ___castguard_check_failure_debugbreak 10017579 f i LIBCMT:guard_support.obj
 0001:0001659a       ___castguard_check_failure_fastfail 1001759a f i LIBCMT:guard_support.obj
 0001:000165c0       ___castguard_check_failure_nop 100175c0 f i LIBCMT:guard_support.obj
 0001:000165c3       ___castguard_check_failure_os_handled 100175c3 f i LIBCMT:guard_support.obj
 0001:0001662b       ___castguard_slow_path_check_debugbreak 1001762b f i LIBCMT:guard_support.obj
 0001:00016663       ___castguard_slow_path_check_fastfail 10017663 f i LIBCMT:guard_support.obj
 0001:000166a0       ___castguard_slow_path_check_nop 100176a0 f i LIBCMT:guard_support.obj
 0001:000166a3       ___castguard_slow_path_check_os_handled 100176a3 f i LIBCMT:guard_support.obj
 0001:00016722       __guard_icall_checks_enforced 10017722 f i LIBCMT:guard_support.obj
 0001:00016738       __get_startup_argv_mode    10017738 f   LIBCMT:argv_mode.obj
 0001:0001673c       ___scrt_is_ucrt_dll_in_use 1001773c f   LIBCMT:ucrt_detection.obj
 0001:0001674b       _GetModuleHandleA@4        1001774b f   kernel32:KERNEL32.dll
 0001:00016751       _GetProcAddress@8          10017751 f   kernel32:KERNEL32.dll
 0001:00016757       _UnhandledExceptionFilter@4 10017757 f   kernel32:KERNEL32.dll
 0001:0001675d       _SetUnhandledExceptionFilter@4 1001775d f   kernel32:KERNEL32.dll
 0001:00016763       _GetCurrentProcess@0       10017763 f   kernel32:KERNEL32.dll
 0001:00016769       _TerminateProcess@8        10017769 f   kernel32:KERNEL32.dll
 0001:0001676f       _IsProcessorFeaturePresent@4 1001776f f   kernel32:KERNEL32.dll
 0001:00016775       _QueryPerformanceCounter@4 10017775 f   kernel32:KERNEL32.dll
 0001:0001677b       _GetCurrentProcessId@0     1001777b f   kernel32:KERNEL32.dll
 0001:00016781       _GetCurrentThreadId@0      10017781 f   kernel32:KERNEL32.dll
 0001:00016787       _GetSystemTimeAsFileTime@4 10017787 f   kernel32:KERNEL32.dll
 0001:0001678d       _InitializeSListHead@4     1001778d f   kernel32:KERNEL32.dll
 0001:00016793       _IsDebuggerPresent@0       10017793 f   kernel32:KERNEL32.dll
 0001:00016799       _GetStartupInfoW@4         10017799 f   kernel32:KERNEL32.dll
 0001:0001679f       _GetModuleHandleW@4        1001779f f   kernel32:KERNEL32.dll
 0001:000167b0       _memcpy                    100177b0 f   libvcruntime:memcpy.obj
 0001:00016e90       _strchr                    10017e90 f   libvcruntime:strchr.obj
 0001:00016efe       ___from_strstr_to_strchr   10017efe     libvcruntime:strchr.obj
 0001:00017010       _memmove                   10018010 f   libvcruntime:memmove.obj
 0001:000176f0       _memset                    100186f0 f   libvcruntime:memset.obj
 0001:000178e0       __except_handler4          100188e0 f   libvcruntime:chandler4.obj
 0001:00017aa5       ??$?RD@__crt_internal_free_policy@@QBEXQBD@Z 10018aa5 f i libvcruntime:std_type_info.obj
 0001:00017ab9       ??$?RX@__crt_internal_free_policy@@QBEXQBX@Z 10018ab9 f i libvcruntime:std_type_info.obj
 0001:00017acd       ??$__crt_interlocked_compare_exchange_pointer@$$CBDPAD$$T@@YAPBDPDSBDQAD$$T@Z 10018acd f i libvcruntime:std_type_info.obj
 0001:00017ae3       ??$__crt_interlocked_read_pointer@$$CBD@@YAPBDPDSBD@Z 10018ae3 f i libvcruntime:std_type_info.obj
 0001:00017aef       ??0?$__crt_unique_heap_ptr@DU__crt_internal_free_policy@@@@QAE@QAD@Z 10018aef f i libvcruntime:std_type_info.obj
 0001:00017b00       ??0?$__crt_unique_heap_ptr@XU__crt_internal_free_policy@@@@QAE@QAX@Z 10018b00 f i libvcruntime:std_type_info.obj
 0001:00017b11       ??1?$__crt_unique_heap_ptr@DU__crt_internal_free_policy@@@@QAE@XZ 10018b11 f i libvcruntime:std_type_info.obj
 0001:00017b25       ??1?$__crt_unique_heap_ptr@XU__crt_internal_free_policy@@@@QAE@XZ 10018b25 f i libvcruntime:std_type_info.obj
 0001:00017b39       ??B?$__crt_unique_heap_ptr@DU__crt_internal_free_policy@@@@QBE_NXZ 10018b39 f i libvcruntime:std_type_info.obj
 0001:00017b40       ??B?$__crt_unique_heap_ptr@XU__crt_internal_free_policy@@@@QBE_NXZ 10018b40 f i libvcruntime:std_type_info.obj
 0001:00017b7b       ?__crt_interlocked_read_32@@YAHPDH@Z 10018b7b f i libvcruntime:std_type_info.obj
 0001:00017b87       ?detach@?$__crt_unique_heap_ptr@XU__crt_internal_free_policy@@@@QAEPAXXZ 10018b87 f i libvcruntime:std_type_info.obj
 0001:00017b8d       ?get@?$__crt_unique_heap_ptr@DU__crt_internal_free_policy@@@@QBEPADXZ 10018b8d f i libvcruntime:std_type_info.obj
 0001:00017b90       ?get@?$__crt_unique_heap_ptr@XU__crt_internal_free_policy@@@@QBEPAXXZ 10018b90 f i libvcruntime:std_type_info.obj
 0001:00017b93       ?is_valid@?$__crt_unique_heap_ptr@DU__crt_internal_free_policy@@@@QBE_NXZ 10018b93 f i libvcruntime:std_type_info.obj
 0001:00017b9a       ?is_valid@?$__crt_unique_heap_ptr@XU__crt_internal_free_policy@@@@QBE_NXZ 10018b9a f i libvcruntime:std_type_info.obj
 0001:00017ba1       ?release@?$__crt_unique_heap_ptr@DU__crt_internal_free_policy@@@@QAEXXZ 10018ba1 f i libvcruntime:std_type_info.obj
 0001:00017bb5       ?release@?$__crt_unique_heap_ptr@XU__crt_internal_free_policy@@@@QAEXXZ 10018bb5 f i libvcruntime:std_type_info.obj
 0001:00017bc9       ___std_type_info_compare   10018bc9 f   libvcruntime:std_type_info.obj
 0001:00017c14       ___std_type_info_destroy_list 10018c14 f   libvcruntime:std_type_info.obj
 0001:00017c3f       ___std_type_info_hash      10018c3f f   libvcruntime:std_type_info.obj
 0001:00017c6e       ___std_type_info_name      10018c6e f   libvcruntime:std_type_info.obj
 0001:00017d64       ___vcrt_initialize         10018d64 f   libvcruntime:initialization.obj
 0001:00017d8a       ___vcrt_thread_attach      10018d8a f   libvcruntime:initialization.obj
 0001:00017d97       ___vcrt_thread_detach      10018d97 f   libvcruntime:initialization.obj
 0001:00017da4       ___vcrt_uninitialize       10018da4 f   libvcruntime:initialization.obj
 0001:00017dc0       ___vcrt_uninitialize_critical 10018dc0 f   libvcruntime:initialization.obj
 0001:00017dcd       ___DestructExceptionObject 10018dcd f   libvcruntime:ehhelpers.obj
 0001:00017e96       ?_CallMemberFunction0@@YGXQAX0@Z 10018e96 f i libvcruntime:ehhelpers.obj
 0001:00017f14       ?raw_name@type_info@@QBEPBDXZ 10018f14 f i libvcruntime:ehhelpers.obj
 0001:00017f18       __IsExceptionObjectToBeDestroyed 10018f18 f   libvcruntime:ehhelpers.obj
 0001:00017f47       __SetWinRTOutOfMemoryExceptionCallback 10018f47 f   libvcruntime:ehhelpers.obj
 0001:00017f57       ___AdjustPointer           10018f57 f   libvcruntime:ehhelpers.obj
 0001:00017f85       ___FrameUnwindFilter       10018f85 f   libvcruntime:ehhelpers.obj
 0001:00017ff0       ___GetPlatformExceptionInfo 10018ff0 f   libvcruntime:ehhelpers.obj
 0001:0001804f       ___current_exception       1001904f f   libvcruntime:ehhelpers.obj
 0001:0001805a       ___current_exception_context 1001905a f   libvcruntime:ehhelpers.obj
 0001:00018065       ___processing_throw        10019065 f   libvcruntime:ehhelpers.obj
 0001:00018070       ___std_terminate           10019070 f   libvcruntime:ehhelpers.obj
 0001:00018075       __is_exception_typeof      10019075 f   libvcruntime:ehhelpers.obj
 0001:00018150       __local_unwind4            10019150 f   libvcruntime:exsup4.obj
 0001:00018224       __seh_longjmp_unwind4@4    10019224 f   libvcruntime:exsup4.obj
 0001:0001824c       @_EH4_CallFilterFunc@8     1001924c f   libvcruntime:exsup4.obj
 0001:00018264       @_EH4_TransferToHandler@8  10019264 f   libvcruntime:exsup4.obj
 0001:00018280       @_EH4_GlobalUnwind2@8      10019280 f   libvcruntime:exsup4.obj
 0001:0001829c       @_EH4_LocalUnwind@16       1001929c f   libvcruntime:exsup4.obj
 0001:00018318       ___except_validate_context_record 10019318 f   libvcruntime:jbcxrval.obj
 0001:00018354       ___except_validate_jump_buffer 10019354 f   libvcruntime:jbcxrval.obj
 0001:0001838c       ___except_validate_jump_buffer_common 1001938c f i libvcruntime:jbcxrval.obj
 0001:000183d3       ??$?0$00@DName@@QAE@PBDU?$StringLifeSelector@$00@@@Z 100193d3 f i libvcruntime:undname.obj
 0001:00018412       ??$?0$00@pcharNode@@QAE@PBDHU?$StringLifeSelector@$00@@@Z 10019412 f i libvcruntime:undname.obj
 0001:00018433       ??$?0$01@DName@@QAE@PBDU?$StringLifeSelector@$01@@@Z 10019433 f i libvcruntime:undname.obj
 0001:00018472       ??$?0$01@pcharNode@@QAE@PBDHU?$StringLifeSelector@$01@@@Z 10019472 f i libvcruntime:undname.obj
 0001:000184c2       ??$?0$0A@@DName@@QAE@PBDU?$StringLifeSelector@$0A@@@@Z 100194c2 f i libvcruntime:undname.obj
 0001:00018501       ??$?0$0A@@pcharNode@@QAE@PBDHU?$StringLifeSelector@$0A@@@@Z 10019501 f i libvcruntime:undname.obj
 0001:00018551       ??$?0_K$0A@@?$optional@_K@std@@QAE@$$QA_K@Z 10019551 f i libvcruntime:undname.obj
 0001:00018571       ??$?0_K@?$_Optional_construct_base@_K@std@@QAE@Uin_place_t@1@$$QA_K@Z 10019571 f i libvcruntime:undname.obj
 0001:00018591       ??$?0_K@?$_Optional_destruct_base@_K$00@std@@QAE@Uin_place_t@1@$$QA_K@Z 10019591 f i libvcruntime:undname.obj
 0001:000185b1       ??$append@VDNameNode@@@DName@@AAEXPBVDNameNode@@@Z 100195b1 f i libvcruntime:undname.obj
 0001:00018602       ??$append@VDNameStatusNode@@@DName@@AAEXPBVDNameStatusNode@@@Z 10019602 f i libvcruntime:undname.obj
 0001:00018653       ??$append@VcharNode@@@DName@@AAEXPBVcharNode@@@Z 10019653 f i libvcruntime:undname.obj
 0001:000186a4       ??$append@VpDNameNode@@@DName@@AAEXPBVpDNameNode@@@Z 100196a4 f i libvcruntime:undname.obj
 0001:000186f5       ??$append@VpcharNode@@@DName@@AAEXPBVpcharNode@@@Z 100196f5 f i libvcruntime:undname.obj
 0001:00018746       ??$doPchar@$00@DName@@AAEXPBDH@Z 10019746 f i libvcruntime:undname.obj
 0001:000187cb       ??$doPchar@$01@DName@@AAEXPBDH@Z 100197cb f i libvcruntime:undname.obj
 0001:00018858       ??$doPchar@$0A@@DName@@AAEXPBDH@Z 10019858 f i libvcruntime:undname.obj
 0001:000188e5       ??$forward@_K@std@@YA$$QA_KAA_K@Z 100198e5 f i libvcruntime:undname.obj
 0001:000188ef       ??$size@D$04@std@@YAIAAY04$$CBD@Z 100198ef f i libvcruntime:undname.obj
 0001:000188f3       ??$size@D$0EB@@std@@YAIAAY0EB@$$CBD@Z 100198f3 f i libvcruntime:undname.obj
 0001:000188f7       ??0?$_Optional_construct_base@_K@std@@QAE@XZ 100198f7 f i libvcruntime:undname.obj
 0001:000188fe       ??0?$_Optional_destruct_base@_K$00@std@@QAE@XZ 100198fe f i libvcruntime:undname.obj
 0001:00018905       ??0?$optional@_K@std@@QAE@XZ 10019905 f i libvcruntime:undname.obj
 0001:0001890c       ??0Block@_HeapManager@@QAE@XZ 1001990c f i libvcruntime:undname.obj
 0001:00018912       ??0DName@@QAE@AAPBDD@Z     10019912 f   libvcruntime:undname.obj
 0001:000189b2       ??0DName@@QAE@ABUStringLiteral@@@Z 100199b2 f   libvcruntime:undname.obj
 0001:000189e2       ??0DName@@QAE@ABV0@@Z      100199e2 f i libvcruntime:undname.obj
 0001:000189fd       ??0DName@@QAE@D@Z          100199fd f   libvcruntime:undname.obj
 0001:00018a20       ??0DName@@QAE@PAV0@@Z      10019a20 f   libvcruntime:undname.obj
 0001:00018a78       ??0DName@@QAE@W4DNameStatus@@@Z 10019a78 f   libvcruntime:undname.obj
 0001:00018ac8       ??0DName@@QAE@XZ           10019ac8 f i libvcruntime:undname.obj
 0001:00018ad4       ??0DName@@QAE@_J@Z         10019ad4 f   libvcruntime:undname.obj
 0001:00018b83       ??0DName@@QAE@_K@Z         10019b83 f   libvcruntime:undname.obj
 0001:00018c02       ??0DNameNode@@IAE@XZ       10019c02 f i libvcruntime:undname.obj
 0001:00018c0d       ??0Replicator@@QAE@XZ      10019c0d f i libvcruntime:undname.obj
 0001:00018c1e       ??0UnDecorator@@QAE@PBDP6APADJ@ZK@Z 10019c1e f i libvcruntime:undname.obj
 0001:00018c7d       ??0_Nontrivial_dummy_type@std@@QAE@XZ 10019c7d f i libvcruntime:undname.obj
 0001:00018c80       ??0charNode@@QAE@D@Z       10019c80 f i libvcruntime:undname.obj
 0001:00018c9a       ??0pDNameNode@@QAE@PAVDName@@@Z 10019c9a f   libvcruntime:undname.obj
 0001:00018ccc       ??0pairNode@@QAE@PBVDNameNode@@0@Z 10019ccc f i libvcruntime:undname.obj
 0001:00018cf9       ??2@YAPAXIAAV_HeapManager@@H@Z 10019cf9 f   libvcruntime:undname.obj
 0001:00018d1f       ??4DName@@QAEAAV0@ABUStringLiteral@@@Z 10019d1f f   libvcruntime:undname.obj
 0001:00018d48       ??4DName@@QAEAAV0@ABV0@@Z  10019d48 f   libvcruntime:undname.obj
 0001:00018d63       ??4DName@@QAEAAV0@D@Z      10019d63 f i libvcruntime:undname.obj
 0001:00018d86       ??4DName@@QAEAAV0@PAV0@@Z  10019d86 f   libvcruntime:undname.obj
 0001:00018dd9       ??4DName@@QAEAAV0@W4DNameStatus@@@Z 10019dd9 f   libvcruntime:undname.obj
 0001:00018e17       ??AReplicator@@QBE?AVDName@@H@Z 10019e17 f   libvcruntime:undname.obj
 0001:00018e6e       ??B?$optional@_K@std@@QBE_NXZ 10019e6e f i libvcruntime:undname.obj
 0001:00018e72       ??D?$optional@_K@std@@QGAEAA_KXZ 10019e72 f i libvcruntime:undname.obj
 0001:00018e75       ??H@YA?AVDName@@ABUStringLiteral@@ABV0@@Z 10019e75 f i libvcruntime:undname.obj
 0001:00018e9f       ??H@YA?AVDName@@DABV0@@Z   10019e9f f i libvcruntime:undname.obj
 0001:00018ed4       ??H@YA?AVDName@@W4DNameStatus@@ABV0@@Z 10019ed4 f i libvcruntime:undname.obj
 0001:00018efe       ??HDName@@QBE?AV0@ABUStringLiteral@@@Z 10019efe f   libvcruntime:undname.obj
 0001:00018f28       ??HDName@@QBE?AV0@ABV0@@Z  10019f28 f   libvcruntime:undname.obj
 0001:00018f52       ??HDName@@QBE?AV0@D@Z      10019f52 f   libvcruntime:undname.obj
 0001:00018f7c       ??HDName@@QBE?AV0@PAV0@@Z  10019f7c f   libvcruntime:undname.obj
 0001:00018fa6       ??HDName@@QBE?AV0@W4DNameStatus@@@Z 10019fa6 f   libvcruntime:undname.obj
 0001:00018fd0       ??HStringLiteral@@QBE?AU0@H@Z 10019fd0 f i libvcruntime:undname.obj
 0001:00018ff0       ??YDName@@QAEAAV0@ABUStringLiteral@@@Z 10019ff0 f   libvcruntime:undname.obj
 0001:0001905e       ??YDName@@QAEAAV0@ABV0@@Z  1001a05e f   libvcruntime:undname.obj
 0001:000190ca       ??YDName@@QAEAAV0@D@Z      1001a0ca f   libvcruntime:undname.obj
 0001:00019134       ??YDName@@QAEAAV0@PAV0@@Z  1001a134 f   libvcruntime:undname.obj
 0001:000191b1       ??YDName@@QAEAAV0@W4DNameStatus@@@Z 1001a1b1 f   libvcruntime:undname.obj
 0001:00019201       ??YReplicator@@QAEAAV0@ABVDName@@@Z 1001a201 f   libvcruntime:undname.obj
 0001:0001924e       ??_5DName@@QAEAAV0@ABV0@@Z 1001a24e f   libvcruntime:undname.obj
 0001:00019271       ??__K_l@@YA?AUStringLiteral@@PBDI@Z 1001a271 f i libvcruntime:undname.obj
 0001:0001927e       ?Constructor@_HeapManager@@QAEXP6APAXI@ZP6AXPAX@Z@Z 1001a27e f i libvcruntime:undname.obj
 0001:000192a2       ?Destructor@_HeapManager@@QAEXXZ 1001a2a2 f i libvcruntime:undname.obj
 0001:000192fa       ?UScore@UnDecorator@@SA?AUStringLiteral@@W4Tokens@@@Z 1001a2fa f   libvcruntime:undname.obj
 0001:0001932a       ?composeDeclaration@UnDecorator@@CA?AVDName@@ABV2@@Z 1001a32a f i libvcruntime:undname.obj
 0001:0001a3a9       ?doAccessSpecifiers@UnDecorator@@SAHXZ 1001b3a9 f i libvcruntime:undname.obj
 0001:0001a3ba       ?doAllocationLanguage@UnDecorator@@SAHXZ 1001b3ba f i libvcruntime:undname.obj
 0001:0001a3cb       ?doAllocationModel@UnDecorator@@SAHXZ 1001b3cb f i libvcruntime:undname.obj
 0001:0001a3dc       ?doEcsu@UnDecorator@@SAHXZ 1001b3dc f i libvcruntime:undname.obj
 0001:0001a3ed       ?doEllipsis@UnDecorator@@SAHXZ 1001b3ed f i libvcruntime:undname.obj
 0001:0001a3fe       ?doFunctionReturns@UnDecorator@@SAHXZ 1001b3fe f i libvcruntime:undname.obj
 0001:0001a40f       ?doMSKeywords@UnDecorator@@SAHXZ 1001b40f f i libvcruntime:undname.obj
 0001:0001a41f       ?doMemberTypes@UnDecorator@@SAHXZ 1001b41f f i libvcruntime:undname.obj
 0001:0001a430       ?doNameOnly@UnDecorator@@SAHXZ 1001b430 f i libvcruntime:undname.obj
 0001:0001a43d       ?doNoIdentCharCheck@UnDecorator@@SAHXZ 1001b43d f i libvcruntime:undname.obj
 0001:0001a44a       ?doPchar@DName@@AAEXD@Z    1001b44a f   libvcruntime:undname.obj
 0001:0001a490       ?doPtr64@UnDecorator@@SAHXZ 1001b490 f i libvcruntime:undname.obj
 0001:0001a4a1       ?doRestrictionSpec@UnDecorator@@SAHXZ 1001b4a1 f i libvcruntime:undname.obj
 0001:0001a4b2       ?doThisTypes@UnDecorator@@SAHXZ 1001b4b2 f i libvcruntime:undname.obj
 0001:0001a4c8       ?doThrowTypes@UnDecorator@@SAHXZ 1001b4c8 f i libvcruntime:undname.obj
 0001:0001a4d9       ?doTypeOnly@UnDecorator@@SAHXZ 1001b4d9 f i libvcruntime:undname.obj
 0001:0001a4e6       ?doUnderScore@UnDecorator@@SAHXZ 1001b4e6 f i libvcruntime:undname.obj
 0001:0001a4f3       ?getArgumentList@UnDecorator@@CA?AVDName@@XZ 1001b4f3 f   libvcruntime:undname.obj
 0001:0001a643       ?getArgumentTypes@UnDecorator@@CA?AVDName@@XZ 1001b643 f   libvcruntime:undname.obj
 0001:0001a7a2       ?getArrayObject@UnDecorator@@CA?AVDName@@XZ 1001b7a2 f   libvcruntime:undname.obj
 0001:0001a86c       ?getArrayType@UnDecorator@@CA?AVDName@@ABV2@@Z 1001b86c f i libvcruntime:undname.obj
 0001:0001aa70       ?getBasedType@UnDecorator@@CA?AVDName@@XZ 1001ba70 f   libvcruntime:undname.obj
 0001:0001ab59       ?getBasicDataType@UnDecorator@@CA?AVDName@@ABV2@@Z 1001bb59 f   libvcruntime:undname.obj
 0001:0001b188       ?getCHPEName@UnDecorator@@QAEPADPADH@Z 1001c188 f i libvcruntime:undname.obj
 0001:0001b29c       ?getCallIndex@UnDecorator@@CA?AVDName@@XZ 1001c29c f i libvcruntime:undname.obj
 0001:0001b2b5       ?getCallingConvention@UnDecorator@@CA?AVDName@@XZ 1001c2b5 f   libvcruntime:undname.obj
 0001:0001b3c9       ?getDataIndirectType@UnDecorator@@CA?AVDName@@ABV2@W4IndirectionKind@@0H@Z 1001c3c9 f   libvcruntime:undname.obj
 0001:0001bc04       ?getDataIndirectType@UnDecorator@@CA?AVDName@@XZ 1001cc04 f i libvcruntime:undname.obj
 0001:0001bc3d       ?getDataType@UnDecorator@@CA?AVDName@@PAV2@@Z 1001cc3d f   libvcruntime:undname.obj
 0001:0001bd49       ?getDecoratedName@UnDecorator@@CA?AVDName@@XZ 1001cd49 f   libvcruntime:undname.obj
 0001:0001c04d       ?getDimension@UnDecorator@@CA?AVDName@@_N@Z 1001d04d f   libvcruntime:undname.obj
 0001:0001c1a9       ?getDispatchTarget@UnDecorator@@CA?AVDName@@XZ 1001d1a9 f   libvcruntime:undname.obj
 0001:0001c212       ?getDisplacement@UnDecorator@@CA?AVDName@@XZ 1001d212 f i libvcruntime:undname.obj
 0001:0001c22b       ?getECSUDataType@UnDecorator@@CA?AVDName@@XZ 1001d22b f   libvcruntime:undname.obj
 0001:0001c41f       ?getECSUName@UnDecorator@@CA?AVDName@@XZ 1001d41f f i libvcruntime:undname.obj
 0001:0001c434       ?getEnumType@UnDecorator@@CA?AVDName@@XZ 1001d434 f i libvcruntime:undname.obj
 0001:0001c59c       ?getExtendedDataIndirectType@UnDecorator@@CA?AVDName@@AAW4IndirectionKind@@AA_NH@Z 1001d59c f   libvcruntime:undname.obj
 0001:0001c7bb       ?getExternalDataType@UnDecorator@@CA?AVDName@@ABV2@@Z 1001d7bb f i libvcruntime:undname.obj
 0001:0001c839       ?getFloatingPoint@UnDecorator@@CA?AVDName@@H@Z 1001d839 f   libvcruntime:undname.obj
 0001:0001c960       ?getFunctionIndirectType@UnDecorator@@CA?AVDName@@ABV2@@Z 1001d960 f   libvcruntime:undname.obj
 0001:0001ce07       ?getGuardNumber@UnDecorator@@CA?AVDName@@XZ 1001de07 f i libvcruntime:undname.obj
 0001:0001ce20       ?getLastChar@DName@@QBEDXZ 1001de20 f i libvcruntime:undname.obj
 0001:0001ce48       ?getLastChar@DNameStatusNode@@UBEDXZ 1001de48 f i libvcruntime:undname.obj
 0001:0001ce57       ?getLastChar@charNode@@UBEDXZ 1001de57 f i libvcruntime:undname.obj
 0001:0001ce5b       ?getLastChar@pDNameNode@@UBEDXZ 1001de5b f i libvcruntime:undname.obj
 0001:0001ce6c       ?getLastChar@pairNode@@UBEDXZ 1001de6c f i libvcruntime:undname.obj
 0001:0001ceae       ?getLastChar@pcharNode@@UBEDXZ 1001deae f i libvcruntime:undname.obj
 0001:0001cec4       ?getLexicalFrame@UnDecorator@@CA?AVDName@@XZ 1001dec4 f i libvcruntime:undname.obj
 0001:0001cf01       ?getMemoryWithBuffer@_HeapManager@@QAEPAXI@Z 1001df01 f   libvcruntime:undname.obj
 0001:0001cf85       ?getMemoryWithoutBuffer@_HeapManager@@QAEPAXI@Z 1001df85 f   libvcruntime:undname.obj
 0001:0001cfad       ?getNoexcept@UnDecorator@@CA?AVDName@@XZ 1001dfad f   libvcruntime:undname.obj
 0001:0001d016       ?getNumberOfDimensions@UnDecorator@@CAHXZ 1001e016 f   libvcruntime:undname.obj
 0001:0001d08f       ?getOperatorName@UnDecorator@@CA?AVDName@@_NPA_N@Z 1001e08f f i libvcruntime:undname.obj
 0001:0001d8de       ?getPointerType@UnDecorator@@CA?AVDName@@ABV2@0@Z 1001e8de f i libvcruntime:undname.obj
 0001:0001d8ff       ?getPointerTypeArray@UnDecorator@@CA?AVDName@@ABV2@0@Z 1001e8ff f i libvcruntime:undname.obj
 0001:0001d920       ?getPrimaryDataType@UnDecorator@@CA?AVDName@@ABV2@@Z 1001e920 f   libvcruntime:undname.obj
 0001:0001dc02       ?getPtrRefDataType@UnDecorator@@CA?AVDName@@ABV2@H@Z 1001ec02 f   libvcruntime:undname.obj
 0001:0001ddca       ?getPtrRefType@UnDecorator@@CA?AVDName@@ABV2@0W4IndirectionKind@@@Z 1001edca f   libvcruntime:undname.obj
 0001:0001df1f       ?getReferenceType@UnDecorator@@CA?AVDName@@ABV2@0W4IndirectionKind@@@Z 1001ef1f f i libvcruntime:undname.obj
 0001:0001df42       ?getRestrictionSpec@UnDecorator@@CA?AVDName@@XZ 1001ef42 f   libvcruntime:undname.obj
 0001:0001e0b5       ?getReturnType@UnDecorator@@CA?AVDName@@PAV2@@Z 1001f0b5 f   libvcruntime:undname.obj
 0001:0001e0ef       ?getScope@UnDecorator@@CA?AVDName@@XZ 1001f0ef f   libvcruntime:undname.obj
 0001:0001e58d       ?getScopedName@UnDecorator@@CA?AVDName@@XZ 1001f58d f   libvcruntime:undname.obj
 0001:0001e6b2       ?getSignedDimension@UnDecorator@@CA?AVDName@@XZ 1001f6b2 f   libvcruntime:undname.obj
 0001:0001e717       ?getStorageConvention@UnDecorator@@CA?AVDName@@XZ 1001f717 f i libvcruntime:undname.obj
 0001:0001e72c       ?getString@DName@@QBEPADPAD0@Z 1001f72c f i libvcruntime:undname.obj
 0001:0001e764       ?getString@DName@@QBEPADPADH@Z 1001f764 f i libvcruntime:undname.obj
 0001:0001e7ce       ?getString@DNameStatusNode@@UBEPADPAD0@Z 1001f7ce f i libvcruntime:undname.obj
 0001:0001e825       ?getString@charNode@@UBEPADPAD0@Z 1001f825 f i libvcruntime:undname.obj
 0001:0001e83f       ?getString@pDNameNode@@UBEPADPAD0@Z 1001f83f f i libvcruntime:undname.obj
 0001:0001e85b       ?getString@pairNode@@UBEPADPAD0@Z 1001f85b f i libvcruntime:undname.obj
 0001:0001e8b2       ?getString@pcharNode@@UBEPADPAD0@Z 1001f8b2 f i libvcruntime:undname.obj
 0001:0001e8d3       ?getStringEncoding@UnDecorator@@CA?AVDName@@W4PrefixKind@@H@Z 1001f8d3 f   libvcruntime:undname.obj
 0001:0001e9b9       ?getStringHelper@@YAPADPADPBD1H@Z 1001f9b9 f i libvcruntime:undname.obj
 0001:0001e9ed       ?getStringObject@UnDecorator@@CA?AVDName@@XZ 1001f9ed f   libvcruntime:undname.obj
 0001:0001ea59       ?getSymbolName@UnDecorator@@CA?AVDName@@XZ 1001fa59 f i libvcruntime:undname.obj
 0001:0001eab3       ?getTemplateArgumentList@UnDecorator@@CA?AVDName@@XZ 1001fab3 f   libvcruntime:undname.obj
 0001:0001ecde       ?getTemplateName@UnDecorator@@CA?AVDName@@_N@Z 1001fcde f   libvcruntime:undname.obj
 0001:0001ee97       ?getTemplateNonTypeArgument@UnDecorator@@CA?AVDName@@XZ 1001fe97 f   libvcruntime:undname.obj
 0001:0001f26c       ?getTemplateTypeArgument@UnDecorator@@CA?AVDName@@XZ 1002026c f   libvcruntime:undname.obj
 0001:0001f3b3       ?getThisType@UnDecorator@@CA?AVDName@@XZ 100203b3 f i libvcruntime:undname.obj
 0001:0001f3ed       ?getThrowTypes@UnDecorator@@CA?AVDName@@XZ 100203ed f   libvcruntime:undname.obj
 0001:0001f418       ?getTypeEncoding@UnDecorator@@CAHXZ 10020418 f i libvcruntime:undname.obj
 0001:0001f814       ?getUndecoratedName@UnDecorator@@QAEPADPADH@Z 10020814 f i libvcruntime:undname.obj
 0001:0001f97a       ?getVCallThunkType@UnDecorator@@CA?AVDName@@XZ 1002097a f i libvcruntime:undname.obj
 0001:0001f9e5       ?getValue@UnDecorator@@CA?AV?$optional@_K@std@@XZ 100209e5 f   libvcruntime:undname.obj
 0001:0001fa71       ?getValueObject@UnDecorator@@CA?AVDName@@XZ 10020a71 f   libvcruntime:undname.obj
 0001:0001fbc2       ?getVbTableType@UnDecorator@@CA?AVDName@@ABV2@@Z 10020bc2 f i libvcruntime:undname.obj
 0001:0001fbdc       ?getVdispMapType@UnDecorator@@CA?AVDName@@ABV2@@Z 10020bdc f i libvcruntime:undname.obj
 0001:0001fc55       ?getVfTableType@UnDecorator@@CA?AVDName@@ABV2@@Z 10020c55 f i libvcruntime:undname.obj
 0001:0001fe00       ?getZName@UnDecorator@@CA?AVDName@@_N0@Z 10020e00 f   libvcruntime:undname.obj
 0001:0002009a       ?haveTemplateParameters@UnDecorator@@SAHXZ 1002109a f i libvcruntime:undname.obj
 0001:000200a7       ?isArray@DName@@QBEHXZ     100210a7 f i libvcruntime:undname.obj
 0001:000200b3       ?isComArray@DName@@QBEHXZ  100210b3 f i libvcruntime:undname.obj
 0001:000200bf       ?isEmpty@DName@@QBEHXZ     100210bf f i libvcruntime:undname.obj
 0001:000200c9       ?isFull@Replicator@@QBEHXZ 100210c9 f i libvcruntime:undname.obj
 0001:000200d4       ?isNoTE@DName@@QBEHXZ      100210d4 f i libvcruntime:undname.obj
 0001:000200e0       ?isPinPtr@DName@@QBEHXZ    100210e0 f i libvcruntime:undname.obj
 0001:000200ec       ?isPtrRef@DName@@QBEHXZ    100210ec f i libvcruntime:undname.obj
 0001:000200f8       ?isUDC@DName@@QBEHXZ       100210f8 f i libvcruntime:undname.obj
 0001:0002010d       ?isUDTThunk@DName@@QBEHXZ  1002110d f i libvcruntime:undname.obj
 0001:00020122       ?isVCallThunk@DName@@QBEHXZ 10021122 f i libvcruntime:undname.obj
 0001:0002012e       ?isValid@DName@@QBEHXZ     1002112e f i libvcruntime:undname.obj
 0001:0002013a       ?length@DName@@QBEHXZ      1002113a f i libvcruntime:undname.obj
 0001:00020160       ?length@DNameStatusNode@@UBEHXZ 10021160 f i libvcruntime:undname.obj
 0001:00020164       ?length@charNode@@UBEHXZ   10021164 f i libvcruntime:undname.obj
 0001:00020168       ?length@pDNameNode@@UBEHXZ 10021168 f i libvcruntime:undname.obj
 0001:00020179       ?length@pairNode@@UBEHXZ   10021179 f i libvcruntime:undname.obj
 0001:000201d4       ?length@pcharNode@@UBEHXZ  100211d4 f i libvcruntime:undname.obj
 0001:000201d8       ?make@DNameStatusNode@@SAPBV1@W4DNameStatus@@@Z 100211d8 f i libvcruntime:undname.obj
 0001:000201fb       ?parseDecoratedName@UnDecorator@@CA?AVDName@@XZ 100211fb f   libvcruntime:undname.obj
 0001:00020333       ?raw_length@DNameStatusNode@@UBEHXZ 10021333 f i libvcruntime:undname.obj
 0001:00020337       ?raw_length@charNode@@UBEHXZ 10021337 f i libvcruntime:undname.obj
 0001:0002033b       ?raw_length@pDNameNode@@UBEHXZ 1002133b f i libvcruntime:undname.obj
 0001:0002033f       ?raw_length@pairNode@@UBEHXZ 1002133f f i libvcruntime:undname.obj
 0001:00020343       ?raw_length@pcharNode@@UBEHXZ 10021343 f i libvcruntime:undname.obj
 0001:00020347       ?setIsArray@DName@@QAEXXZ  10021347 f i libvcruntime:undname.obj
 0001:00020351       ?setIsComArray@DName@@QAEXXZ 10021351 f i libvcruntime:undname.obj
 0001:0002035b       ?setIsNoTE@DName@@QAEXXZ   1002135b f i libvcruntime:undname.obj
 0001:00020365       ?setIsPinPtr@DName@@QAEXXZ 10021365 f i libvcruntime:undname.obj
 0001:0002036f       ?setIsUDC@DName@@QAEXXZ    1002136f f i libvcruntime:undname.obj
 0001:0002037f       ?setIsVCallThunk@DName@@QAEXXZ 1002137f f i libvcruntime:undname.obj
 0001:00020389       ?setPtrRef@DName@@QAEAAV1@XZ 10021389 f i libvcruntime:undname.obj
 0001:00020395       ?status@DName@@QBE?AW4DNameStatus@@XZ 10021395 f i libvcruntime:undname.obj
 0001:0002041a       ___unDName                 1002141a f   libvcruntime:undname.obj
 0001:00020445       ___unDNameEx               10021445 f   libvcruntime:undname.obj
 0001:0002050b       __vsprintf_s_l             1002150b f i libvcruntime:undname.obj
 0001:00020543       _sprintf_s                 10021543 f i libvcruntime:undname.obj
 0001:00020566       _unDNameGenerateCHPE       10021566 f   libvcruntime:undname.obj
 0001:0002062a       ??$?RU__vcrt_ptd@@@__crt_internal_free_policy@@QBEXQBU__vcrt_ptd@@@Z 1002162a f i libvcruntime:per_thread_data.obj
 0001:0002063e       ??0?$__crt_unique_heap_ptr@U__vcrt_ptd@@U__crt_internal_free_policy@@@@QAE@QAU__vcrt_ptd@@@Z 1002163e f i libvcruntime:per_thread_data.obj
 0001:00020661       ??1?$__crt_unique_heap_ptr@U__vcrt_ptd@@U__crt_internal_free_policy@@@@QAE@XZ 10021661 f i libvcruntime:per_thread_data.obj
 0001:00020680       ??B?$__crt_unique_heap_ptr@U__vcrt_ptd@@U__crt_internal_free_policy@@@@QBE_NXZ 10021680 f i libvcruntime:per_thread_data.obj
 0001:00020687       ?detach@?$__crt_unique_heap_ptr@U__vcrt_ptd@@U__crt_internal_free_policy@@@@QAEPAU__vcrt_ptd@@XZ 10021687 f i libvcruntime:per_thread_data.obj
 0001:0002068d       ?get@?$__crt_unique_heap_ptr@U__vcrt_ptd@@U__crt_internal_free_policy@@@@QBEPAU__vcrt_ptd@@XZ 1002168d f i libvcruntime:per_thread_data.obj
 0001:00020690       ?is_valid@?$__crt_unique_heap_ptr@U__vcrt_ptd@@U__crt_internal_free_policy@@@@QBE_NXZ 10021690 f i libvcruntime:per_thread_data.obj
 0001:00020697       ?release@?$__crt_unique_heap_ptr@U__vcrt_ptd@@U__crt_internal_free_policy@@@@QAEXXZ 10021697 f i libvcruntime:per_thread_data.obj
 0001:000206cb       ___vcrt_freefls@4          100216cb f   libvcruntime:per_thread_data.obj
 0001:000206ee       ___vcrt_freeptd            100216ee f   libvcruntime:per_thread_data.obj
 0001:00020731       ___vcrt_getptd             10021731 f   libvcruntime:per_thread_data.obj
 0001:00020742       ___vcrt_getptd_noexit      10021742 f   libvcruntime:per_thread_data.obj
 0001:000207f8       ___vcrt_getptd_noinit      100217f8 f   libvcruntime:per_thread_data.obj
 0001:0002083c       ___vcrt_initialize_ptd     1002183c f   libvcruntime:per_thread_data.obj
 0001:0002087b       ___vcrt_uninitialize_ptd   1002187b f   libvcruntime:per_thread_data.obj
 0001:0002089c       ___vcrt_initialize_locks   1002189c f   libvcruntime:locks.obj
 0001:000208e7       ___vcrt_lock               100218e7 f   libvcruntime:locks.obj
 0001:00020901       ___vcrt_uninitialize_locks 10021901 f   libvcruntime:locks.obj
 0001:0002093b       ___vcrt_unlock             1002193b f   libvcruntime:locks.obj
 0001:00020960       __global_unwind2           10021960 f   libvcruntime:exsup.obj
 0001:000209c6       __local_unwind2            100219c6 f   libvcruntime:exsup.obj
 0001:00020a4a       __abnormal_termination     10021a4a f   libvcruntime:exsup.obj
 0001:00020a70       __NLG_Notify1              10021a70 f   libvcruntime:exsup.obj
 0001:00020a7c       __NLG_Notify               10021a7c f   libvcruntime:exsup.obj
 0001:00020a93       __NLG_Dispatch2            10021a93     libvcruntime:exsup.obj
 0001:00020a93       __NLG_Dispatch             10021a93     libvcruntime:exsup.obj
 0001:00020a9b       __NLG_Call                 10021a9b f   libvcruntime:exsup.obj
 0001:00020a9d       __NLG_Return2              10021a9d     libvcruntime:exsup.obj
 0001:00020aed       ??$__crt_interlocked_exchange_pointer@$$A6AXXZP6AXXZ@@YAP6AXXZPDS6AXXZQ6AXXZ@Z 10021aed f i libvcruntime:purevirt.obj
 0001:00020afd       ??$__crt_interlocked_read_pointer@$$A6AXXZ@@YAP6AXXZPDS6AXXZ@Z 10021afd f i libvcruntime:purevirt.obj
 0001:00020b09       __get_purecall_handler     10021b09 f   libvcruntime:purevirt.obj
 0001:00020b0f       __purecall                 10021b0f f   libvcruntime:purevirt.obj
 0001:00020b32       __set_purecall_handler     10021b32 f   libvcruntime:purevirt.obj
 0001:00020b44       ??$?0AAViterator@TryBlockMap@__FrameHandler3@@AAV012@$0A@@?$pair@Viterator@TryBlockMap@__FrameHandler3@@V123@@std@@QAE@AAViterator@TryBlockMap@__FrameHandler3@@0@Z 10021b44 f i libvcruntime:trnsctrl.obj
 0001:00020b71       ??$forward@AAViterator@TryBlockMap@__FrameHandler3@@@std@@YAAAViterator@TryBlockMap@__FrameHandler3@@AAV123@@Z 10021b71 f i libvcruntime:trnsctrl.obj
 0001:00020b7b       ??0iterator@TryBlockMap@__FrameHandler3@@QAE@AAV12@I@Z 10021b7b f i libvcruntime:trnsctrl.obj
 0001:00020b94       ?GetRangeOfTrysToCheck@__FrameHandler3@@SA?AU?$pair@Viterator@TryBlockMap@__FrameHandler3@@V123@@std@@AAVTryBlockMap@1@HPAXPBU_s_FuncInfo@@H@Z 10021b94 f   libvcruntime:trnsctrl.obj
 0001:00020c20       ?_CallCatchBlock2@@YAPAXPAUEHRegistrationNode@@PBU_s_FuncInfo@@PAXHK@Z 10021c20 f   libvcruntime:trnsctrl.obj
 0001:00020c95       ?_CallSETranslator@@YAHPAUEHExceptionRecord@@PAUEHRegistrationNode@@PAX2PBU_s_FuncInfo@@H1@Z 10021c95 f   libvcruntime:trnsctrl.obj
 0001:00020db4       ?_JumpToContinuation@@YGXPAXPAUEHRegistrationNode@@@Z 10021db4 f   libvcruntime:trnsctrl.obj
 0001:00020df0       ?_UnwindNestedFrames@@YGXPAUEHRegistrationNode@@PAUEHExceptionRecord@@@Z 10021df0 f   libvcruntime:trnsctrl.obj
 0001:00020e57       __CatchGuardHandler        10021e57 f   libvcruntime:trnsctrl.obj
 0001:00020e94       __CreateFrameInfo          10021e94 f   libvcruntime:trnsctrl.obj
 0001:00020ec1       __FindAndUnlinkFrame       10021ec1 f   libvcruntime:trnsctrl.obj
 0001:00020f1b       __TranslatorGuardHandler   10021f1b f   libvcruntime:trnsctrl.obj
 0001:00020fdf       ___CxxFrameHandler         10021fdf f   libvcruntime:trnsctrl.obj
 0001:00021022       ___CxxFrameHandler2        10022022 f   libvcruntime:trnsctrl.obj
 0001:00021065       ___CxxFrameHandler3        10022065 f   libvcruntime:trnsctrl.obj
 0001:000210a8       ___CxxLongjmpUnwind@4      100220a8 f   libvcruntime:trnsctrl.obj
 0001:000210d6       ??$__crt_interlocked_exchange_pointer@UHINSTANCE__@@PAU1@@@YAPAUHINSTANCE__@@PDSAU0@QAU0@@Z 100220d6 f i libvcruntime:winapi_downlevel.obj
 0001:000210e6       ??$__crt_interlocked_exchange_pointer@UHINSTANCE__@@PAX@@YAPAUHINSTANCE__@@PDSAU0@QAX@Z 100220e6 f i libvcruntime:winapi_downlevel.obj
 0001:000210f6       ??$__crt_interlocked_exchange_pointer@XPAX@@YAPAXPDSAXQAX@Z 100220f6 f i libvcruntime:winapi_downlevel.obj
 0001:00021106       ??$__crt_interlocked_read_pointer@UHINSTANCE__@@@@YAPAUHINSTANCE__@@PDSAU0@@Z 10022106 f i libvcruntime:winapi_downlevel.obj
 0001:00021112       ??$__crt_interlocked_read_pointer@X@@YAPAXPDSAX@Z 10022112 f i libvcruntime:winapi_downlevel.obj
 0001:000213c6       ___vcrt_FlsAlloc           100223c6 f   libvcruntime:winapi_downlevel.obj
 0001:0002140f       ___vcrt_FlsFree            1002240f f   libvcruntime:winapi_downlevel.obj
 0001:00021458       ___vcrt_FlsGetValue        10022458 f   libvcruntime:winapi_downlevel.obj
 0001:000214a1       ___vcrt_FlsSetValue        100224a1 f   libvcruntime:winapi_downlevel.obj
 0001:000214ee       ___vcrt_InitializeCriticalSectionEx 100224ee f   libvcruntime:winapi_downlevel.obj
 0001:00021e58       ??$TypeMatchHelper@V__FrameHandler3@@@@YAHPBU_s_HandlerType@@PBU_s_CatchableType@@PBU_s_ThrowInfo@@@Z 10022e58 f i libvcruntime:frame.obj
 0001:00021f09       ??$__InternalCxxFrameHandler@V__FrameHandler3@@@@YA?AW4_EXCEPTION_DISPOSITION@@PAUEHExceptionRecord@@PAUEHRegistrationNode@@PAU_CONTEXT@@PAXPBU_s_FuncInfo@@H1E@Z 10022f09 f i libvcruntime:frame.obj
 0001:0002204b       ??0HandlerMap@__FrameHandler3@@QAE@PBU_s_TryBlockMapEntry@@II@Z 1002304b f i libvcruntime:frame.obj
 0001:00022067       ??0TryBlockMap@__FrameHandler3@@QAE@PBU_s_FuncInfo@@I@Z 10023067 f i libvcruntime:frame.obj
 0001:00022080       ??0bad_exception@std@@QAE@ABV01@@Z 10023080 f i libvcruntime:frame.obj
 0001:000220a1       ??0bad_exception@std@@QAE@XZ 100230a1 f i libvcruntime:frame.obj
 0001:000220bf       ??0exception@std@@QAE@ABV01@@Z 100230bf f i libvcruntime:frame.obj
 0001:000220f6       ??0exception@std@@QAE@QBDH@Z 100230f6 f i libvcruntime:frame.obj
 0001:0002211a       ??0iterator@HandlerMap@__FrameHandler3@@QAE@AAV12@I@Z 1002311a f i libvcruntime:frame.obj
 0001:00022133       ??1bad_exception@std@@UAE@XZ 10023133 f i libvcruntime:frame.obj
 0001:00022148       ??1exception@std@@UAE@XZ   10023148 f i libvcruntime:frame.obj
 0001:0002215d       ??8iterator@HandlerMap@__FrameHandler3@@QBE_NABV012@@Z 1002315d f i libvcruntime:frame.obj
 0001:00022174       ??8type_info@@QBE_NABV0@@Z 10023174 f i libvcruntime:frame.obj
 0001:0002219a       ??9iterator@HandlerMap@__FrameHandler3@@QBE_NABV012@@Z 1002319a f i libvcruntime:frame.obj
 0001:000221b1       ??Diterator@HandlerMap@__FrameHandler3@@QAE?BU_s_HandlerType@@XZ 100231b1 f i libvcruntime:frame.obj
 0001:000221d7       ??Diterator@TryBlockMap@__FrameHandler3@@QAE?BU_s_TryBlockMapEntry@@XZ 100231d7 f i libvcruntime:frame.obj
 0001:00022201       ??Eiterator@HandlerMap@__FrameHandler3@@QAEAAV012@XZ 10023201 f i libvcruntime:frame.obj
 0001:00022207       ??Eiterator@TryBlockMap@__FrameHandler3@@QAEAAV012@XZ 10023207 f i libvcruntime:frame.obj
 0001:0002220d       ??Miterator@TryBlockMap@__FrameHandler3@@QBE_NABV012@@Z 1002320d f i libvcruntime:frame.obj
 0001:00022224       ??_Gbad_exception@std@@UAEPAXI@Z 10023224 f i libvcruntime:frame.obj
 0001:00022224       ??_Ebad_exception@std@@UAEPAXI@Z 10023224 f i libvcruntime:frame.obj
 0001:0002225c       ??_Gexception@std@@UAEPAXI@Z 1002325c f i libvcruntime:frame.obj
 0001:0002225c       ??_Eexception@std@@UAEPAXI@Z 1002325c f i libvcruntime:frame.obj
 0001:00022294       ?BuildCatchObject@__FrameHandler3@@SAXPAUEHExceptionRecord@@PAXPBU_s_HandlerType@@PBU_s_CatchableType@@@Z 10023294 f   libvcruntime:frame.obj
 0001:00022299       ?BuildCatchObjectHelper@__FrameHandler3@@SAHPAUEHExceptionRecord@@PAXPBU_s_HandlerType@@PBU_s_CatchableType@@@Z 10023299 f   libvcruntime:frame.obj
 0001:00022583       ?FrameUnwindToEmptyState@__FrameHandler3@@SAXPAUEHRegistrationNode@@PAXPBU_s_FuncInfo@@@Z 10023583 f   libvcruntime:frame.obj
 0001:000225a1       ?FrameUnwindToState@__FrameHandler3@@SAXPAUEHRegistrationNode@@PAXPBU_s_FuncInfo@@H@Z 100235a1 f   libvcruntime:frame.obj
 0001:000226c3       ?GetMaxState@__FrameHandler3@@SAHPAXPBU_s_FuncInfo@@@Z 100236c3 f i libvcruntime:frame.obj
 0001:000227d7       ?TypeMatch@__FrameHandler3@@SAHPBU_s_HandlerType@@PBU_s_CatchableType@@PBU_s_ThrowInfo@@@Z 100237d7 f   libvcruntime:frame.obj
 0001:000227e2       ?_CallMemberFunction1@@YGXQAX00@Z 100237e2 f i libvcruntime:frame.obj
 0001:000227f6       ?_CallMemberFunction2@@YGXQAX00H@Z 100237f6 f i libvcruntime:frame.obj
 0001:0002280d       ?begin@HandlerMap@__FrameHandler3@@QAE?AViterator@12@XZ 1002380d f i libvcruntime:frame.obj
 0001:00022821       ?end@HandlerMap@__FrameHandler3@@QAE?AViterator@12@XZ 10023821 f i libvcruntime:frame.obj
 0001:00022836       ?getESTypes@__FrameHandler3@@SAPBU_s_ESTypeList@@PBU_s_FuncInfo@@@Z 10023836 f i libvcruntime:frame.obj
 0001:00022843       ?getLastEntry@HandlerMap@__FrameHandler3@@QAEPBU_s_HandlerType@@XZ 10023843 f i libvcruntime:frame.obj
 0001:00022854       ?getMagicNum@__FrameHandler3@@SAIPBU_s_FuncInfo@@@Z 10023854 f i libvcruntime:frame.obj
 0001:00022866       ?getNumTryBlocks@TryBlockMap@__FrameHandler3@@QAEIXZ 10023866 f i libvcruntime:frame.obj
 0001:0002286c       ?isEHs@__FrameHandler3@@SA_NPBU_s_FuncInfo@@@Z 1002386c f i libvcruntime:frame.obj
 0001:0002287c       ?isNoExcept@__FrameHandler3@@SA_NPBU_s_FuncInfo@@@Z 1002387c f i libvcruntime:frame.obj
 0001:00022890       ?what@exception@std@@UBEPBDXZ 10023890 f i libvcruntime:frame.obj
 0001:000228a0       ___BuildCatchObject        100238a0 f   libvcruntime:frame.obj
 0001:000228a5       ___BuildCatchObjectHelper  100238a5 f   libvcruntime:frame.obj
 0001:000228b0       ___TypeMatch               100238b0 f   libvcruntime:frame.obj
 0001:000228bb       ___vcrt_EncodePointer      100238bb f i libvcruntime:frame.obj
 0001:000228d0       __CallSettingFrame@12      100238d0 f   libvcruntime:lowhelpr.obj
 0001:000228f7       __NLG_Return               100238f7     libvcruntime:lowhelpr.obj
 0001:00022948       __get_unexpected           10023948 f   libvcruntime:unexpected.obj
 0001:0002295e       _set_unexpected            1002395e f   libvcruntime:unexpected.obj
 0001:00022983       _unexpected                10023983 f   libvcruntime:unexpected.obj
 0001:000229a7       ?GetCurrentState@__FrameHandler3@@SAHPAUEHRegistrationNode@@PAXPBU_s_FuncInfo@@@Z 100239a7 f   libvcruntime:ehstate.obj
 0001:000229cb       ?SetState@__FrameHandler3@@SAXPAUEHRegistrationNode@@PBU_s_FuncInfo@@H@Z 100239cb f   libvcruntime:ehstate.obj
 0001:000229dc       ??$?RD@__crt_public_free_policy@@QBEXQBD@Z 100239dc f i libvcruntime:std_exception.obj
 0001:000229f0       ??0?$__crt_unique_heap_ptr@DU__crt_public_free_policy@@@@QAE@QAD@Z 100239f0 f i libvcruntime:std_exception.obj
 0001:00022a01       ??1?$__crt_unique_heap_ptr@DU__crt_public_free_policy@@@@QAE@XZ 10023a01 f i libvcruntime:std_exception.obj
 0001:00022a15       ??B?$__crt_unique_heap_ptr@DU__crt_public_free_policy@@@@QBE_NXZ 10023a15 f i libvcruntime:std_exception.obj
 0001:00022a1c       ?detach@?$__crt_unique_heap_ptr@DU__crt_public_free_policy@@@@QAEPADXZ 10023a1c f i libvcruntime:std_exception.obj
 0001:00022a22       ?get@?$__crt_unique_heap_ptr@DU__crt_public_free_policy@@@@QBEPADXZ 10023a22 f i libvcruntime:std_exception.obj
 0001:00022a25       ?is_valid@?$__crt_unique_heap_ptr@DU__crt_public_free_policy@@@@QBE_NXZ 10023a25 f i libvcruntime:std_exception.obj
 0001:00022a2c       ?release@?$__crt_unique_heap_ptr@DU__crt_public_free_policy@@@@QAEXXZ 10023a2c f i libvcruntime:std_exception.obj
 0001:00022a40       ___std_exception_copy      10023a40 f   libvcruntime:std_exception.obj
 0001:00022abb       ___std_exception_destroy   10023abb f   libvcruntime:std_exception.obj
 0001:00022ae1       __CxxThrowException@8      10023ae1 f   libvcruntime:throw.obj
 0001:00022b68       _malloc                    10023b68 f   libucrt:malloc.obj
 0001:00022b75       _free                      10023b75 f   libucrt:free.obj
 0001:00022b96       ??$?RPAU__crt_stdio_stream_data@@@__crt_internal_free_policy@@QBEXQBQAU__crt_stdio_stream_data@@@Z 10023b96 f i libucrt:_file.obj
 0001:00022bac       ??0?$__crt_unique_heap_ptr@PAU__crt_stdio_stream_data@@U__crt_internal_free_policy@@@@QAE@QAPAU__crt_stdio_stream_data@@@Z 10023bac f i libucrt:_file.obj
 0001:00022bc0       ??0__crt_stdio_stream@@QAE@QAU_iobuf@@@Z 10023bc0 f i libucrt:_file.obj
 0001:00022bd4       ??1?$__crt_unique_heap_ptr@PAU__crt_stdio_stream_data@@U__crt_internal_free_policy@@@@QAE@XZ 10023bd4 f i libucrt:_file.obj
 0001:00022bea       ??C__crt_stdio_stream@@QBEPAU__crt_stdio_stream_data@@XZ 10023bea f i libucrt:_file.obj
 0001:00022bed       ?detach@?$__crt_unique_heap_ptr@PAU__crt_stdio_stream_data@@U__crt_internal_free_policy@@@@QAEPAPAU__crt_stdio_stream_data@@XZ 10023bed f i libucrt:_file.obj
 0001:00022bf3       ?release@?$__crt_unique_heap_ptr@PAU__crt_stdio_stream_data@@U__crt_internal_free_policy@@@@QAEXXZ 10023bf3 f i libucrt:_file.obj
 0001:00022c09       ___acrt_initialize_stdio   10023c09 f   libucrt:_file.obj
 0001:00022d03       ___acrt_iob_func           10023d03 f   libucrt:_file.obj
 0001:00022d17       ___acrt_uninitialize_stdio 10023d17 f   libucrt:_file.obj
 0001:00022d76       __get_stream_buffer_pointers 10023d76 f   libucrt:_file.obj
 0001:00022dcd       __lock_file                10023dcd f   libucrt:_file.obj
 0001:00022de6       __unlock_file              10023de6 f   libucrt:_file.obj
 0001:00022dff       ??$?0ABV?$stream_output_adapter@D@__crt_stdio_output@@AB_KABQBDABQAU__crt_locale_pointers@@ABQAD@?$format_validation_base@DV?$stream_output_adapter@D@__crt_stdio_output@@@__crt_stdio_output@@IAE@ABV?$stream_output_adapter@D@1@AB_KABQBDABQAU__crt_locale_pointers@@ABQAD@Z 10023dff f i libucrt:output.obj
 0001:00022e2a       ??$?0ABV?$stream_output_adapter@D@__crt_stdio_output@@AB_KABQBDABQAU__crt_locale_pointers@@ABQAD@?$positional_parameter_base@DV?$stream_output_adapter@D@__crt_stdio_output@@@__crt_stdio_output@@IAE@ABV?$stream_output_adapter@D@1@AB_KABQBDABQAU__crt_locale_pointers@@ABQAD@Z 10023e2a f i libucrt:output.obj
 0001:00022e84       ??$?0ABV?$stream_output_adapter@D@__crt_stdio_output@@AB_KABQBDABQAU__crt_locale_pointers@@ABQAD@?$standard_base@DV?$stream_output_adapter@D@__crt_stdio_output@@@__crt_stdio_output@@IAE@ABV?$stream_output_adapter@D@1@AB_KABQBDABQAU__crt_locale_pointers@@ABQAD@Z 10023e84 f i libucrt:output.obj
 0001:00022ec6       ??$?0ABV?$stream_output_adapter@_W@__crt_stdio_output@@AB_KABQB_WABQAU__crt_locale_pointers@@ABQAD@?$format_validation_base@_WV?$stream_output_adapter@_W@__crt_stdio_output@@@__crt_stdio_output@@IAE@ABV?$stream_output_adapter@_W@1@AB_KABQB_WABQAU__crt_locale_pointers@@ABQAD@Z 10023ec6 f i libucrt:output.obj
 0001:00022ef1       ??$?0ABV?$stream_output_adapter@_W@__crt_stdio_output@@AB_KABQB_WABQAU__crt_locale_pointers@@ABQAD@?$positional_parameter_base@_WV?$stream_output_adapter@_W@__crt_stdio_output@@@__crt_stdio_output@@IAE@ABV?$stream_output_adapter@_W@1@AB_KABQB_WABQAU__crt_locale_pointers@@ABQAD@Z 10023ef1 f i libucrt:output.obj
 0001:00022f4b       ??$?0ABV?$stream_output_adapter@_W@__crt_stdio_output@@AB_KABQB_WABQAU__crt_locale_pointers@@ABQAD@?$standard_base@_WV?$stream_output_adapter@_W@__crt_stdio_output@@@__crt_stdio_output@@IAE@ABV?$stream_output_adapter@_W@1@AB_KABQB_WABQAU__crt_locale_pointers@@ABQAD@Z 10023f4b f i libucrt:output.obj
 0001:00022f8d       ??$?0ABV?$string_output_adapter@D@__crt_stdio_output@@AB_KABQBDABQAU__crt_locale_pointers@@ABQAD@?$format_validation_base@DV?$string_output_adapter@D@__crt_stdio_output@@@__crt_stdio_output@@IAE@ABV?$string_output_adapter@D@1@AB_KABQBDABQAU__crt_locale_pointers@@ABQAD@Z 10023f8d f i libucrt:output.obj
 0001:00022fb8       ??$?0ABV?$string_output_adapter@D@__crt_stdio_output@@AB_KABQBDABQAU__crt_locale_pointers@@ABQAD@?$positional_parameter_base@DV?$string_output_adapter@D@__crt_stdio_output@@@__crt_stdio_output@@IAE@ABV?$string_output_adapter@D@1@AB_KABQBDABQAU__crt_locale_pointers@@ABQAD@Z 10023fb8 f i libucrt:output.obj
 0001:00023012       ??$?0ABV?$string_output_adapter@D@__crt_stdio_output@@AB_KABQBDABQAU__crt_locale_pointers@@ABQAD@?$standard_base@DV?$string_output_adapter@D@__crt_stdio_output@@@__crt_stdio_output@@IAE@ABV?$string_output_adapter@D@1@AB_KABQBDABQAU__crt_locale_pointers@@ABQAD@Z 10024012 f i libucrt:output.obj
 0001:00023054       ??$?0ABV?$string_output_adapter@_W@__crt_stdio_output@@AB_KABQB_WABQAU__crt_locale_pointers@@ABQAD@?$format_validation_base@_WV?$string_output_adapter@_W@__crt_stdio_output@@@__crt_stdio_output@@IAE@ABV?$string_output_adapter@_W@1@AB_KABQB_WABQAU__crt_locale_pointers@@ABQAD@Z 10024054 f i libucrt:output.obj
 0001:0002307f       ??$?0ABV?$string_output_adapter@_W@__crt_stdio_output@@AB_KABQB_WABQAU__crt_locale_pointers@@ABQAD@?$positional_parameter_base@_WV?$string_output_adapter@_W@__crt_stdio_output@@@__crt_stdio_output@@IAE@ABV?$string_output_adapter@_W@1@AB_KABQB_WABQAU__crt_locale_pointers@@ABQAD@Z 1002407f f i libucrt:output.obj
 0001:000230d9       ??$?0ABV?$string_output_adapter@_W@__crt_stdio_output@@AB_KABQB_WABQAU__crt_locale_pointers@@ABQAD@?$standard_base@_WV?$string_output_adapter@_W@__crt_stdio_output@@@__crt_stdio_output@@IAE@ABV?$string_output_adapter@_W@1@AB_KABQB_WABQAU__crt_locale_pointers@@ABQAD@Z 100240d9 f i libucrt:output.obj
 0001:000234db       ??$__crt_interlocked_read@J@@YAJPDJ@Z 100244db f i libucrt:output.obj
 0001:0002471d       ??$count@D@formatting_buffer@__crt_stdio_output@@QBEIXZ 1002571d f i libucrt:output.obj
 0001:0002473b       ??$count@_W@formatting_buffer@__crt_stdio_output@@QBEIXZ 1002573b f i libucrt:output.obj
 0001:0002475a       ??$data@D@formatting_buffer@__crt_stdio_output@@QAEPADXZ 1002575a f i libucrt:output.obj
 0001:0002476a       ??$data@_W@formatting_buffer@__crt_stdio_output@@QAEPA_WXZ 1002576a f i libucrt:output.obj
 0001:0002477a       ??$ensure_buffer_is_big_enough@D@formatting_buffer@__crt_stdio_output@@QAE_NI@Z 1002577a f i libucrt:output.obj
 0001:00024816       ??$ensure_buffer_is_big_enough@_W@formatting_buffer@__crt_stdio_output@@QAE_NI@Z 10025816 f i libucrt:output.obj
 0001:000248b3       ??$extract_argument_from_va_list@C_J@?$positional_parameter_base@DV?$stream_output_adapter@D@__crt_stdio_output@@@__crt_stdio_output@@IAE_NAA_J@Z 100258b3 f i libucrt:output.obj
 0001:0002494a       ??$extract_argument_from_va_list@C_J@?$positional_parameter_base@DV?$string_output_adapter@D@__crt_stdio_output@@@__crt_stdio_output@@IAE_NAA_J@Z 1002594a f i libucrt:output.obj
 0001:000249e1       ??$extract_argument_from_va_list@C_J@?$positional_parameter_base@_WV?$stream_output_adapter@_W@__crt_stdio_output@@@__crt_stdio_output@@IAE_NAA_J@Z 100259e1 f i libucrt:output.obj
 0001:00024a78       ??$extract_argument_from_va_list@C_J@?$positional_parameter_base@_WV?$string_output_adapter@_W@__crt_stdio_output@@@__crt_stdio_output@@IAE_NAA_J@Z 10025a78 f i libucrt:output.obj
 0001:00024b0f       ??$extract_argument_from_va_list@C_J@?$standard_base@DV?$stream_output_adapter@D@__crt_stdio_output@@@__crt_stdio_output@@IAE_NAA_J@Z 10025b0f f i libucrt:output.obj
 0001:00024b35       ??$extract_argument_from_va_list@C_J@?$standard_base@DV?$string_output_adapter@D@__crt_stdio_output@@@__crt_stdio_output@@IAE_NAA_J@Z 10025b35 f i libucrt:output.obj
 0001:00024b5b       ??$extract_argument_from_va_list@C_J@?$standard_base@_WV?$stream_output_adapter@_W@__crt_stdio_output@@@__crt_stdio_output@@IAE_NAA_J@Z 10025b5b f i libucrt:output.obj
 0001:00024b81       ??$extract_argument_from_va_list@C_J@?$standard_base@_WV?$string_output_adapter@_W@__crt_stdio_output@@@__crt_stdio_output@@IAE_NAA_J@Z 10025b81 f i libucrt:output.obj
 0001:00024ba7       ??$extract_argument_from_va_list@E_J@?$positional_parameter_base@DV?$stream_output_adapter@D@__crt_stdio_output@@@__crt_stdio_output@@IAE_NAA_J@Z 10025ba7 f i libucrt:output.obj
 0001:00024c3e       ??$extract_argument_from_va_list@E_J@?$positional_parameter_base@DV?$string_output_adapter@D@__crt_stdio_output@@@__crt_stdio_output@@IAE_NAA_J@Z 10025c3e f i libucrt:output.obj
 0001:00024cd5       ??$extract_argument_from_va_list@E_J@?$positional_parameter_base@_WV?$stream_output_adapter@_W@__crt_stdio_output@@@__crt_stdio_output@@IAE_NAA_J@Z 10025cd5 f i libucrt:output.obj
 0001:00024d6c       ??$extract_argument_from_va_list@E_J@?$positional_parameter_base@_WV?$string_output_adapter@_W@__crt_stdio_output@@@__crt_stdio_output@@IAE_NAA_J@Z 10025d6c f i libucrt:output.obj
 0001:00024e03       ??$extract_argument_from_va_list@E_J@?$standard_base@DV?$stream_output_adapter@D@__crt_stdio_output@@@__crt_stdio_output@@IAE_NAA_J@Z 10025e03 f i libucrt:output.obj
 0001:00024e29       ??$extract_argument_from_va_list@E_J@?$standard_base@DV?$string_output_adapter@D@__crt_stdio_output@@@__crt_stdio_output@@IAE_NAA_J@Z 10025e29 f i libucrt:output.obj
 0001:00024e4f       ??$extract_argument_from_va_list@E_J@?$standard_base@_WV?$stream_output_adapter@_W@__crt_stdio_output@@@__crt_stdio_output@@IAE_NAA_J@Z 10025e4f f i libucrt:output.obj
 0001:00024e75       ??$extract_argument_from_va_list@E_J@?$standard_base@_WV?$string_output_adapter@_W@__crt_stdio_output@@@__crt_stdio_output@@IAE_NAA_J@Z 10025e75 f i libucrt:output.obj
 0001:00024e9b       ??$extract_argument_from_va_list@F_J@?$positional_parameter_base@DV?$stream_output_adapter@D@__crt_stdio_output@@@__crt_stdio_output@@IAE_NAA_J@Z 10025e9b f i libucrt:output.obj
 0001:00024f32       ??$extract_argument_from_va_list@F_J@?$positional_parameter_base@DV?$string_output_adapter@D@__crt_stdio_output@@@__crt_stdio_output@@IAE_NAA_J@Z 10025f32 f i libucrt:output.obj
 0001:00024fc9       ??$extract_argument_from_va_list@F_J@?$positional_parameter_base@_WV?$stream_output_adapter@_W@__crt_stdio_output@@@__crt_stdio_output@@IAE_NAA_J@Z 10025fc9 f i libucrt:output.obj
 0001:00025060       ??$extract_argument_from_va_list@F_J@?$positional_parameter_base@_WV?$string_output_adapter@_W@__crt_stdio_output@@@__crt_stdio_output@@IAE_NAA_J@Z 10026060 f i libucrt:output.obj
 0001:000250f7       ??$extract_argument_from_va_list@F_J@?$standard_base@DV?$stream_output_adapter@D@__crt_stdio_output@@@__crt_stdio_output@@IAE_NAA_J@Z 100260f7 f i libucrt:output.obj
 0001:0002511d       ??$extract_argument_from_va_list@F_J@?$standard_base@DV?$string_output_adapter@D@__crt_stdio_output@@@__crt_stdio_output@@IAE_NAA_J@Z 1002611d f i libucrt:output.obj
 0001:00025143       ??$extract_argument_from_va_list@F_J@?$standard_base@_WV?$stream_output_adapter@_W@__crt_stdio_output@@@__crt_stdio_output@@IAE_NAA_J@Z 10026143 f i libucrt:output.obj
 0001:00025169       ??$extract_argument_from_va_list@F_J@?$standard_base@_WV?$string_output_adapter@_W@__crt_stdio_output@@@__crt_stdio_output@@IAE_NAA_J@Z 10026169 f i libucrt:output.obj
 0001:0002518f       ??$extract_argument_from_va_list@GD@?$positional_parameter_base@DV?$stream_output_adapter@D@__crt_stdio_output@@@__crt_stdio_output@@IAE_NAAD@Z 1002618f f i libucrt:output.obj
 0001:00025225       ??$extract_argument_from_va_list@GD@?$positional_parameter_base@DV?$string_output_adapter@D@__crt_stdio_output@@@__crt_stdio_output@@IAE_NAAD@Z 10026225 f i libucrt:output.obj
 0001:000252bb       ??$extract_argument_from_va_list@GD@?$standard_base@DV?$stream_output_adapter@D@__crt_stdio_output@@@__crt_stdio_output@@IAE_NAAD@Z 100262bb f i libucrt:output.obj
 0001:000252db       ??$extract_argument_from_va_list@GD@?$standard_base@DV?$string_output_adapter@D@__crt_stdio_output@@@__crt_stdio_output@@IAE_NAAD@Z 100262db f i libucrt:output.obj
 0001:000252fb       ??$extract_argument_from_va_list@G_J@?$positional_parameter_base@DV?$stream_output_adapter@D@__crt_stdio_output@@@__crt_stdio_output@@IAE_NAA_J@Z 100262fb f i libucrt:output.obj
 0001:00025392       ??$extract_argument_from_va_list@G_J@?$positional_parameter_base@DV?$string_output_adapter@D@__crt_stdio_output@@@__crt_stdio_output@@IAE_NAA_J@Z 10026392 f i libucrt:output.obj
 0001:00025429       ??$extract_argument_from_va_list@G_J@?$positional_parameter_base@_WV?$stream_output_adapter@_W@__crt_stdio_output@@@__crt_stdio_output@@IAE_NAA_J@Z 10026429 f i libucrt:output.obj
 0001:000254c0       ??$extract_argument_from_va_list@G_J@?$positional_parameter_base@_WV?$string_output_adapter@_W@__crt_stdio_output@@@__crt_stdio_output@@IAE_NAA_J@Z 100264c0 f i libucrt:output.obj
 0001:00025557       ??$extract_argument_from_va_list@G_J@?$standard_base@DV?$stream_output_adapter@D@__crt_stdio_output@@@__crt_stdio_output@@IAE_NAA_J@Z 10026557 f i libucrt:output.obj
 0001:0002557d       ??$extract_argument_from_va_list@G_J@?$standard_base@DV?$string_output_adapter@D@__crt_stdio_output@@@__crt_stdio_output@@IAE_NAA_J@Z 1002657d f i libucrt:output.obj
 0001:000255a3       ??$extract_argument_from_va_list@G_J@?$standard_base@_WV?$stream_output_adapter@_W@__crt_stdio_output@@@__crt_stdio_output@@IAE_NAA_J@Z 100265a3 f i libucrt:output.obj
 0001:000255c9       ??$extract_argument_from_va_list@G_J@?$standard_base@_WV?$string_output_adapter@_W@__crt_stdio_output@@@__crt_stdio_output@@IAE_NAA_J@Z 100265c9 f i libucrt:output.obj
 0001:000255ef       ??$extract_argument_from_va_list@H_J@?$positional_parameter_base@DV?$stream_output_adapter@D@__crt_stdio_output@@@__crt_stdio_output@@IAE_NAA_J@Z 100265ef f i libucrt:output.obj
 0001:00025683       ??$extract_argument_from_va_list@H_J@?$positional_parameter_base@DV?$string_output_adapter@D@__crt_stdio_output@@@__crt_stdio_output@@IAE_NAA_J@Z 10026683 f i libucrt:output.obj
 0001:00025717       ??$extract_argument_from_va_list@H_J@?$positional_parameter_base@_WV?$stream_output_adapter@_W@__crt_stdio_output@@@__crt_stdio_output@@IAE_NAA_J@Z 10026717 f i libucrt:output.obj
 0001:000257ab       ??$extract_argument_from_va_list@H_J@?$positional_parameter_base@_WV?$string_output_adapter@_W@__crt_stdio_output@@@__crt_stdio_output@@IAE_NAA_J@Z 100267ab f i libucrt:output.obj
 0001:0002583f       ??$extract_argument_from_va_list@H_J@?$standard_base@DV?$stream_output_adapter@D@__crt_stdio_output@@@__crt_stdio_output@@IAE_NAA_J@Z 1002683f f i libucrt:output.obj
 0001:00025864       ??$extract_argument_from_va_list@H_J@?$standard_base@DV?$string_output_adapter@D@__crt_stdio_output@@@__crt_stdio_output@@IAE_NAA_J@Z 10026864 f i libucrt:output.obj
 0001:00025889       ??$extract_argument_from_va_list@H_J@?$standard_base@_WV?$stream_output_adapter@_W@__crt_stdio_output@@@__crt_stdio_output@@IAE_NAA_J@Z 10026889 f i libucrt:output.obj
 0001:000258ae       ??$extract_argument_from_va_list@H_J@?$standard_base@_WV?$string_output_adapter@_W@__crt_stdio_output@@@__crt_stdio_output@@IAE_NAA_J@Z 100268ae f i libucrt:output.obj
 0001:000258d3       ??$extract_argument_from_va_list@I_J@?$positional_parameter_base@DV?$stream_output_adapter@D@__crt_stdio_output@@@__crt_stdio_output@@IAE_NAA_J@Z 100268d3 f i libucrt:output.obj
 0001:00025973       ??$extract_argument_from_va_list@I_J@?$positional_parameter_base@DV?$string_output_adapter@D@__crt_stdio_output@@@__crt_stdio_output@@IAE_NAA_J@Z 10026973 f i libucrt:output.obj
 0001:00025a13       ??$extract_argument_from_va_list@I_J@?$positional_parameter_base@_WV?$stream_output_adapter@_W@__crt_stdio_output@@@__crt_stdio_output@@IAE_NAA_J@Z 10026a13 f i libucrt:output.obj
 0001:00025ab3       ??$extract_argument_from_va_list@I_J@?$positional_parameter_base@_WV?$string_output_adapter@_W@__crt_stdio_output@@@__crt_stdio_output@@IAE_NAA_J@Z 10026ab3 f i libucrt:output.obj
 0001:00025b53       ??$extract_argument_from_va_list@I_J@?$standard_base@DV?$stream_output_adapter@D@__crt_stdio_output@@@__crt_stdio_output@@IAE_NAA_J@Z 10026b53 f i libucrt:output.obj
 0001:00025b78       ??$extract_argument_from_va_list@I_J@?$standard_base@DV?$string_output_adapter@D@__crt_stdio_output@@@__crt_stdio_output@@IAE_NAA_J@Z 10026b78 f i libucrt:output.obj
 0001:00025b9d       ??$extract_argument_from_va_list@I_J@?$standard_base@_WV?$stream_output_adapter@_W@__crt_stdio_output@@@__crt_stdio_output@@IAE_NAA_J@Z 10026b9d f i libucrt:output.obj
 0001:00025bc2       ??$extract_argument_from_va_list@I_J@?$standard_base@_WV?$string_output_adapter@_W@__crt_stdio_output@@@__crt_stdio_output@@IAE_NAA_J@Z 10026bc2 f i libucrt:output.obj
 0001:00025be7       ??$extract_argument_from_va_list@PADPAD@?$positional_parameter_base@DV?$stream_output_adapter@D@__crt_stdio_output@@@__crt_stdio_output@@IAE_NAAPAD@Z 10026be7 f i libucrt:output.obj
 0001:00025c7d       ??$extract_argument_from_va_list@PADPAD@?$positional_parameter_base@DV?$string_output_adapter@D@__crt_stdio_output@@@__crt_stdio_output@@IAE_NAAPAD@Z 10026c7d f i libucrt:output.obj
 0001:00025d13       ??$extract_argument_from_va_list@PADPAD@?$positional_parameter_base@_WV?$stream_output_adapter@_W@__crt_stdio_output@@@__crt_stdio_output@@IAE_NAAPAD@Z 10026d13 f i libucrt:output.obj
 0001:00025da9       ??$extract_argument_from_va_list@PADPAD@?$positional_parameter_base@_WV?$string_output_adapter@_W@__crt_stdio_output@@@__crt_stdio_output@@IAE_NAAPAD@Z 10026da9 f i libucrt:output.obj
 0001:00025e3f       ??$extract_argument_from_va_list@PADPAD@?$standard_base@DV?$stream_output_adapter@D@__crt_stdio_output@@@__crt_stdio_output@@IAE_NAAPAD@Z 10026e3f f i libucrt:output.obj
 0001:00025e5f       ??$extract_argument_from_va_list@PADPAD@?$standard_base@DV?$string_output_adapter@D@__crt_stdio_output@@@__crt_stdio_output@@IAE_NAAPAD@Z 10026e5f f i libucrt:output.obj
 0001:00025e7f       ??$extract_argument_from_va_list@PADPAD@?$standard_base@_WV?$stream_output_adapter@_W@__crt_stdio_output@@@__crt_stdio_output@@IAE_NAAPAD@Z 10026e7f f i libucrt:output.obj
 0001:00025e9f       ??$extract_argument_from_va_list@PADPAD@?$standard_base@_WV?$string_output_adapter@_W@__crt_stdio_output@@@__crt_stdio_output@@IAE_NAAPAD@Z 10026e9f f i libucrt:output.obj
 0001:00026297       ??$extract_argument_from_va_list@PAXPAX@?$positional_parameter_base@DV?$stream_output_adapter@D@__crt_stdio_output@@@__crt_stdio_output@@IAE_NAAPAX@Z 10027297 f i libucrt:output.obj
 0001:0002632d       ??$extract_argument_from_va_list@PAXPAX@?$positional_parameter_base@DV?$string_output_adapter@D@__crt_stdio_output@@@__crt_stdio_output@@IAE_NAAPAX@Z 1002732d f i libucrt:output.obj
 0001:000263c3       ??$extract_argument_from_va_list@PAXPAX@?$positional_parameter_base@_WV?$stream_output_adapter@_W@__crt_stdio_output@@@__crt_stdio_output@@IAE_NAAPAX@Z 100273c3 f i libucrt:output.obj
 0001:00026459       ??$extract_argument_from_va_list@PAXPAX@?$positional_parameter_base@_WV?$string_output_adapter@_W@__crt_stdio_output@@@__crt_stdio_output@@IAE_NAAPAX@Z 10027459 f i libucrt:output.obj
 0001:000264ef       ??$extract_argument_from_va_list@PAXPAX@?$standard_base@DV?$stream_output_adapter@D@__crt_stdio_output@@@__crt_stdio_output@@IAE_NAAPAX@Z 100274ef f i libucrt:output.obj
 0001:0002650f       ??$extract_argument_from_va_list@PAXPAX@?$standard_base@DV?$string_output_adapter@D@__crt_stdio_output@@@__crt_stdio_output@@IAE_NAAPAX@Z 1002750f f i libucrt:output.obj
 0001:0002652f       ??$extract_argument_from_va_list@PAXPAX@?$standard_base@_WV?$stream_output_adapter@_W@__crt_stdio_output@@@__crt_stdio_output@@IAE_NAAPAX@Z 1002752f f i libucrt:output.obj
 0001:0002654f       ??$extract_argument_from_va_list@PAXPAX@?$standard_base@_WV?$string_output_adapter@_W@__crt_stdio_output@@@__crt_stdio_output@@IAE_NAAPAX@Z 1002754f f i libucrt:output.obj
 0001:0002656f       ??$extract_argument_from_va_list@U_CRT_DOUBLE@@U1@@?$positional_parameter_base@DV?$stream_output_adapter@D@__crt_stdio_output@@@__crt_stdio_output@@IAE_NAAU_CRT_DOUBLE@@@Z 1002756f f i libucrt:output.obj
 0001:00026616       ??$extract_argument_from_va_list@U_CRT_DOUBLE@@U1@@?$positional_parameter_base@DV?$string_output_adapter@D@__crt_stdio_output@@@__crt_stdio_output@@IAE_NAAU_CRT_DOUBLE@@@Z 10027616 f i libucrt:output.obj
 0001:000266bd       ??$extract_argument_from_va_list@U_CRT_DOUBLE@@U1@@?$positional_parameter_base@_WV?$stream_output_adapter@_W@__crt_stdio_output@@@__crt_stdio_output@@IAE_NAAU_CRT_DOUBLE@@@Z 100276bd f i libucrt:output.obj
 0001:00026764       ??$extract_argument_from_va_list@U_CRT_DOUBLE@@U1@@?$positional_parameter_base@_WV?$string_output_adapter@_W@__crt_stdio_output@@@__crt_stdio_output@@IAE_NAAU_CRT_DOUBLE@@@Z 10027764 f i libucrt:output.obj
 0001:0002680b       ??$extract_argument_from_va_list@U_CRT_DOUBLE@@U1@@?$standard_base@DV?$stream_output_adapter@D@__crt_stdio_output@@@__crt_stdio_output@@IAE_NAAU_CRT_DOUBLE@@@Z 1002780b f i libucrt:output.obj
 0001:00026833       ??$extract_argument_from_va_list@U_CRT_DOUBLE@@U1@@?$standard_base@DV?$string_output_adapter@D@__crt_stdio_output@@@__crt_stdio_output@@IAE_NAAU_CRT_DOUBLE@@@Z 10027833 f i libucrt:output.obj
 0001:0002685b       ??$extract_argument_from_va_list@U_CRT_DOUBLE@@U1@@?$standard_base@_WV?$stream_output_adapter@_W@__crt_stdio_output@@@__crt_stdio_output@@IAE_NAAU_CRT_DOUBLE@@@Z 1002785b f i libucrt:output.obj
 0001:00026883       ??$extract_argument_from_va_list@U_CRT_DOUBLE@@U1@@?$standard_base@_WV?$string_output_adapter@_W@__crt_stdio_output@@@__crt_stdio_output@@IAE_NAAU_CRT_DOUBLE@@@Z 10027883 f i libucrt:output.obj
 0001:000268ab       ??$extract_argument_from_va_list@_J_J@?$positional_parameter_base@DV?$stream_output_adapter@D@__crt_stdio_output@@@__crt_stdio_output@@IAE_NAA_J@Z 100278ab f i libucrt:output.obj
 0001:00026952       ??$extract_argument_from_va_list@_J_J@?$positional_parameter_base@DV?$string_output_adapter@D@__crt_stdio_output@@@__crt_stdio_output@@IAE_NAA_J@Z 10027952 f i libucrt:output.obj
 0001:000269f9       ??$extract_argument_from_va_list@_J_J@?$positional_parameter_base@_WV?$stream_output_adapter@_W@__crt_stdio_output@@@__crt_stdio_output@@IAE_NAA_J@Z 100279f9 f i libucrt:output.obj
 0001:00026aa0       ??$extract_argument_from_va_list@_J_J@?$positional_parameter_base@_WV?$string_output_adapter@_W@__crt_stdio_output@@@__crt_stdio_output@@IAE_NAA_J@Z 10027aa0 f i libucrt:output.obj
 0001:00026b47       ??$extract_argument_from_va_list@_J_J@?$standard_base@DV?$stream_output_adapter@D@__crt_stdio_output@@@__crt_stdio_output@@IAE_NAA_J@Z 10027b47 f i libucrt:output.obj
 0001:00026b6f       ??$extract_argument_from_va_list@_J_J@?$standard_base@DV?$string_output_adapter@D@__crt_stdio_output@@@__crt_stdio_output@@IAE_NAA_J@Z 10027b6f f i libucrt:output.obj
 0001:00026b97       ??$extract_argument_from_va_list@_J_J@?$standard_base@_WV?$stream_output_adapter@_W@__crt_stdio_output@@@__crt_stdio_output@@IAE_NAA_J@Z 10027b97 f i libucrt:output.obj
 0001:00026bbf       ??$extract_argument_from_va_list@_J_J@?$standard_base@_WV?$string_output_adapter@_W@__crt_stdio_output@@@__crt_stdio_output@@IAE_NAA_J@Z 10027bbf f i libucrt:output.obj
 0001:00026be7       ??$extract_argument_from_va_list@_K_J@?$positional_parameter_base@DV?$stream_output_adapter@D@__crt_stdio_output@@@__crt_stdio_output@@IAE_NAA_J@Z 10027be7 f i libucrt:output.obj
 0001:00026c8e       ??$extract_argument_from_va_list@_K_J@?$positional_parameter_base@DV?$string_output_adapter@D@__crt_stdio_output@@@__crt_stdio_output@@IAE_NAA_J@Z 10027c8e f i libucrt:output.obj
 0001:00026d35       ??$extract_argument_from_va_list@_K_J@?$positional_parameter_base@_WV?$stream_output_adapter@_W@__crt_stdio_output@@@__crt_stdio_output@@IAE_NAA_J@Z 10027d35 f i libucrt:output.obj
 0001:00026ddc       ??$extract_argument_from_va_list@_K_J@?$positional_parameter_base@_WV?$string_output_adapter@_W@__crt_stdio_output@@@__crt_stdio_output@@IAE_NAA_J@Z 10027ddc f i libucrt:output.obj
 0001:00026e83       ??$extract_argument_from_va_list@_K_J@?$standard_base@DV?$stream_output_adapter@D@__crt_stdio_output@@@__crt_stdio_output@@IAE_NAA_J@Z 10027e83 f i libucrt:output.obj
 0001:00026eab       ??$extract_argument_from_va_list@_K_J@?$standard_base@DV?$string_output_adapter@D@__crt_stdio_output@@@__crt_stdio_output@@IAE_NAA_J@Z 10027eab f i libucrt:output.obj
 0001:00026ed3       ??$extract_argument_from_va_list@_K_J@?$standard_base@_WV?$stream_output_adapter@_W@__crt_stdio_output@@@__crt_stdio_output@@IAE_NAA_J@Z 10027ed3 f i libucrt:output.obj
 0001:00026efb       ??$extract_argument_from_va_list@_K_J@?$standard_base@_WV?$string_output_adapter@_W@__crt_stdio_output@@@__crt_stdio_output@@IAE_NAA_J@Z 10027efb f i libucrt:output.obj
 0001:00026f23       ??$extract_argument_from_va_list@_W_W@?$positional_parameter_base@DV?$stream_output_adapter@D@__crt_stdio_output@@@__crt_stdio_output@@IAE_NAA_W@Z 10027f23 f i libucrt:output.obj
 0001:00026fbe       ??$extract_argument_from_va_list@_W_W@?$positional_parameter_base@DV?$string_output_adapter@D@__crt_stdio_output@@@__crt_stdio_output@@IAE_NAA_W@Z 10027fbe f i libucrt:output.obj
 0001:00027059       ??$extract_argument_from_va_list@_W_W@?$positional_parameter_base@_WV?$stream_output_adapter@_W@__crt_stdio_output@@@__crt_stdio_output@@IAE_NAA_W@Z 10028059 f i libucrt:output.obj
 0001:000270f4       ??$extract_argument_from_va_list@_W_W@?$positional_parameter_base@_WV?$string_output_adapter@_W@__crt_stdio_output@@@__crt_stdio_output@@IAE_NAA_W@Z 100280f4 f i libucrt:output.obj
 0001:0002718f       ??$extract_argument_from_va_list@_W_W@?$standard_base@DV?$stream_output_adapter@D@__crt_stdio_output@@@__crt_stdio_output@@IAE_NAA_W@Z 1002818f f i libucrt:output.obj
 0001:000271b2       ??$extract_argument_from_va_list@_W_W@?$standard_base@DV?$string_output_adapter@D@__crt_stdio_output@@@__crt_stdio_output@@IAE_NAA_W@Z 100281b2 f i libucrt:output.obj
 0001:000271d5       ??$extract_argument_from_va_list@_W_W@?$standard_base@_WV?$stream_output_adapter@_W@__crt_stdio_output@@@__crt_stdio_output@@IAE_NAA_W@Z 100281d5 f i libucrt:output.obj
 0001:000271f8       ??$extract_argument_from_va_list@_W_W@?$standard_base@_WV?$string_output_adapter@_W@__crt_stdio_output@@@__crt_stdio_output@@IAE_NAA_W@Z 100281f8 f i libucrt:output.obj
 0001:0002721b       ??$get_parameter_type@D@?$positional_parameter_base@DV?$stream_output_adapter@D@__crt_stdio_output@@@__crt_stdio_output@@CA?AW4parameter_type@01@PAD@Z 1002821b f i libucrt:output.obj
 0001:0002721f       ??$get_parameter_type@D@?$positional_parameter_base@DV?$string_output_adapter@D@__crt_stdio_output@@@__crt_stdio_output@@CA?AW4parameter_type@01@PAD@Z 1002821f f i libucrt:output.obj
 0001:00027223       ??$get_parameter_type@D@?$positional_parameter_base@_WV?$stream_output_adapter@_W@__crt_stdio_output@@@__crt_stdio_output@@CA?AW4parameter_type@01@PAD@Z 10028223 f i libucrt:output.obj
 0001:00027227       ??$get_parameter_type@D@?$positional_parameter_base@_WV?$string_output_adapter@_W@__crt_stdio_output@@@__crt_stdio_output@@CA?AW4parameter_type@01@PAD@Z 10028227 f i libucrt:output.obj
 0001:0002723b       ??$get_parameter_type@X@?$positional_parameter_base@DV?$stream_output_adapter@D@__crt_stdio_output@@@__crt_stdio_output@@CA?AW4parameter_type@01@PAX@Z 1002823b f i libucrt:output.obj
 0001:0002723f       ??$get_parameter_type@X@?$positional_parameter_base@DV?$string_output_adapter@D@__crt_stdio_output@@@__crt_stdio_output@@CA?AW4parameter_type@01@PAX@Z 1002823f f i libucrt:output.obj
 0001:00027243       ??$get_parameter_type@X@?$positional_parameter_base@_WV?$stream_output_adapter@_W@__crt_stdio_output@@@__crt_stdio_output@@CA?AW4parameter_type@01@PAX@Z 10028243 f i libucrt:output.obj
 0001:00027247       ??$get_parameter_type@X@?$positional_parameter_base@_WV?$string_output_adapter@_W@__crt_stdio_output@@@__crt_stdio_output@@CA?AW4parameter_type@01@PAX@Z 10028247 f i libucrt:output.obj
 0001:0002724b       ??$is_character_specifier@D@?$positional_parameter_base@DV?$stream_output_adapter@D@__crt_stdio_output@@@__crt_stdio_output@@CA_ND@Z 1002824b f i libucrt:output.obj
 0001:00027269       ??$is_character_specifier@D@?$positional_parameter_base@DV?$string_output_adapter@D@__crt_stdio_output@@@__crt_stdio_output@@CA_ND@Z 10028269 f i libucrt:output.obj
 0001:00027287       ??$is_character_specifier@_W@?$positional_parameter_base@_WV?$stream_output_adapter@_W@__crt_stdio_output@@@__crt_stdio_output@@CA_N_W@Z 10028287 f i libucrt:output.obj
 0001:000272a8       ??$is_character_specifier@_W@?$positional_parameter_base@_WV?$string_output_adapter@_W@__crt_stdio_output@@@__crt_stdio_output@@CA_N_W@Z 100282a8 f i libucrt:output.obj
 0001:000272c9       ??$is_integral_specifier@D@?$positional_parameter_base@DV?$stream_output_adapter@D@__crt_stdio_output@@@__crt_stdio_output@@CA_ND@Z 100282c9 f i libucrt:output.obj
 0001:00027300       ??$is_integral_specifier@D@?$positional_parameter_base@DV?$string_output_adapter@D@__crt_stdio_output@@@__crt_stdio_output@@CA_ND@Z 10028300 f i libucrt:output.obj
 0001:00027337       ??$is_integral_specifier@_W@?$positional_parameter_base@_WV?$stream_output_adapter@_W@__crt_stdio_output@@@__crt_stdio_output@@CA_N_W@Z 10028337 f i libucrt:output.obj
 0001:00027380       ??$is_integral_specifier@_W@?$positional_parameter_base@_WV?$string_output_adapter@_W@__crt_stdio_output@@@__crt_stdio_output@@CA_N_W@Z 10028380 f i libucrt:output.obj
 0001:000273c9       ??$is_pointer_specifier@D@?$positional_parameter_base@DV?$stream_output_adapter@D@__crt_stdio_output@@@__crt_stdio_output@@CA_ND@Z 100283c9 f i libucrt:output.obj
 0001:000273da       ??$is_pointer_specifier@D@?$positional_parameter_base@DV?$string_output_adapter@D@__crt_stdio_output@@@__crt_stdio_output@@CA_ND@Z 100283da f i libucrt:output.obj
 0001:000273eb       ??$is_pointer_specifier@_W@?$positional_parameter_base@_WV?$stream_output_adapter@_W@__crt_stdio_output@@@__crt_stdio_output@@CA_N_W@Z 100283eb f i libucrt:output.obj
 0001:000273fd       ??$is_pointer_specifier@_W@?$positional_parameter_base@_WV?$string_output_adapter@_W@__crt_stdio_output@@@__crt_stdio_output@@CA_N_W@Z 100283fd f i libucrt:output.obj
 0001:0002740f       ??$is_string_specifier@D@?$positional_parameter_base@DV?$stream_output_adapter@D@__crt_stdio_output@@@__crt_stdio_output@@CA_ND@Z 1002840f f i libucrt:output.obj
 0001:0002742d       ??$is_string_specifier@D@?$positional_parameter_base@DV?$string_output_adapter@D@__crt_stdio_output@@@__crt_stdio_output@@CA_ND@Z 1002842d f i libucrt:output.obj
 0001:0002744b       ??$is_string_specifier@_W@?$positional_parameter_base@_WV?$stream_output_adapter@_W@__crt_stdio_output@@@__crt_stdio_output@@CA_N_W@Z 1002844b f i libucrt:output.obj
 0001:0002746c       ??$is_string_specifier@_W@?$positional_parameter_base@_WV?$string_output_adapter@_W@__crt_stdio_output@@@__crt_stdio_output@@CA_N_W@Z 1002846c f i libucrt:output.obj
 0001:0002748d       ??$is_wide_character_specifier@D@__crt_stdio_output@@YA_N_KDW4length_modifier@0@@Z 1002848d f i libucrt:output.obj
 0001:000274ca       ??$is_wide_character_specifier@_W@__crt_stdio_output@@YA_N_K_WW4length_modifier@0@@Z 100284ca f i libucrt:output.obj
 0001:0002752b       ??$peek_va_arg@C@__crt_stdio_output@@YACPAD@Z 1002852b f i libucrt:output.obj
 0001:0002753a       ??$peek_va_arg@E@__crt_stdio_output@@YAEPAD@Z 1002853a f i libucrt:output.obj
 0001:00027549       ??$peek_va_arg@F@__crt_stdio_output@@YAFPAD@Z 10028549 f i libucrt:output.obj
 0001:00027559       ??$peek_va_arg@G@__crt_stdio_output@@YAGPAD@Z 10028559 f i libucrt:output.obj
 0001:00027569       ??$peek_va_arg@H@__crt_stdio_output@@YAHPAD@Z 10028569 f i libucrt:output.obj
 0001:00027578       ??$peek_va_arg@I@__crt_stdio_output@@YAIPAD@Z 10028578 f i libucrt:output.obj
 0001:00027587       ??$peek_va_arg@PAD@__crt_stdio_output@@YAPADPAD@Z 10028587 f i libucrt:output.obj
 0001:000275d2       ??$peek_va_arg@PAX@__crt_stdio_output@@YAPAXPAD@Z 100285d2 f i libucrt:output.obj
 0001:000275e1       ??$peek_va_arg@U_CRT_DOUBLE@@@__crt_stdio_output@@YA?AU_CRT_DOUBLE@@PAD@Z 100285e1 f i libucrt:output.obj
 0001:000275f3       ??$peek_va_arg@_J@__crt_stdio_output@@YA_JPAD@Z 100285f3 f i libucrt:output.obj
 0001:00027605       ??$peek_va_arg@_K@__crt_stdio_output@@YA_KPAD@Z 10028605 f i libucrt:output.obj
 0001:00027617       ??$peek_va_arg@_W@__crt_stdio_output@@YA_WPAD@Z 10028617 f i libucrt:output.obj
 0001:00027627       ??$puttc_nolock@ABDPAU_iobuf@@@?$__crt_char_traits@D@@SAHABD$$QAPAU_iobuf@@@Z 10028627 f i libucrt:output.obj
 0001:00027647       ??$puttc_nolock@AB_WPAU_iobuf@@@?$__crt_char_traits@_W@@SAGAB_W$$QAPAU_iobuf@@@Z 10028647 f i libucrt:output.obj
 0001:00027667       ??$read_va_arg@C@__crt_stdio_output@@YACAAPAD@Z 10028667 f i libucrt:output.obj
 0001:0002767d       ??$read_va_arg@E@__crt_stdio_output@@YAEAAPAD@Z 1002867d f i libucrt:output.obj
 0001:00027693       ??$read_va_arg@F@__crt_stdio_output@@YAFAAPAD@Z 10028693 f i libucrt:output.obj
 0001:000276aa       ??$read_va_arg@G@__crt_stdio_output@@YAGAAPAD@Z 100286aa f i libucrt:output.obj
 0001:000276c1       ??$read_va_arg@H@__crt_stdio_output@@YAHAAPAD@Z 100286c1 f i libucrt:output.obj
 0001:000276d7       ??$read_va_arg@I@__crt_stdio_output@@YAIAAPAD@Z 100286d7 f i libucrt:output.obj
 0001:000276ed       ??$read_va_arg@PAD@__crt_stdio_output@@YAPADAAPAD@Z 100286ed f i libucrt:output.obj
 0001:0002780b       ??$read_va_arg@PAX@__crt_stdio_output@@YAPAXAAPAD@Z 1002880b f i libucrt:output.obj
 0001:00027821       ??$read_va_arg@U_CRT_DOUBLE@@@__crt_stdio_output@@YA?AU_CRT_DOUBLE@@AAPAD@Z 10028821 f i libucrt:output.obj
 0001:0002783c       ??$read_va_arg@_J@__crt_stdio_output@@YA_JAAPAD@Z 1002883c f i libucrt:output.obj
 0001:00027856       ??$read_va_arg@_K@__crt_stdio_output@@YA_KAAPAD@Z 10028856 f i libucrt:output.obj
 0001:00027870       ??$read_va_arg@_W@__crt_stdio_output@@YA_WAAPAD@Z 10028870 f i libucrt:output.obj
 0001:00027887       ??$scratch_count@D@formatting_buffer@__crt_stdio_output@@QBEIXZ 10028887 f i libucrt:output.obj
 0001:0002788c       ??$scratch_data@D@formatting_buffer@__crt_stdio_output@@QAEPADXZ 1002888c f i libucrt:output.obj
 0001:000278b1       ??$tcstol@AAPBDPAPADH@?$__crt_char_traits@D@@SAJAAPBD$$QAPAPAD$$QAH@Z 100288b1 f i libucrt:output.obj
 0001:000278d6       ??$tcstol@AAPB_WPAPA_WH@?$__crt_char_traits@_W@@SAJAAPB_W$$QAPAPA_W$$QAH@Z 100288d6 f i libucrt:output.obj
 0001:000278fb       ??$tcstol@PBDPAPADH@?$__crt_char_traits@D@@SAJ$$QAPBD$$QAPAPAD$$QAH@Z 100288fb f i libucrt:output.obj
 0001:00027920       ??$tcstol@PB_WPAPA_WH@?$__crt_char_traits@_W@@SAJ$$QAPB_W$$QAPAPA_W$$QAH@Z 10028920 f i libucrt:output.obj
 0001:00027945       ??$type_case_integer_parse_into_buffer@I@?$output_processor@DV?$stream_output_adapter@D@__crt_stdio_output@@V?$format_validation_base@DV?$stream_output_adapter@D@__crt_stdio_output@@@2@@__crt_stdio_output@@AAEXII_N@Z 10028945 f i libucrt:output.obj
 0001:000279d4       ??$type_case_integer_parse_into_buffer@I@?$output_processor@DV?$stream_output_adapter@D@__crt_stdio_output@@V?$positional_parameter_base@DV?$stream_output_adapter@D@__crt_stdio_output@@@2@@__crt_stdio_output@@AAEXII_N@Z 100289d4 f i libucrt:output.obj
 0001:00027a63       ??$type_case_integer_parse_into_buffer@I@?$output_processor@DV?$stream_output_adapter@D@__crt_stdio_output@@V?$standard_base@DV?$stream_output_adapter@D@__crt_stdio_output@@@2@@__crt_stdio_output@@AAEXII_N@Z 10028a63 f i libucrt:output.obj
 0001:00027af2       ??$type_case_integer_parse_into_buffer@I@?$output_processor@DV?$string_output_adapter@D@__crt_stdio_output@@V?$format_validation_base@DV?$string_output_adapter@D@__crt_stdio_output@@@2@@__crt_stdio_output@@AAEXII_N@Z 10028af2 f i libucrt:output.obj
 0001:00027b81       ??$type_case_integer_parse_into_buffer@I@?$output_processor@DV?$string_output_adapter@D@__crt_stdio_output@@V?$positional_parameter_base@DV?$string_output_adapter@D@__crt_stdio_output@@@2@@__crt_stdio_output@@AAEXII_N@Z 10028b81 f i libucrt:output.obj
 0001:00027c10       ??$type_case_integer_parse_into_buffer@I@?$output_processor@DV?$string_output_adapter@D@__crt_stdio_output@@V?$standard_base@DV?$string_output_adapter@D@__crt_stdio_output@@@2@@__crt_stdio_output@@AAEXII_N@Z 10028c10 f i libucrt:output.obj
 0001:00027c9f       ??$type_case_integer_parse_into_buffer@I@?$output_processor@_WV?$stream_output_adapter@_W@__crt_stdio_output@@V?$format_validation_base@_WV?$stream_output_adapter@_W@__crt_stdio_output@@@2@@__crt_stdio_output@@AAEXII_N@Z 10028c9f f i libucrt:output.obj
 0001:00027d47       ??$type_case_integer_parse_into_buffer@I@?$output_processor@_WV?$stream_output_adapter@_W@__crt_stdio_output@@V?$positional_parameter_base@_WV?$stream_output_adapter@_W@__crt_stdio_output@@@2@@__crt_stdio_output@@AAEXII_N@Z 10028d47 f i libucrt:output.obj
 0001:00027def       ??$type_case_integer_parse_into_buffer@I@?$output_processor@_WV?$stream_output_adapter@_W@__crt_stdio_output@@V?$standard_base@_WV?$stream_output_adapter@_W@__crt_stdio_output@@@2@@__crt_stdio_output@@AAEXII_N@Z 10028def f i libucrt:output.obj
 0001:00027e97       ??$type_case_integer_parse_into_buffer@I@?$output_processor@_WV?$string_output_adapter@_W@__crt_stdio_output@@V?$format_validation_base@_WV?$string_output_adapter@_W@__crt_stdio_output@@@2@@__crt_stdio_output@@AAEXII_N@Z 10028e97 f i libucrt:output.obj
 0001:00027f3f       ??$type_case_integer_parse_into_buffer@I@?$output_processor@_WV?$string_output_adapter@_W@__crt_stdio_output@@V?$positional_parameter_base@_WV?$string_output_adapter@_W@__crt_stdio_output@@@2@@__crt_stdio_output@@AAEXII_N@Z 10028f3f f i libucrt:output.obj
 0001:00027fe7       ??$type_case_integer_parse_into_buffer@I@?$output_processor@_WV?$string_output_adapter@_W@__crt_stdio_output@@V?$standard_base@_WV?$string_output_adapter@_W@__crt_stdio_output@@@2@@__crt_stdio_output@@AAEXII_N@Z 10028fe7 f i libucrt:output.obj
 0001:0002808f       ??$type_case_integer_parse_into_buffer@_K@?$output_processor@DV?$stream_output_adapter@D@__crt_stdio_output@@V?$format_validation_base@DV?$stream_output_adapter@D@__crt_stdio_output@@@2@@__crt_stdio_output@@AAEX_KI_N@Z 1002908f f i libucrt:output.obj
 0001:00028140       ??$type_case_integer_parse_into_buffer@_K@?$output_processor@DV?$stream_output_adapter@D@__crt_stdio_output@@V?$positional_parameter_base@DV?$stream_output_adapter@D@__crt_stdio_output@@@2@@__crt_stdio_output@@AAEX_KI_N@Z 10029140 f i libucrt:output.obj
 0001:000281f1       ??$type_case_integer_parse_into_buffer@_K@?$output_processor@DV?$stream_output_adapter@D@__crt_stdio_output@@V?$standard_base@DV?$stream_output_adapter@D@__crt_stdio_output@@@2@@__crt_stdio_output@@AAEX_KI_N@Z 100291f1 f i libucrt:output.obj
 0001:000282a2       ??$type_case_integer_parse_into_buffer@_K@?$output_processor@DV?$string_output_adapter@D@__crt_stdio_output@@V?$format_validation_base@DV?$string_output_adapter@D@__crt_stdio_output@@@2@@__crt_stdio_output@@AAEX_KI_N@Z 100292a2 f i libucrt:output.obj
 0001:00028353       ??$type_case_integer_parse_into_buffer@_K@?$output_processor@DV?$string_output_adapter@D@__crt_stdio_output@@V?$positional_parameter_base@DV?$string_output_adapter@D@__crt_stdio_output@@@2@@__crt_stdio_output@@AAEX_KI_N@Z 10029353 f i libucrt:output.obj
 0001:00028404       ??$type_case_integer_parse_into_buffer@_K@?$output_processor@DV?$string_output_adapter@D@__crt_stdio_output@@V?$standard_base@DV?$string_output_adapter@D@__crt_stdio_output@@@2@@__crt_stdio_output@@AAEX_KI_N@Z 10029404 f i libucrt:output.obj
 0001:000284b5       ??$type_case_integer_parse_into_buffer@_K@?$output_processor@_WV?$stream_output_adapter@_W@__crt_stdio_output@@V?$format_validation_base@_WV?$stream_output_adapter@_W@__crt_stdio_output@@@2@@__crt_stdio_output@@AAEX_KI_N@Z 100294b5 f i libucrt:output.obj
 0001:0002857f       ??$type_case_integer_parse_into_buffer@_K@?$output_processor@_WV?$stream_output_adapter@_W@__crt_stdio_output@@V?$positional_parameter_base@_WV?$stream_output_adapter@_W@__crt_stdio_output@@@2@@__crt_stdio_output@@AAEX_KI_N@Z 1002957f f i libucrt:output.obj
 0001:00028649       ??$type_case_integer_parse_into_buffer@_K@?$output_processor@_WV?$stream_output_adapter@_W@__crt_stdio_output@@V?$standard_base@_WV?$stream_output_adapter@_W@__crt_stdio_output@@@2@@__crt_stdio_output@@AAEX_KI_N@Z 10029649 f i libucrt:output.obj
 0001:00028713       ??$type_case_integer_parse_into_buffer@_K@?$output_processor@_WV?$string_output_adapter@_W@__crt_stdio_output@@V?$format_validation_base@_WV?$string_output_adapter@_W@__crt_stdio_output@@@2@@__crt_stdio_output@@AAEX_KI_N@Z 10029713 f i libucrt:output.obj
 0001:000287dd       ??$type_case_integer_parse_into_buffer@_K@?$output_processor@_WV?$string_output_adapter@_W@__crt_stdio_output@@V?$positional_parameter_base@_WV?$string_output_adapter@_W@__crt_stdio_output@@@2@@__crt_stdio_output@@AAEX_KI_N@Z 100297dd f i libucrt:output.obj
 0001:000288a7       ??$type_case_integer_parse_into_buffer@_K@?$output_processor@_WV?$string_output_adapter@_W@__crt_stdio_output@@V?$standard_base@_WV?$string_output_adapter@_W@__crt_stdio_output@@@2@@__crt_stdio_output@@AAEX_KI_N@Z 100298a7 f i libucrt:output.obj
 0001:00028971       ??$write_multiple_characters@V?$stream_output_adapter@D@__crt_stdio_output@@D@__crt_stdio_output@@YAXABV?$stream_output_adapter@D@0@DHQAH@Z 10029971 f i libucrt:output.obj
 0001:000289ba       ??$write_multiple_characters@V?$stream_output_adapter@_W@__crt_stdio_output@@D@__crt_stdio_output@@YAXABV?$stream_output_adapter@_W@0@DHQAH@Z 100299ba f i libucrt:output.obj
 0001:00028a0a       ??$write_multiple_characters@V?$string_output_adapter@D@__crt_stdio_output@@D@__crt_stdio_output@@YAXABV?$string_output_adapter@D@0@DHQAH@Z 10029a0a f i libucrt:output.obj
 0001:00028a41       ??$write_multiple_characters@V?$string_output_adapter@_W@__crt_stdio_output@@D@__crt_stdio_output@@YAXABV?$string_output_adapter@_W@0@DHQAH@Z 10029a41 f i libucrt:output.obj
 0001:00028cb2       ??0?$common_data@D@__crt_stdio_output@@IAE@XZ 10029cb2 f i libucrt:output.obj
 0001:00028d08       ??0?$common_data@_W@__crt_stdio_output@@IAE@XZ 10029d08 f i libucrt:output.obj
 0001:00028d64       ??0?$output_adapter_data@DV?$stream_output_adapter@D@__crt_stdio_output@@@__crt_stdio_output@@IAE@ABV?$stream_output_adapter@D@1@_KQBDQAU__crt_locale_pointers@@QAD@Z 10029d64 f i libucrt:output.obj
 0001:00028daf       ??0?$output_adapter_data@DV?$string_output_adapter@D@__crt_stdio_output@@@__crt_stdio_output@@IAE@ABV?$string_output_adapter@D@1@_KQBDQAU__crt_locale_pointers@@QAD@Z 10029daf f i libucrt:output.obj
 0001:00028dfa       ??0?$output_adapter_data@_WV?$stream_output_adapter@_W@__crt_stdio_output@@@__crt_stdio_output@@IAE@ABV?$stream_output_adapter@_W@1@_KQB_WQAU__crt_locale_pointers@@QAD@Z 10029dfa f i libucrt:output.obj
 0001:00028e45       ??0?$output_adapter_data@_WV?$string_output_adapter@_W@__crt_stdio_output@@@__crt_stdio_output@@IAE@ABV?$string_output_adapter@_W@1@_KQB_WQAU__crt_locale_pointers@@QAD@Z 10029e45 f i libucrt:output.obj
 0001:00028e90       ??0?$output_processor@DV?$stream_output_adapter@D@__crt_stdio_output@@V?$format_validation_base@DV?$stream_output_adapter@D@__crt_stdio_output@@@2@@__crt_stdio_output@@QAE@ABV?$stream_output_adapter@D@1@_KQBDQAU__crt_locale_pointers@@QAD@Z 10029e90 f i libucrt:output.obj
 0001:00028ec8       ??0?$output_processor@DV?$stream_output_adapter@D@__crt_stdio_output@@V?$positional_parameter_base@DV?$stream_output_adapter@D@__crt_stdio_output@@@2@@__crt_stdio_output@@QAE@ABV?$stream_output_adapter@D@1@_KQBDQAU__crt_locale_pointers@@QAD@Z 10029ec8 f i libucrt:output.obj
 0001:00028ef8       ??0?$output_processor@DV?$stream_output_adapter@D@__crt_stdio_output@@V?$standard_base@DV?$stream_output_adapter@D@__crt_stdio_output@@@2@@__crt_stdio_output@@QAE@ABV?$stream_output_adapter@D@1@_KQBDQAU__crt_locale_pointers@@QAD@Z 10029ef8 f i libucrt:output.obj
 0001:00028f30       ??0?$output_processor@DV?$string_output_adapter@D@__crt_stdio_output@@V?$format_validation_base@DV?$string_output_adapter@D@__crt_stdio_output@@@2@@__crt_stdio_output@@QAE@ABV?$string_output_adapter@D@1@_KQBDQAU__crt_locale_pointers@@QAD@Z 10029f30 f i libucrt:output.obj
 0001:00028f68       ??0?$output_processor@DV?$string_output_adapter@D@__crt_stdio_output@@V?$positional_parameter_base@DV?$string_output_adapter@D@__crt_stdio_output@@@2@@__crt_stdio_output@@QAE@ABV?$string_output_adapter@D@1@_KQBDQAU__crt_locale_pointers@@QAD@Z 10029f68 f i libucrt:output.obj
 0001:00028f98       ??0?$output_processor@DV?$string_output_adapter@D@__crt_stdio_output@@V?$standard_base@DV?$string_output_adapter@D@__crt_stdio_output@@@2@@__crt_stdio_output@@QAE@ABV?$string_output_adapter@D@1@_KQBDQAU__crt_locale_pointers@@QAD@Z 10029f98 f i libucrt:output.obj
 0001:00028fd0       ??0?$output_processor@_WV?$stream_output_adapter@_W@__crt_stdio_output@@V?$format_validation_base@_WV?$stream_output_adapter@_W@__crt_stdio_output@@@2@@__crt_stdio_output@@QAE@ABV?$stream_output_adapter@_W@1@_KQB_WQAU__crt_locale_pointers@@QAD@Z 10029fd0 f i libucrt:output.obj
 0001:00029008       ??0?$output_processor@_WV?$stream_output_adapter@_W@__crt_stdio_output@@V?$positional_parameter_base@_WV?$stream_output_adapter@_W@__crt_stdio_output@@@2@@__crt_stdio_output@@QAE@ABV?$stream_output_adapter@_W@1@_KQB_WQAU__crt_locale_pointers@@QAD@Z 1002a008 f i libucrt:output.obj
 0001:00029038       ??0?$output_processor@_WV?$stream_output_adapter@_W@__crt_stdio_output@@V?$standard_base@_WV?$stream_output_adapter@_W@__crt_stdio_output@@@2@@__crt_stdio_output@@QAE@ABV?$stream_output_adapter@_W@1@_KQB_WQAU__crt_locale_pointers@@QAD@Z 1002a038 f i libucrt:output.obj
 0001:00029070       ??0?$output_processor@_WV?$string_output_adapter@_W@__crt_stdio_output@@V?$format_validation_base@_WV?$string_output_adapter@_W@__crt_stdio_output@@@2@@__crt_stdio_output@@QAE@ABV?$string_output_adapter@_W@1@_KQB_WQAU__crt_locale_pointers@@QAD@Z 1002a070 f i libucrt:output.obj
 0001:000290a8       ??0?$output_processor@_WV?$string_output_adapter@_W@__crt_stdio_output@@V?$positional_parameter_base@_WV?$string_output_adapter@_W@__crt_stdio_output@@@2@@__crt_stdio_output@@QAE@ABV?$string_output_adapter@_W@1@_KQB_WQAU__crt_locale_pointers@@QAD@Z 1002a0a8 f i libucrt:output.obj
 0001:000290d8       ??0?$output_processor@_WV?$string_output_adapter@_W@__crt_stdio_output@@V?$standard_base@_WV?$string_output_adapter@_W@__crt_stdio_output@@@2@@__crt_stdio_output@@QAE@ABV?$string_output_adapter@_W@1@_KQB_WQAU__crt_locale_pointers@@QAD@Z 1002a0d8 f i libucrt:output.obj
 0001:00029110       ??0?$stream_output_adapter@D@__crt_stdio_output@@QAE@QAU_iobuf@@@Z 1002a110 f i libucrt:output.obj
 0001:00029124       ??0?$stream_output_adapter@_W@__crt_stdio_output@@QAE@QAU_iobuf@@@Z 1002a124 f i libucrt:output.obj
 0001:00029138       ??0?$string_output_adapter@D@__crt_stdio_output@@QAE@QAU?$string_output_adapter_context@D@1@@Z 1002a138 f i libucrt:output.obj
 0001:0002914c       ??0?$string_output_adapter@_W@__crt_stdio_output@@QAE@QAU?$string_output_adapter_context@_W@1@@Z 1002a14c f i libucrt:output.obj
 0001:00029160       ??0_LocaleUpdate@@QAE@QAU__crt_locale_pointers@@@Z 1002a160 f i libucrt:output.obj
 0001:00029203       ??0__acrt_stdio_temporary_buffering_guard@@QAE@QAU_iobuf@@@Z 1002a203 f i libucrt:output.obj
 0001:00029228       ??0__crt_deferred_errno_cache@@QAE@XZ 1002a228 f i libucrt:output.obj
 0001:0002922e       ??0__crt_errno_guard@@QAE@QAH@Z 1002a22e f i libucrt:output.obj
 0001:0002924c       ??0formatting_buffer@__crt_stdio_output@@QAE@XZ 1002a24c f i libucrt:output.obj
 0001:00029261       ??1?$common_data@D@__crt_stdio_output@@QAE@XZ 1002a261 f i libucrt:output.obj
 0001:0002926b       ??1?$common_data@_W@__crt_stdio_output@@QAE@XZ 1002a26b f i libucrt:output.obj
 0001:00029275       ??1?$format_validation_base@DV?$stream_output_adapter@D@__crt_stdio_output@@@__crt_stdio_output@@QAE@XZ 1002a275 f i libucrt:output.obj
 0001:0002927f       ??1?$format_validation_base@DV?$string_output_adapter@D@__crt_stdio_output@@@__crt_stdio_output@@QAE@XZ 1002a27f f i libucrt:output.obj
 0001:00029289       ??1?$format_validation_base@_WV?$stream_output_adapter@_W@__crt_stdio_output@@@__crt_stdio_output@@QAE@XZ 1002a289 f i libucrt:output.obj
 0001:00029293       ??1?$format_validation_base@_WV?$string_output_adapter@_W@__crt_stdio_output@@@__crt_stdio_output@@QAE@XZ 1002a293 f i libucrt:output.obj
 0001:0002929d       ??1?$output_adapter_data@DV?$stream_output_adapter@D@__crt_stdio_output@@@__crt_stdio_output@@QAE@XZ 1002a29d f i libucrt:output.obj
 0001:000292a7       ??1?$output_adapter_data@DV?$string_output_adapter@D@__crt_stdio_output@@@__crt_stdio_output@@QAE@XZ 1002a2a7 f i libucrt:output.obj
 0001:000292b1       ??1?$output_adapter_data@_WV?$stream_output_adapter@_W@__crt_stdio_output@@@__crt_stdio_output@@QAE@XZ 1002a2b1 f i libucrt:output.obj
 0001:000292bb       ??1?$output_adapter_data@_WV?$string_output_adapter@_W@__crt_stdio_output@@@__crt_stdio_output@@QAE@XZ 1002a2bb f i libucrt:output.obj
 0001:000292c5       ??1?$output_processor@DV?$stream_output_adapter@D@__crt_stdio_output@@V?$format_validation_base@DV?$stream_output_adapter@D@__crt_stdio_output@@@2@@__crt_stdio_output@@QAE@XZ 1002a2c5 f i libucrt:output.obj
 0001:000292cf       ??1?$output_processor@DV?$stream_output_adapter@D@__crt_stdio_output@@V?$positional_parameter_base@DV?$stream_output_adapter@D@__crt_stdio_output@@@2@@__crt_stdio_output@@QAE@XZ 1002a2cf f i libucrt:output.obj
 0001:000292d9       ??1?$output_processor@DV?$stream_output_adapter@D@__crt_stdio_output@@V?$standard_base@DV?$stream_output_adapter@D@__crt_stdio_output@@@2@@__crt_stdio_output@@QAE@XZ 1002a2d9 f i libucrt:output.obj
 0001:000292e3       ??1?$output_processor@DV?$string_output_adapter@D@__crt_stdio_output@@V?$format_validation_base@DV?$string_output_adapter@D@__crt_stdio_output@@@2@@__crt_stdio_output@@QAE@XZ 1002a2e3 f i libucrt:output.obj
 0001:000292ed       ??1?$output_processor@DV?$string_output_adapter@D@__crt_stdio_output@@V?$positional_parameter_base@DV?$string_output_adapter@D@__crt_stdio_output@@@2@@__crt_stdio_output@@QAE@XZ 1002a2ed f i libucrt:output.obj
 0001:000292f7       ??1?$output_processor@DV?$string_output_adapter@D@__crt_stdio_output@@V?$standard_base@DV?$string_output_adapter@D@__crt_stdio_output@@@2@@__crt_stdio_output@@QAE@XZ 1002a2f7 f i libucrt:output.obj
 0001:00029301       ??1?$output_processor@_WV?$stream_output_adapter@_W@__crt_stdio_output@@V?$format_validation_base@_WV?$stream_output_adapter@_W@__crt_stdio_output@@@2@@__crt_stdio_output@@QAE@XZ 1002a301 f i libucrt:output.obj
 0001:0002930b       ??1?$output_processor@_WV?$stream_output_adapter@_W@__crt_stdio_output@@V?$positional_parameter_base@_WV?$stream_output_adapter@_W@__crt_stdio_output@@@2@@__crt_stdio_output@@QAE@XZ 1002a30b f i libucrt:output.obj
 0001:00029315       ??1?$output_processor@_WV?$stream_output_adapter@_W@__crt_stdio_output@@V?$standard_base@_WV?$stream_output_adapter@_W@__crt_stdio_output@@@2@@__crt_stdio_output@@QAE@XZ 1002a315 f i libucrt:output.obj
 0001:0002931f       ??1?$output_processor@_WV?$string_output_adapter@_W@__crt_stdio_output@@V?$format_validation_base@_WV?$string_output_adapter@_W@__crt_stdio_output@@@2@@__crt_stdio_output@@QAE@XZ 1002a31f f i libucrt:output.obj
 0001:00029329       ??1?$output_processor@_WV?$string_output_adapter@_W@__crt_stdio_output@@V?$positional_parameter_base@_WV?$string_output_adapter@_W@__crt_stdio_output@@@2@@__crt_stdio_output@@QAE@XZ 1002a329 f i libucrt:output.obj
 0001:00029333       ??1?$output_processor@_WV?$string_output_adapter@_W@__crt_stdio_output@@V?$standard_base@_WV?$string_output_adapter@_W@__crt_stdio_output@@@2@@__crt_stdio_output@@QAE@XZ 1002a333 f i libucrt:output.obj
 0001:0002933d       ??1?$positional_parameter_base@DV?$stream_output_adapter@D@__crt_stdio_output@@@__crt_stdio_output@@QAE@XZ 1002a33d f i libucrt:output.obj
 0001:00029347       ??1?$positional_parameter_base@DV?$string_output_adapter@D@__crt_stdio_output@@@__crt_stdio_output@@QAE@XZ 1002a347 f i libucrt:output.obj
 0001:00029351       ??1?$positional_parameter_base@_WV?$stream_output_adapter@_W@__crt_stdio_output@@@__crt_stdio_output@@QAE@XZ 1002a351 f i libucrt:output.obj
 0001:0002935b       ??1?$positional_parameter_base@_WV?$string_output_adapter@_W@__crt_stdio_output@@@__crt_stdio_output@@QAE@XZ 1002a35b f i libucrt:output.obj
 0001:00029365       ??1?$standard_base@DV?$stream_output_adapter@D@__crt_stdio_output@@@__crt_stdio_output@@QAE@XZ 1002a365 f i libucrt:output.obj
 0001:0002936f       ??1?$standard_base@DV?$string_output_adapter@D@__crt_stdio_output@@@__crt_stdio_output@@QAE@XZ 1002a36f f i libucrt:output.obj
 0001:00029379       ??1?$standard_base@_WV?$stream_output_adapter@_W@__crt_stdio_output@@@__crt_stdio_output@@QAE@XZ 1002a379 f i libucrt:output.obj
 0001:00029383       ??1?$standard_base@_WV?$string_output_adapter@_W@__crt_stdio_output@@@__crt_stdio_output@@QAE@XZ 1002a383 f i libucrt:output.obj
 0001:0002938d       ??1_LocaleUpdate@@QAE@XZ   1002a38d f i libucrt:output.obj
 0001:000293a1       ??1__acrt_stdio_temporary_buffering_guard@@QAE@XZ 1002a3a1 f i libucrt:output.obj
 0001:000293b3       ??1__crt_errno_guard@@QAE@XZ 1002a3b3 f i libucrt:output.obj
 0001:000293c8       ??1formatting_buffer@__crt_stdio_output@@QAE@XZ 1002a3c8 f i libucrt:output.obj
 0001:000293e8       ??4?$__crt_unique_heap_ptr@DU__crt_internal_free_policy@@@@QAEAAV0@$$QAV0@@Z 1002a3e8 f i libucrt:output.obj
 0001:00029ab3       ?GetLocaleT@_LocaleUpdate@@QAEPAU__crt_locale_pointers@@XZ 1002aab3 f i libucrt:output.obj
 0001:00029ab7       ?adjust_hexit@?$output_processor@DV?$stream_output_adapter@D@__crt_stdio_output@@V?$format_validation_base@DV?$stream_output_adapter@D@__crt_stdio_output@@@2@@__crt_stdio_output@@CADH_N@Z 1002aab7 f i libucrt:output.obj
 0001:00029ad0       ?adjust_hexit@?$output_processor@DV?$stream_output_adapter@D@__crt_stdio_output@@V?$positional_parameter_base@DV?$stream_output_adapter@D@__crt_stdio_output@@@2@@__crt_stdio_output@@CADH_N@Z 1002aad0 f i libucrt:output.obj
 0001:00029ae9       ?adjust_hexit@?$output_processor@DV?$stream_output_adapter@D@__crt_stdio_output@@V?$standard_base@DV?$stream_output_adapter@D@__crt_stdio_output@@@2@@__crt_stdio_output@@CADH_N@Z 1002aae9 f i libucrt:output.obj
 0001:00029b02       ?adjust_hexit@?$output_processor@DV?$string_output_adapter@D@__crt_stdio_output@@V?$format_validation_base@DV?$string_output_adapter@D@__crt_stdio_output@@@2@@__crt_stdio_output@@CADH_N@Z 1002ab02 f i libucrt:output.obj
 0001:00029b1b       ?adjust_hexit@?$output_processor@DV?$string_output_adapter@D@__crt_stdio_output@@V?$positional_parameter_base@DV?$string_output_adapter@D@__crt_stdio_output@@@2@@__crt_stdio_output@@CADH_N@Z 1002ab1b f i libucrt:output.obj
 0001:00029b34       ?adjust_hexit@?$output_processor@DV?$string_output_adapter@D@__crt_stdio_output@@V?$standard_base@DV?$string_output_adapter@D@__crt_stdio_output@@@2@@__crt_stdio_output@@CADH_N@Z 1002ab34 f i libucrt:output.obj
 0001:00029b4d       ?adjust_hexit@?$output_processor@_WV?$stream_output_adapter@_W@__crt_stdio_output@@V?$format_validation_base@_WV?$stream_output_adapter@_W@__crt_stdio_output@@@2@@__crt_stdio_output@@CADH_N@Z 1002ab4d f i libucrt:output.obj
 0001:00029b66       ?adjust_hexit@?$output_processor@_WV?$stream_output_adapter@_W@__crt_stdio_output@@V?$positional_parameter_base@_WV?$stream_output_adapter@_W@__crt_stdio_output@@@2@@__crt_stdio_output@@CADH_N@Z 1002ab66 f i libucrt:output.obj
 0001:00029b7f       ?adjust_hexit@?$output_processor@_WV?$stream_output_adapter@_W@__crt_stdio_output@@V?$standard_base@_WV?$stream_output_adapter@_W@__crt_stdio_output@@@2@@__crt_stdio_output@@CADH_N@Z 1002ab7f f i libucrt:output.obj
 0001:00029b98       ?adjust_hexit@?$output_processor@_WV?$string_output_adapter@_W@__crt_stdio_output@@V?$format_validation_base@_WV?$string_output_adapter@_W@__crt_stdio_output@@@2@@__crt_stdio_output@@CADH_N@Z 1002ab98 f i libucrt:output.obj
 0001:00029bb1       ?adjust_hexit@?$output_processor@_WV?$string_output_adapter@_W@__crt_stdio_output@@V?$positional_parameter_base@_WV?$string_output_adapter@_W@__crt_stdio_output@@@2@@__crt_stdio_output@@CADH_N@Z 1002abb1 f i libucrt:output.obj
 0001:00029bca       ?adjust_hexit@?$output_processor@_WV?$string_output_adapter@_W@__crt_stdio_output@@V?$standard_base@_WV?$string_output_adapter@_W@__crt_stdio_output@@@2@@__crt_stdio_output@@CADH_N@Z 1002abca f i libucrt:output.obj
 0001:00029be3       ?advance_to_next_pass@?$positional_parameter_base@DV?$stream_output_adapter@D@__crt_stdio_output@@@__crt_stdio_output@@IAE_NXZ 1002abe3 f i libucrt:output.obj
 0001:00029c42       ?advance_to_next_pass@?$positional_parameter_base@DV?$string_output_adapter@D@__crt_stdio_output@@@__crt_stdio_output@@IAE_NXZ 1002ac42 f i libucrt:output.obj
 0001:00029ca1       ?advance_to_next_pass@?$positional_parameter_base@_WV?$stream_output_adapter@_W@__crt_stdio_output@@@__crt_stdio_output@@IAE_NXZ 1002aca1 f i libucrt:output.obj
 0001:00029d00       ?advance_to_next_pass@?$positional_parameter_base@_WV?$string_output_adapter@_W@__crt_stdio_output@@@__crt_stdio_output@@IAE_NXZ 1002ad00 f i libucrt:output.obj
 0001:00029d5f       ?advance_to_next_pass@?$standard_base@DV?$stream_output_adapter@D@__crt_stdio_output@@@__crt_stdio_output@@IAE_NXZ 1002ad5f f i libucrt:output.obj
 0001:00029d74       ?advance_to_next_pass@?$standard_base@DV?$string_output_adapter@D@__crt_stdio_output@@@__crt_stdio_output@@IAE_NXZ 1002ad74 f i libucrt:output.obj
 0001:00029d89       ?advance_to_next_pass@?$standard_base@_WV?$stream_output_adapter@_W@__crt_stdio_output@@@__crt_stdio_output@@IAE_NXZ 1002ad89 f i libucrt:output.obj
 0001:00029d9e       ?advance_to_next_pass@?$standard_base@_WV?$string_output_adapter@_W@__crt_stdio_output@@@__crt_stdio_output@@IAE_NXZ 1002ad9e f i libucrt:output.obj
 0001:00029db3       ?crop_zeroes@__crt_stdio_output@@YAXPADQAU__crt_locale_pointers@@@Z 1002adb3 f i libucrt:output.obj
 0001:00029e2b       ?find_next_state@?$output_processor@DV?$stream_output_adapter@D@__crt_stdio_output@@V?$format_validation_base@DV?$stream_output_adapter@D@__crt_stdio_output@@@2@@__crt_stdio_output@@ABE?AW4state@2@DW432@@Z 1002ae2b f i libucrt:output.obj
 0001:00029e7b       ?find_next_state@?$output_processor@DV?$stream_output_adapter@D@__crt_stdio_output@@V?$positional_parameter_base@DV?$stream_output_adapter@D@__crt_stdio_output@@@2@@__crt_stdio_output@@ABE?AW4state@2@DW432@@Z 1002ae7b f i libucrt:output.obj
 0001:00029ecb       ?find_next_state@?$output_processor@DV?$stream_output_adapter@D@__crt_stdio_output@@V?$standard_base@DV?$stream_output_adapter@D@__crt_stdio_output@@@2@@__crt_stdio_output@@ABE?AW4state@2@DW432@@Z 1002aecb f i libucrt:output.obj
 0001:00029f17       ?find_next_state@?$output_processor@DV?$string_output_adapter@D@__crt_stdio_output@@V?$format_validation_base@DV?$string_output_adapter@D@__crt_stdio_output@@@2@@__crt_stdio_output@@ABE?AW4state@2@DW432@@Z 1002af17 f i libucrt:output.obj
 0001:00029f67       ?find_next_state@?$output_processor@DV?$string_output_adapter@D@__crt_stdio_output@@V?$positional_parameter_base@DV?$string_output_adapter@D@__crt_stdio_output@@@2@@__crt_stdio_output@@ABE?AW4state@2@DW432@@Z 1002af67 f i libucrt:output.obj
 0001:00029fb7       ?find_next_state@?$output_processor@DV?$string_output_adapter@D@__crt_stdio_output@@V?$standard_base@DV?$string_output_adapter@D@__crt_stdio_output@@@2@@__crt_stdio_output@@ABE?AW4state@2@DW432@@Z 1002afb7 f i libucrt:output.obj
 0001:0002a003       ?find_next_state@?$output_processor@_WV?$stream_output_adapter@_W@__crt_stdio_output@@V?$format_validation_base@_WV?$stream_output_adapter@_W@__crt_stdio_output@@@2@@__crt_stdio_output@@ABE?AW4state@2@_WW432@@Z 1002b003 f i libucrt:output.obj
 0001:0002a055       ?find_next_state@?$output_processor@_WV?$stream_output_adapter@_W@__crt_stdio_output@@V?$positional_parameter_base@_WV?$stream_output_adapter@_W@__crt_stdio_output@@@2@@__crt_stdio_output@@ABE?AW4state@2@_WW432@@Z 1002b055 f i libucrt:output.obj
 0001:0002a0a7       ?find_next_state@?$output_processor@_WV?$stream_output_adapter@_W@__crt_stdio_output@@V?$standard_base@_WV?$stream_output_adapter@_W@__crt_stdio_output@@@2@@__crt_stdio_output@@ABE?AW4state@2@_WW432@@Z 1002b0a7 f i libucrt:output.obj
 0001:0002a0f5       ?find_next_state@?$output_processor@_WV?$string_output_adapter@_W@__crt_stdio_output@@V?$format_validation_base@_WV?$string_output_adapter@_W@__crt_stdio_output@@@2@@__crt_stdio_output@@ABE?AW4state@2@_WW432@@Z 1002b0f5 f i libucrt:output.obj
 0001:0002a147       ?find_next_state@?$output_processor@_WV?$string_output_adapter@_W@__crt_stdio_output@@V?$positional_parameter_base@_WV?$string_output_adapter@_W@__crt_stdio_output@@@2@@__crt_stdio_output@@ABE?AW4state@2@_WW432@@Z 1002b147 f i libucrt:output.obj
 0001:0002a199       ?find_next_state@?$output_processor@_WV?$string_output_adapter@_W@__crt_stdio_output@@V?$standard_base@_WV?$string_output_adapter@_W@__crt_stdio_output@@@2@@__crt_stdio_output@@ABE?AW4state@2@_WW432@@Z 1002b199 f i libucrt:output.obj
 0001:0002a1e7       ?force_decimal_point@__crt_stdio_output@@YAXPADQAU__crt_locale_pointers@@@Z 1002b1e7 f i libucrt:output.obj
 0001:0002a25a       ?get@__crt_deferred_errno_cache@@QAEAAHXZ 1002b25a f i libucrt:output.obj
 0001:0002a273       ?get_flags@__crt_stdio_stream@@QBEJXZ 1002b273 f i libucrt:output.obj
 0001:0002a27a       ?get_parameter_type@?$positional_parameter_base@DV?$stream_output_adapter@D@__crt_stdio_output@@@__crt_stdio_output@@CA?AW4parameter_type@12@F@Z 1002b27a f i libucrt:output.obj
 0001:0002a27e       ?get_parameter_type@?$positional_parameter_base@DV?$stream_output_adapter@D@__crt_stdio_output@@@__crt_stdio_output@@CA?AW4parameter_type@12@G@Z 1002b27e f i libucrt:output.obj
 0001:0002a282       ?get_parameter_type@?$positional_parameter_base@DV?$stream_output_adapter@D@__crt_stdio_output@@@__crt_stdio_output@@CA?AW4parameter_type@12@H@Z 1002b282 f i libucrt:output.obj
 0001:0002a286       ?get_parameter_type@?$positional_parameter_base@DV?$stream_output_adapter@D@__crt_stdio_output@@@__crt_stdio_output@@CA?AW4parameter_type@12@I@Z 1002b286 f i libucrt:output.obj
 0001:0002a28a       ?get_parameter_type@?$positional_parameter_base@DV?$stream_output_adapter@D@__crt_stdio_output@@@__crt_stdio_output@@CA?AW4parameter_type@12@U_CRT_DOUBLE@@@Z 1002b28a f i libucrt:output.obj
 0001:0002a28e       ?get_parameter_type@?$positional_parameter_base@DV?$stream_output_adapter@D@__crt_stdio_output@@@__crt_stdio_output@@CA?AW4parameter_type@12@_J@Z 1002b28e f i libucrt:output.obj
 0001:0002a292       ?get_parameter_type@?$positional_parameter_base@DV?$stream_output_adapter@D@__crt_stdio_output@@@__crt_stdio_output@@CA?AW4parameter_type@12@_K@Z 1002b292 f i libucrt:output.obj
 0001:0002a296       ?get_parameter_type@?$positional_parameter_base@DV?$stream_output_adapter@D@__crt_stdio_output@@@__crt_stdio_output@@CA?AW4parameter_type@12@_W@Z 1002b296 f i libucrt:output.obj
 0001:0002a29a       ?get_parameter_type@?$positional_parameter_base@DV?$string_output_adapter@D@__crt_stdio_output@@@__crt_stdio_output@@CA?AW4parameter_type@12@F@Z 1002b29a f i libucrt:output.obj
 0001:0002a29e       ?get_parameter_type@?$positional_parameter_base@DV?$string_output_adapter@D@__crt_stdio_output@@@__crt_stdio_output@@CA?AW4parameter_type@12@G@Z 1002b29e f i libucrt:output.obj
 0001:0002a2a2       ?get_parameter_type@?$positional_parameter_base@DV?$string_output_adapter@D@__crt_stdio_output@@@__crt_stdio_output@@CA?AW4parameter_type@12@H@Z 1002b2a2 f i libucrt:output.obj
 0001:0002a2a6       ?get_parameter_type@?$positional_parameter_base@DV?$string_output_adapter@D@__crt_stdio_output@@@__crt_stdio_output@@CA?AW4parameter_type@12@I@Z 1002b2a6 f i libucrt:output.obj
 0001:0002a2aa       ?get_parameter_type@?$positional_parameter_base@DV?$string_output_adapter@D@__crt_stdio_output@@@__crt_stdio_output@@CA?AW4parameter_type@12@U_CRT_DOUBLE@@@Z 1002b2aa f i libucrt:output.obj
 0001:0002a2ae       ?get_parameter_type@?$positional_parameter_base@DV?$string_output_adapter@D@__crt_stdio_output@@@__crt_stdio_output@@CA?AW4parameter_type@12@_J@Z 1002b2ae f i libucrt:output.obj
 0001:0002a2b2       ?get_parameter_type@?$positional_parameter_base@DV?$string_output_adapter@D@__crt_stdio_output@@@__crt_stdio_output@@CA?AW4parameter_type@12@_K@Z 1002b2b2 f i libucrt:output.obj
 0001:0002a2b6       ?get_parameter_type@?$positional_parameter_base@DV?$string_output_adapter@D@__crt_stdio_output@@@__crt_stdio_output@@CA?AW4parameter_type@12@_W@Z 1002b2b6 f i libucrt:output.obj
 0001:0002a2ba       ?get_parameter_type@?$positional_parameter_base@_WV?$stream_output_adapter@_W@__crt_stdio_output@@@__crt_stdio_output@@CA?AW4parameter_type@12@F@Z 1002b2ba f i libucrt:output.obj
 0001:0002a2be       ?get_parameter_type@?$positional_parameter_base@_WV?$stream_output_adapter@_W@__crt_stdio_output@@@__crt_stdio_output@@CA?AW4parameter_type@12@G@Z 1002b2be f i libucrt:output.obj
 0001:0002a2c2       ?get_parameter_type@?$positional_parameter_base@_WV?$stream_output_adapter@_W@__crt_stdio_output@@@__crt_stdio_output@@CA?AW4parameter_type@12@H@Z 1002b2c2 f i libucrt:output.obj
 0001:0002a2c6       ?get_parameter_type@?$positional_parameter_base@_WV?$stream_output_adapter@_W@__crt_stdio_output@@@__crt_stdio_output@@CA?AW4parameter_type@12@I@Z 1002b2c6 f i libucrt:output.obj
 0001:0002a2ca       ?get_parameter_type@?$positional_parameter_base@_WV?$stream_output_adapter@_W@__crt_stdio_output@@@__crt_stdio_output@@CA?AW4parameter_type@12@U_CRT_DOUBLE@@@Z 1002b2ca f i libucrt:output.obj
 0001:0002a2ce       ?get_parameter_type@?$positional_parameter_base@_WV?$stream_output_adapter@_W@__crt_stdio_output@@@__crt_stdio_output@@CA?AW4parameter_type@12@_J@Z 1002b2ce f i libucrt:output.obj
 0001:0002a2d2       ?get_parameter_type@?$positional_parameter_base@_WV?$stream_output_adapter@_W@__crt_stdio_output@@@__crt_stdio_output@@CA?AW4parameter_type@12@_K@Z 1002b2d2 f i libucrt:output.obj
 0001:0002a2d6       ?get_parameter_type@?$positional_parameter_base@_WV?$stream_output_adapter@_W@__crt_stdio_output@@@__crt_stdio_output@@CA?AW4parameter_type@12@_W@Z 1002b2d6 f i libucrt:output.obj
 0001:0002a2da       ?get_parameter_type@?$positional_parameter_base@_WV?$string_output_adapter@_W@__crt_stdio_output@@@__crt_stdio_output@@CA?AW4parameter_type@12@F@Z 1002b2da f i libucrt:output.obj
 0001:0002a2de       ?get_parameter_type@?$positional_parameter_base@_WV?$string_output_adapter@_W@__crt_stdio_output@@@__crt_stdio_output@@CA?AW4parameter_type@12@G@Z 1002b2de f i libucrt:output.obj
 0001:0002a2e2       ?get_parameter_type@?$positional_parameter_base@_WV?$string_output_adapter@_W@__crt_stdio_output@@@__crt_stdio_output@@CA?AW4parameter_type@12@H@Z 1002b2e2 f i libucrt:output.obj
 0001:0002a2e6       ?get_parameter_type@?$positional_parameter_base@_WV?$string_output_adapter@_W@__crt_stdio_output@@@__crt_stdio_output@@CA?AW4parameter_type@12@I@Z 1002b2e6 f i libucrt:output.obj
 0001:0002a2ea       ?get_parameter_type@?$positional_parameter_base@_WV?$string_output_adapter@_W@__crt_stdio_output@@@__crt_stdio_output@@CA?AW4parameter_type@12@U_CRT_DOUBLE@@@Z 1002b2ea f i libucrt:output.obj
 0001:0002a2ee       ?get_parameter_type@?$positional_parameter_base@_WV?$string_output_adapter@_W@__crt_stdio_output@@@__crt_stdio_output@@CA?AW4parameter_type@12@_J@Z 1002b2ee f i libucrt:output.obj
 0001:0002a2f2       ?get_parameter_type@?$positional_parameter_base@_WV?$string_output_adapter@_W@__crt_stdio_output@@@__crt_stdio_output@@CA?AW4parameter_type@12@_K@Z 1002b2f2 f i libucrt:output.obj
 0001:0002a2f6       ?get_parameter_type@?$positional_parameter_base@_WV?$string_output_adapter@_W@__crt_stdio_output@@@__crt_stdio_output@@CA?AW4parameter_type@12@_W@Z 1002b2f6 f i libucrt:output.obj
 0001:0002a2fa       ?has_flag@?$output_processor@DV?$stream_output_adapter@D@__crt_stdio_output@@V?$format_validation_base@DV?$stream_output_adapter@D@__crt_stdio_output@@@2@@__crt_stdio_output@@ABE_NI@Z 1002b2fa f i libucrt:output.obj
 0001:0002a310       ?has_flag@?$output_processor@DV?$stream_output_adapter@D@__crt_stdio_output@@V?$positional_parameter_base@DV?$stream_output_adapter@D@__crt_stdio_output@@@2@@__crt_stdio_output@@ABE_NI@Z 1002b310 f i libucrt:output.obj
 0001:0002a326       ?has_flag@?$output_processor@DV?$stream_output_adapter@D@__crt_stdio_output@@V?$standard_base@DV?$stream_output_adapter@D@__crt_stdio_output@@@2@@__crt_stdio_output@@ABE_NI@Z 1002b326 f i libucrt:output.obj
 0001:0002a33c       ?has_flag@?$output_processor@DV?$string_output_adapter@D@__crt_stdio_output@@V?$format_validation_base@DV?$string_output_adapter@D@__crt_stdio_output@@@2@@__crt_stdio_output@@ABE_NI@Z 1002b33c f i libucrt:output.obj
 0001:0002a352       ?has_flag@?$output_processor@DV?$string_output_adapter@D@__crt_stdio_output@@V?$positional_parameter_base@DV?$string_output_adapter@D@__crt_stdio_output@@@2@@__crt_stdio_output@@ABE_NI@Z 1002b352 f i libucrt:output.obj
 0001:0002a368       ?has_flag@?$output_processor@DV?$string_output_adapter@D@__crt_stdio_output@@V?$standard_base@DV?$string_output_adapter@D@__crt_stdio_output@@@2@@__crt_stdio_output@@ABE_NI@Z 1002b368 f i libucrt:output.obj
 0001:0002a37e       ?has_flag@?$output_processor@_WV?$stream_output_adapter@_W@__crt_stdio_output@@V?$format_validation_base@_WV?$stream_output_adapter@_W@__crt_stdio_output@@@2@@__crt_stdio_output@@ABE_NI@Z 1002b37e f i libucrt:output.obj
 0001:0002a394       ?has_flag@?$output_processor@_WV?$stream_output_adapter@_W@__crt_stdio_output@@V?$positional_parameter_base@_WV?$stream_output_adapter@_W@__crt_stdio_output@@@2@@__crt_stdio_output@@ABE_NI@Z 1002b394 f i libucrt:output.obj
 0001:0002a3aa       ?has_flag@?$output_processor@_WV?$stream_output_adapter@_W@__crt_stdio_output@@V?$standard_base@_WV?$stream_output_adapter@_W@__crt_stdio_output@@@2@@__crt_stdio_output@@ABE_NI@Z 1002b3aa f i libucrt:output.obj
 0001:0002a3c0       ?has_flag@?$output_processor@_WV?$string_output_adapter@_W@__crt_stdio_output@@V?$format_validation_base@_WV?$string_output_adapter@_W@__crt_stdio_output@@@2@@__crt_stdio_output@@ABE_NI@Z 1002b3c0 f i libucrt:output.obj
 0001:0002a3d6       ?has_flag@?$output_processor@_WV?$string_output_adapter@_W@__crt_stdio_output@@V?$positional_parameter_base@_WV?$string_output_adapter@_W@__crt_stdio_output@@@2@@__crt_stdio_output@@ABE_NI@Z 1002b3d6 f i libucrt:output.obj
 0001:0002a3ec       ?has_flag@?$output_processor@_WV?$string_output_adapter@_W@__crt_stdio_output@@V?$standard_base@_WV?$string_output_adapter@_W@__crt_stdio_output@@@2@@__crt_stdio_output@@ABE_NI@Z 1002b3ec f i libucrt:output.obj
 0001:0002a402       ?is_positional_parameter_reappearance_consistent@?$positional_parameter_base@DV?$stream_output_adapter@D@__crt_stdio_output@@@__crt_stdio_output@@AAE_NABUparameter_data@12@W4parameter_type@12@DW4length_modifier@2@@Z 1002b402 f i libucrt:output.obj
 0001:0002a560       ?is_positional_parameter_reappearance_consistent@?$positional_parameter_base@DV?$string_output_adapter@D@__crt_stdio_output@@@__crt_stdio_output@@AAE_NABUparameter_data@12@W4parameter_type@12@DW4length_modifier@2@@Z 1002b560 f i libucrt:output.obj
 0001:0002a6be       ?is_positional_parameter_reappearance_consistent@?$positional_parameter_base@_WV?$stream_output_adapter@_W@__crt_stdio_output@@@__crt_stdio_output@@AAE_NABUparameter_data@12@W4parameter_type@12@_WW4length_modifier@2@@Z 1002b6be f i libucrt:output.obj
 0001:0002a81c       ?is_positional_parameter_reappearance_consistent@?$positional_parameter_base@_WV?$string_output_adapter@_W@__crt_stdio_output@@@__crt_stdio_output@@AAE_NABUparameter_data@12@W4parameter_type@12@_WW4length_modifier@2@@Z 1002b81c f i libucrt:output.obj
 0001:0002a97a       ?is_string_backed@__crt_stdio_stream@@QBE_NXZ 1002b97a f i libucrt:output.obj
 0001:0002a989       ?narrow_null_string@?$output_processor@DV?$stream_output_adapter@D@__crt_stdio_output@@V?$format_validation_base@DV?$stream_output_adapter@D@__crt_stdio_output@@@2@@__crt_stdio_output@@CAPADXZ 1002b989 f i libucrt:output.obj
 0001:0002a98f       ?narrow_null_string@?$output_processor@DV?$stream_output_adapter@D@__crt_stdio_output@@V?$positional_parameter_base@DV?$stream_output_adapter@D@__crt_stdio_output@@@2@@__crt_stdio_output@@CAPADXZ 1002b98f f i libucrt:output.obj
 0001:0002a995       ?narrow_null_string@?$output_processor@DV?$stream_output_adapter@D@__crt_stdio_output@@V?$standard_base@DV?$stream_output_adapter@D@__crt_stdio_output@@@2@@__crt_stdio_output@@CAPADXZ 1002b995 f i libucrt:output.obj
 0001:0002a99b       ?narrow_null_string@?$output_processor@DV?$string_output_adapter@D@__crt_stdio_output@@V?$format_validation_base@DV?$string_output_adapter@D@__crt_stdio_output@@@2@@__crt_stdio_output@@CAPADXZ 1002b99b f i libucrt:output.obj
 0001:0002a9a1       ?narrow_null_string@?$output_processor@DV?$string_output_adapter@D@__crt_stdio_output@@V?$positional_parameter_base@DV?$string_output_adapter@D@__crt_stdio_output@@@2@@__crt_stdio_output@@CAPADXZ 1002b9a1 f i libucrt:output.obj
 0001:0002a9a7       ?narrow_null_string@?$output_processor@DV?$string_output_adapter@D@__crt_stdio_output@@V?$standard_base@DV?$string_output_adapter@D@__crt_stdio_output@@@2@@__crt_stdio_output@@CAPADXZ 1002b9a7 f i libucrt:output.obj
 0001:0002a9ad       ?narrow_null_string@?$output_processor@_WV?$stream_output_adapter@_W@__crt_stdio_output@@V?$format_validation_base@_WV?$stream_output_adapter@_W@__crt_stdio_output@@@2@@__crt_stdio_output@@CAPADXZ 1002b9ad f i libucrt:output.obj
 0001:0002a9b3       ?narrow_null_string@?$output_processor@_WV?$stream_output_adapter@_W@__crt_stdio_output@@V?$positional_parameter_base@_WV?$stream_output_adapter@_W@__crt_stdio_output@@@2@@__crt_stdio_output@@CAPADXZ 1002b9b3 f i libucrt:output.obj
 0001:0002a9b9       ?narrow_null_string@?$output_processor@_WV?$stream_output_adapter@_W@__crt_stdio_output@@V?$standard_base@_WV?$stream_output_adapter@_W@__crt_stdio_output@@@2@@__crt_stdio_output@@CAPADXZ 1002b9b9 f i libucrt:output.obj
 0001:0002a9bf       ?narrow_null_string@?$output_processor@_WV?$string_output_adapter@_W@__crt_stdio_output@@V?$format_validation_base@_WV?$string_output_adapter@_W@__crt_stdio_output@@@2@@__crt_stdio_output@@CAPADXZ 1002b9bf f i libucrt:output.obj
 0001:0002a9c5       ?narrow_null_string@?$output_processor@_WV?$string_output_adapter@_W@__crt_stdio_output@@V?$positional_parameter_base@_WV?$string_output_adapter@_W@__crt_stdio_output@@@2@@__crt_stdio_output@@CAPADXZ 1002b9c5 f i libucrt:output.obj
 0001:0002a9cb       ?narrow_null_string@?$output_processor@_WV?$string_output_adapter@_W@__crt_stdio_output@@V?$standard_base@_WV?$string_output_adapter@_W@__crt_stdio_output@@@2@@__crt_stdio_output@@CAPADXZ 1002b9cb f i libucrt:output.obj
 0001:0002a9d1       ?parse_int_from_format_string@?$output_processor@DV?$stream_output_adapter@D@__crt_stdio_output@@V?$format_validation_base@DV?$stream_output_adapter@D@__crt_stdio_output@@@2@@__crt_stdio_output@@AAE_NQAH@Z 1002b9d1 f i libucrt:output.obj
 0001:0002aa62       ?parse_int_from_format_string@?$output_processor@DV?$stream_output_adapter@D@__crt_stdio_output@@V?$positional_parameter_base@DV?$stream_output_adapter@D@__crt_stdio_output@@@2@@__crt_stdio_output@@AAE_NQAH@Z 1002ba62 f i libucrt:output.obj
 0001:0002aaf3       ?parse_int_from_format_string@?$output_processor@DV?$stream_output_adapter@D@__crt_stdio_output@@V?$standard_base@DV?$stream_output_adapter@D@__crt_stdio_output@@@2@@__crt_stdio_output@@AAE_NQAH@Z 1002baf3 f i libucrt:output.obj
 0001:0002ab84       ?parse_int_from_format_string@?$output_processor@DV?$string_output_adapter@D@__crt_stdio_output@@V?$format_validation_base@DV?$string_output_adapter@D@__crt_stdio_output@@@2@@__crt_stdio_output@@AAE_NQAH@Z 1002bb84 f i libucrt:output.obj
 0001:0002ac15       ?parse_int_from_format_string@?$output_processor@DV?$string_output_adapter@D@__crt_stdio_output@@V?$positional_parameter_base@DV?$string_output_adapter@D@__crt_stdio_output@@@2@@__crt_stdio_output@@AAE_NQAH@Z 1002bc15 f i libucrt:output.obj
 0001:0002aca6       ?parse_int_from_format_string@?$output_processor@DV?$string_output_adapter@D@__crt_stdio_output@@V?$standard_base@DV?$string_output_adapter@D@__crt_stdio_output@@@2@@__crt_stdio_output@@AAE_NQAH@Z 1002bca6 f i libucrt:output.obj
 0001:0002ad37       ?parse_int_from_format_string@?$output_processor@_WV?$stream_output_adapter@_W@__crt_stdio_output@@V?$format_validation_base@_WV?$stream_output_adapter@_W@__crt_stdio_output@@@2@@__crt_stdio_output@@AAE_NQAH@Z 1002bd37 f i libucrt:output.obj
 0001:0002adca       ?parse_int_from_format_string@?$output_processor@_WV?$stream_output_adapter@_W@__crt_stdio_output@@V?$positional_parameter_base@_WV?$stream_output_adapter@_W@__crt_stdio_output@@@2@@__crt_stdio_output@@AAE_NQAH@Z 1002bdca f i libucrt:output.obj
 0001:0002ae5d       ?parse_int_from_format_string@?$output_processor@_WV?$stream_output_adapter@_W@__crt_stdio_output@@V?$standard_base@_WV?$stream_output_adapter@_W@__crt_stdio_output@@@2@@__crt_stdio_output@@AAE_NQAH@Z 1002be5d f i libucrt:output.obj
 0001:0002aef0       ?parse_int_from_format_string@?$output_processor@_WV?$string_output_adapter@_W@__crt_stdio_output@@V?$format_validation_base@_WV?$string_output_adapter@_W@__crt_stdio_output@@@2@@__crt_stdio_output@@AAE_NQAH@Z 1002bef0 f i libucrt:output.obj
 0001:0002af83       ?parse_int_from_format_string@?$output_processor@_WV?$string_output_adapter@_W@__crt_stdio_output@@V?$positional_parameter_base@_WV?$string_output_adapter@_W@__crt_stdio_output@@@2@@__crt_stdio_output@@AAE_NQAH@Z 1002bf83 f i libucrt:output.obj
 0001:0002b016       ?parse_int_from_format_string@?$output_processor@_WV?$string_output_adapter@_W@__crt_stdio_output@@V?$standard_base@_WV?$string_output_adapter@_W@__crt_stdio_output@@@2@@__crt_stdio_output@@AAE_NQAH@Z 1002c016 f i libucrt:output.obj
 0001:0002b0a9       ?process@?$output_processor@DV?$stream_output_adapter@D@__crt_stdio_output@@V?$format_validation_base@DV?$stream_output_adapter@D@__crt_stdio_output@@@2@@__crt_stdio_output@@QAEHXZ 1002c0a9 f i libucrt:output.obj
 0001:0002b216       ?process@?$output_processor@DV?$stream_output_adapter@D@__crt_stdio_output@@V?$positional_parameter_base@DV?$stream_output_adapter@D@__crt_stdio_output@@@2@@__crt_stdio_output@@QAEHXZ 1002c216 f i libucrt:output.obj
 0001:0002b392       ?process@?$output_processor@DV?$stream_output_adapter@D@__crt_stdio_output@@V?$standard_base@DV?$stream_output_adapter@D@__crt_stdio_output@@@2@@__crt_stdio_output@@QAEHXZ 1002c392 f i libucrt:output.obj
 0001:0002b4eb       ?process@?$output_processor@DV?$string_output_adapter@D@__crt_stdio_output@@V?$format_validation_base@DV?$string_output_adapter@D@__crt_stdio_output@@@2@@__crt_stdio_output@@QAEHXZ 1002c4eb f i libucrt:output.obj
 0001:0002b658       ?process@?$output_processor@DV?$string_output_adapter@D@__crt_stdio_output@@V?$positional_parameter_base@DV?$string_output_adapter@D@__crt_stdio_output@@@2@@__crt_stdio_output@@QAEHXZ 1002c658 f i libucrt:output.obj
 0001:0002b7d4       ?process@?$output_processor@DV?$string_output_adapter@D@__crt_stdio_output@@V?$standard_base@DV?$string_output_adapter@D@__crt_stdio_output@@@2@@__crt_stdio_output@@QAEHXZ 1002c7d4 f i libucrt:output.obj
 0001:0002b92d       ?process@?$output_processor@_WV?$stream_output_adapter@_W@__crt_stdio_output@@V?$format_validation_base@_WV?$stream_output_adapter@_W@__crt_stdio_output@@@2@@__crt_stdio_output@@QAEHXZ 1002c92d f i libucrt:output.obj
 0001:0002ba9f       ?process@?$output_processor@_WV?$stream_output_adapter@_W@__crt_stdio_output@@V?$positional_parameter_base@_WV?$stream_output_adapter@_W@__crt_stdio_output@@@2@@__crt_stdio_output@@QAEHXZ 1002ca9f f i libucrt:output.obj
 0001:0002bc20       ?process@?$output_processor@_WV?$stream_output_adapter@_W@__crt_stdio_output@@V?$standard_base@_WV?$stream_output_adapter@_W@__crt_stdio_output@@@2@@__crt_stdio_output@@QAEHXZ 1002cc20 f i libucrt:output.obj
 0001:0002bd83       ?process@?$output_processor@_WV?$string_output_adapter@_W@__crt_stdio_output@@V?$format_validation_base@_WV?$string_output_adapter@_W@__crt_stdio_output@@@2@@__crt_stdio_output@@QAEHXZ 1002cd83 f i libucrt:output.obj
 0001:0002bef5       ?process@?$output_processor@_WV?$string_output_adapter@_W@__crt_stdio_output@@V?$positional_parameter_base@_WV?$string_output_adapter@_W@__crt_stdio_output@@@2@@__crt_stdio_output@@QAEHXZ 1002cef5 f i libucrt:output.obj
 0001:0002c076       ?process@?$output_processor@_WV?$string_output_adapter@_W@__crt_stdio_output@@V?$standard_base@_WV?$string_output_adapter@_W@__crt_stdio_output@@@2@@__crt_stdio_output@@QAEHXZ 1002d076 f i libucrt:output.obj
 0001:0002c1d9       ?public_stream@__crt_stdio_stream@@QBEPAU_iobuf@@XZ 1002d1d9 f i libucrt:output.obj
 0001:0002c1dc       ?set_flag@?$output_processor@DV?$stream_output_adapter@D@__crt_stdio_output@@V?$format_validation_base@DV?$stream_output_adapter@D@__crt_stdio_output@@@2@@__crt_stdio_output@@AAEXI@Z 1002d1dc f i libucrt:output.obj
 0001:0002c1ee       ?set_flag@?$output_processor@DV?$stream_output_adapter@D@__crt_stdio_output@@V?$positional_parameter_base@DV?$stream_output_adapter@D@__crt_stdio_output@@@2@@__crt_stdio_output@@AAEXI@Z 1002d1ee f i libucrt:output.obj
 0001:0002c200       ?set_flag@?$output_processor@DV?$stream_output_adapter@D@__crt_stdio_output@@V?$standard_base@DV?$stream_output_adapter@D@__crt_stdio_output@@@2@@__crt_stdio_output@@AAEXI@Z 1002d200 f i libucrt:output.obj
 0001:0002c212       ?set_flag@?$output_processor@DV?$string_output_adapter@D@__crt_stdio_output@@V?$format_validation_base@DV?$string_output_adapter@D@__crt_stdio_output@@@2@@__crt_stdio_output@@AAEXI@Z 1002d212 f i libucrt:output.obj
 0001:0002c224       ?set_flag@?$output_processor@DV?$string_output_adapter@D@__crt_stdio_output@@V?$positional_parameter_base@DV?$string_output_adapter@D@__crt_stdio_output@@@2@@__crt_stdio_output@@AAEXI@Z 1002d224 f i libucrt:output.obj
 0001:0002c236       ?set_flag@?$output_processor@DV?$string_output_adapter@D@__crt_stdio_output@@V?$standard_base@DV?$string_output_adapter@D@__crt_stdio_output@@@2@@__crt_stdio_output@@AAEXI@Z 1002d236 f i libucrt:output.obj
 0001:0002c248       ?set_flag@?$output_processor@_WV?$stream_output_adapter@_W@__crt_stdio_output@@V?$format_validation_base@_WV?$stream_output_adapter@_W@__crt_stdio_output@@@2@@__crt_stdio_output@@AAEXI@Z 1002d248 f i libucrt:output.obj
 0001:0002c25a       ?set_flag@?$output_processor@_WV?$stream_output_adapter@_W@__crt_stdio_output@@V?$positional_parameter_base@_WV?$stream_output_adapter@_W@__crt_stdio_output@@@2@@__crt_stdio_output@@AAEXI@Z 1002d25a f i libucrt:output.obj
 0001:0002c26c       ?set_flag@?$output_processor@_WV?$stream_output_adapter@_W@__crt_stdio_output@@V?$standard_base@_WV?$stream_output_adapter@_W@__crt_stdio_output@@@2@@__crt_stdio_output@@AAEXI@Z 1002d26c f i libucrt:output.obj
 0001:0002c27e       ?set_flag@?$output_processor@_WV?$string_output_adapter@_W@__crt_stdio_output@@V?$format_validation_base@_WV?$string_output_adapter@_W@__crt_stdio_output@@@2@@__crt_stdio_output@@AAEXI@Z 1002d27e f i libucrt:output.obj
 0001:0002c290       ?set_flag@?$output_processor@_WV?$string_output_adapter@_W@__crt_stdio_output@@V?$positional_parameter_base@_WV?$string_output_adapter@_W@__crt_stdio_output@@@2@@__crt_stdio_output@@AAEXI@Z 1002d290 f i libucrt:output.obj
 0001:0002c2a2       ?set_flag@?$output_processor@_WV?$string_output_adapter@_W@__crt_stdio_output@@V?$standard_base@_WV?$string_output_adapter@_W@__crt_stdio_output@@@2@@__crt_stdio_output@@AAEXI@Z 1002d2a2 f i libucrt:output.obj
 0001:0002c2b4       ?should_format@?$positional_parameter_base@DV?$stream_output_adapter@D@__crt_stdio_output@@@__crt_stdio_output@@IAE_NXZ 1002d2b4 f i libucrt:output.obj
 0001:0002c2cf       ?should_format@?$positional_parameter_base@DV?$string_output_adapter@D@__crt_stdio_output@@@__crt_stdio_output@@IAE_NXZ 1002d2cf f i libucrt:output.obj
 0001:0002c2ea       ?should_format@?$positional_parameter_base@_WV?$stream_output_adapter@_W@__crt_stdio_output@@@__crt_stdio_output@@IAE_NXZ 1002d2ea f i libucrt:output.obj
 0001:0002c305       ?should_format@?$positional_parameter_base@_WV?$string_output_adapter@_W@__crt_stdio_output@@@__crt_stdio_output@@IAE_NXZ 1002d305 f i libucrt:output.obj
 0001:0002c320       ?should_format@?$standard_base@DV?$stream_output_adapter@D@__crt_stdio_output@@@__crt_stdio_output@@IAE_NXZ 1002d320 f i libucrt:output.obj
 0001:0002c323       ?should_format@?$standard_base@DV?$string_output_adapter@D@__crt_stdio_output@@@__crt_stdio_output@@IAE_NXZ 1002d323 f i libucrt:output.obj
 0001:0002c326       ?should_format@?$standard_base@_WV?$stream_output_adapter@_W@__crt_stdio_output@@@__crt_stdio_output@@IAE_NXZ 1002d326 f i libucrt:output.obj
 0001:0002c329       ?should_format@?$standard_base@_WV?$string_output_adapter@_W@__crt_stdio_output@@@__crt_stdio_output@@IAE_NXZ 1002d329 f i libucrt:output.obj
 0001:0002c32c       ?should_skip_normal_state_processing@?$positional_parameter_base@DV?$stream_output_adapter@D@__crt_stdio_output@@@__crt_stdio_output@@IAE_NXZ 1002d32c f i libucrt:output.obj
 0001:0002c35e       ?should_skip_normal_state_processing@?$positional_parameter_base@DV?$string_output_adapter@D@__crt_stdio_output@@@__crt_stdio_output@@IAE_NXZ 1002d35e f i libucrt:output.obj
 0001:0002c390       ?should_skip_normal_state_processing@?$positional_parameter_base@_WV?$stream_output_adapter@_W@__crt_stdio_output@@@__crt_stdio_output@@IAE_NXZ 1002d390 f i libucrt:output.obj
 0001:0002c3c2       ?should_skip_normal_state_processing@?$positional_parameter_base@_WV?$string_output_adapter@_W@__crt_stdio_output@@@__crt_stdio_output@@IAE_NXZ 1002d3c2 f i libucrt:output.obj
 0001:0002c3f4       ?should_skip_normal_state_processing@?$standard_base@DV?$stream_output_adapter@D@__crt_stdio_output@@@__crt_stdio_output@@IAE_NXZ 1002d3f4 f i libucrt:output.obj
 0001:0002c3f7       ?should_skip_normal_state_processing@?$standard_base@DV?$string_output_adapter@D@__crt_stdio_output@@@__crt_stdio_output@@IAE_NXZ 1002d3f7 f i libucrt:output.obj
 0001:0002c3fa       ?should_skip_normal_state_processing@?$standard_base@_WV?$stream_output_adapter@_W@__crt_stdio_output@@@__crt_stdio_output@@IAE_NXZ 1002d3fa f i libucrt:output.obj
 0001:0002c3fd       ?should_skip_normal_state_processing@?$standard_base@_WV?$string_output_adapter@_W@__crt_stdio_output@@@__crt_stdio_output@@IAE_NXZ 1002d3fd f i libucrt:output.obj
 0001:0002c400       ?should_skip_type_state_output@?$positional_parameter_base@DV?$stream_output_adapter@D@__crt_stdio_output@@@__crt_stdio_output@@IBE_NXZ 1002d400 f i libucrt:output.obj
 0001:0002c41c       ?should_skip_type_state_output@?$positional_parameter_base@DV?$string_output_adapter@D@__crt_stdio_output@@@__crt_stdio_output@@IBE_NXZ 1002d41c f i libucrt:output.obj
 0001:0002c438       ?should_skip_type_state_output@?$positional_parameter_base@_WV?$stream_output_adapter@_W@__crt_stdio_output@@@__crt_stdio_output@@IBE_NXZ 1002d438 f i libucrt:output.obj
 0001:0002c454       ?should_skip_type_state_output@?$positional_parameter_base@_WV?$string_output_adapter@_W@__crt_stdio_output@@@__crt_stdio_output@@IBE_NXZ 1002d454 f i libucrt:output.obj
 0001:0002c470       ?should_skip_type_state_output@?$standard_base@DV?$stream_output_adapter@D@__crt_stdio_output@@@__crt_stdio_output@@IBE_NXZ 1002d470 f i libucrt:output.obj
 0001:0002c473       ?should_skip_type_state_output@?$standard_base@DV?$string_output_adapter@D@__crt_stdio_output@@@__crt_stdio_output@@IBE_NXZ 1002d473 f i libucrt:output.obj
 0001:0002c476       ?should_skip_type_state_output@?$standard_base@_WV?$stream_output_adapter@_W@__crt_stdio_output@@@__crt_stdio_output@@IBE_NXZ 1002d476 f i libucrt:output.obj
 0001:0002c479       ?should_skip_type_state_output@?$standard_base@_WV?$string_output_adapter@_W@__crt_stdio_output@@@__crt_stdio_output@@IBE_NXZ 1002d479 f i libucrt:output.obj
 0001:0002c47c       ?state_case_dot@?$output_processor@DV?$stream_output_adapter@D@__crt_stdio_output@@V?$format_validation_base@DV?$stream_output_adapter@D@__crt_stdio_output@@@2@@__crt_stdio_output@@AAE_NXZ 1002d47c f i libucrt:output.obj
 0001:0002c483       ?state_case_dot@?$output_processor@DV?$stream_output_adapter@D@__crt_stdio_output@@V?$positional_parameter_base@DV?$stream_output_adapter@D@__crt_stdio_output@@@2@@__crt_stdio_output@@AAE_NXZ 1002d483 f i libucrt:output.obj
 0001:0002c48a       ?state_case_dot@?$output_processor@DV?$stream_output_adapter@D@__crt_stdio_output@@V?$standard_base@DV?$stream_output_adapter@D@__crt_stdio_output@@@2@@__crt_stdio_output@@AAE_NXZ 1002d48a f i libucrt:output.obj
 0001:0002c491       ?state_case_dot@?$output_processor@DV?$string_output_adapter@D@__crt_stdio_output@@V?$format_validation_base@DV?$string_output_adapter@D@__crt_stdio_output@@@2@@__crt_stdio_output@@AAE_NXZ 1002d491 f i libucrt:output.obj
 0001:0002c498       ?state_case_dot@?$output_processor@DV?$string_output_adapter@D@__crt_stdio_output@@V?$positional_parameter_base@DV?$string_output_adapter@D@__crt_stdio_output@@@2@@__crt_stdio_output@@AAE_NXZ 1002d498 f i libucrt:output.obj
 0001:0002c49f       ?state_case_dot@?$output_processor@DV?$string_output_adapter@D@__crt_stdio_output@@V?$standard_base@DV?$string_output_adapter@D@__crt_stdio_output@@@2@@__crt_stdio_output@@AAE_NXZ 1002d49f f i libucrt:output.obj
 0001:0002c4a6       ?state_case_dot@?$output_processor@_WV?$stream_output_adapter@_W@__crt_stdio_output@@V?$format_validation_base@_WV?$stream_output_adapter@_W@__crt_stdio_output@@@2@@__crt_stdio_output@@AAE_NXZ 1002d4a6 f i libucrt:output.obj
 0001:0002c4ad       ?state_case_dot@?$output_processor@_WV?$stream_output_adapter@_W@__crt_stdio_output@@V?$positional_parameter_base@_WV?$stream_output_adapter@_W@__crt_stdio_output@@@2@@__crt_stdio_output@@AAE_NXZ 1002d4ad f i libucrt:output.obj
 0001:0002c4b4       ?state_case_dot@?$output_processor@_WV?$stream_output_adapter@_W@__crt_stdio_output@@V?$standard_base@_WV?$stream_output_adapter@_W@__crt_stdio_output@@@2@@__crt_stdio_output@@AAE_NXZ 1002d4b4 f i libucrt:output.obj
 0001:0002c4bb       ?state_case_dot@?$output_processor@_WV?$string_output_adapter@_W@__crt_stdio_output@@V?$format_validation_base@_WV?$string_output_adapter@_W@__crt_stdio_output@@@2@@__crt_stdio_output@@AAE_NXZ 1002d4bb f i libucrt:output.obj
 0001:0002c4c2       ?state_case_dot@?$output_processor@_WV?$string_output_adapter@_W@__crt_stdio_output@@V?$positional_parameter_base@_WV?$string_output_adapter@_W@__crt_stdio_output@@@2@@__crt_stdio_output@@AAE_NXZ 1002d4c2 f i libucrt:output.obj
 0001:0002c4c9       ?state_case_dot@?$output_processor@_WV?$string_output_adapter@_W@__crt_stdio_output@@V?$standard_base@_WV?$string_output_adapter@_W@__crt_stdio_output@@@2@@__crt_stdio_output@@AAE_NXZ 1002d4c9 f i libucrt:output.obj
 0001:0002c4d0       ?state_case_flag@?$output_processor@DV?$stream_output_adapter@D@__crt_stdio_output@@V?$format_validation_base@DV?$stream_output_adapter@D@__crt_stdio_output@@@2@@__crt_stdio_output@@AAE_NXZ 1002d4d0 f i libucrt:output.obj
 0001:0002c51c       ?state_case_flag@?$output_processor@DV?$stream_output_adapter@D@__crt_stdio_output@@V?$positional_parameter_base@DV?$stream_output_adapter@D@__crt_stdio_output@@@2@@__crt_stdio_output@@AAE_NXZ 1002d51c f i libucrt:output.obj
 0001:0002c568       ?state_case_flag@?$output_processor@DV?$stream_output_adapter@D@__crt_stdio_output@@V?$standard_base@DV?$stream_output_adapter@D@__crt_stdio_output@@@2@@__crt_stdio_output@@AAE_NXZ 1002d568 f i libucrt:output.obj
 0001:0002c5b4       ?state_case_flag@?$output_processor@DV?$string_output_adapter@D@__crt_stdio_output@@V?$format_validation_base@DV?$string_output_adapter@D@__crt_stdio_output@@@2@@__crt_stdio_output@@AAE_NXZ 1002d5b4 f i libucrt:output.obj
 0001:0002c600       ?state_case_flag@?$output_processor@DV?$string_output_adapter@D@__crt_stdio_output@@V?$positional_parameter_base@DV?$string_output_adapter@D@__crt_stdio_output@@@2@@__crt_stdio_output@@AAE_NXZ 1002d600 f i libucrt:output.obj
 0001:0002c64c       ?state_case_flag@?$output_processor@DV?$string_output_adapter@D@__crt_stdio_output@@V?$standard_base@DV?$string_output_adapter@D@__crt_stdio_output@@@2@@__crt_stdio_output@@AAE_NXZ 1002d64c f i libucrt:output.obj
 0001:0002c698       ?state_case_flag@?$output_processor@_WV?$stream_output_adapter@_W@__crt_stdio_output@@V?$format_validation_base@_WV?$stream_output_adapter@_W@__crt_stdio_output@@@2@@__crt_stdio_output@@AAE_NXZ 1002d698 f i libucrt:output.obj
 0001:0002c6e4       ?state_case_flag@?$output_processor@_WV?$stream_output_adapter@_W@__crt_stdio_output@@V?$positional_parameter_base@_WV?$stream_output_adapter@_W@__crt_stdio_output@@@2@@__crt_stdio_output@@AAE_NXZ 1002d6e4 f i libucrt:output.obj
 0001:0002c730       ?state_case_flag@?$output_processor@_WV?$stream_output_adapter@_W@__crt_stdio_output@@V?$standard_base@_WV?$stream_output_adapter@_W@__crt_stdio_output@@@2@@__crt_stdio_output@@AAE_NXZ 1002d730 f i libucrt:output.obj
 0001:0002c77c       ?state_case_flag@?$output_processor@_WV?$string_output_adapter@_W@__crt_stdio_output@@V?$format_validation_base@_WV?$string_output_adapter@_W@__crt_stdio_output@@@2@@__crt_stdio_output@@AAE_NXZ 1002d77c f i libucrt:output.obj
 0001:0002c7c8       ?state_case_flag@?$output_processor@_WV?$string_output_adapter@_W@__crt_stdio_output@@V?$positional_parameter_base@_WV?$string_output_adapter@_W@__crt_stdio_output@@@2@@__crt_stdio_output@@AAE_NXZ 1002d7c8 f i libucrt:output.obj
 0001:0002c814       ?state_case_flag@?$output_processor@_WV?$string_output_adapter@_W@__crt_stdio_output@@V?$standard_base@_WV?$string_output_adapter@_W@__crt_stdio_output@@@2@@__crt_stdio_output@@AAE_NXZ 1002d814 f i libucrt:output.obj
 0001:0002c860       ?state_case_normal@?$output_processor@DV?$stream_output_adapter@D@__crt_stdio_output@@V?$format_validation_base@DV?$stream_output_adapter@D@__crt_stdio_output@@@2@@__crt_stdio_output@@AAE_NXZ 1002d860 f i libucrt:output.obj
 0001:0002c886       ?state_case_normal@?$output_processor@DV?$stream_output_adapter@D@__crt_stdio_output@@V?$positional_parameter_base@DV?$stream_output_adapter@D@__crt_stdio_output@@@2@@__crt_stdio_output@@AAE_NXZ 1002d886 f i libucrt:output.obj
 0001:0002c8c3       ?state_case_normal@?$output_processor@DV?$stream_output_adapter@D@__crt_stdio_output@@V?$standard_base@DV?$stream_output_adapter@D@__crt_stdio_output@@@2@@__crt_stdio_output@@AAE_NXZ 1002d8c3 f i libucrt:output.obj
 0001:0002c8e9       ?state_case_normal@?$output_processor@DV?$string_output_adapter@D@__crt_stdio_output@@V?$format_validation_base@DV?$string_output_adapter@D@__crt_stdio_output@@@2@@__crt_stdio_output@@AAE_NXZ 1002d8e9 f i libucrt:output.obj
 0001:0002c90f       ?state_case_normal@?$output_processor@DV?$string_output_adapter@D@__crt_stdio_output@@V?$positional_parameter_base@DV?$string_output_adapter@D@__crt_stdio_output@@@2@@__crt_stdio_output@@AAE_NXZ 1002d90f f i libucrt:output.obj
 0001:0002c94c       ?state_case_normal@?$output_processor@DV?$string_output_adapter@D@__crt_stdio_output@@V?$standard_base@DV?$string_output_adapter@D@__crt_stdio_output@@@2@@__crt_stdio_output@@AAE_NXZ 1002d94c f i libucrt:output.obj
 0001:0002c972       ?state_case_normal@?$output_processor@_WV?$stream_output_adapter@_W@__crt_stdio_output@@V?$format_validation_base@_WV?$stream_output_adapter@_W@__crt_stdio_output@@@2@@__crt_stdio_output@@AAE_NXZ 1002d972 f i libucrt:output.obj
 0001:0002c998       ?state_case_normal@?$output_processor@_WV?$stream_output_adapter@_W@__crt_stdio_output@@V?$positional_parameter_base@_WV?$stream_output_adapter@_W@__crt_stdio_output@@@2@@__crt_stdio_output@@AAE_NXZ 1002d998 f i libucrt:output.obj
 0001:0002c9d5       ?state_case_normal@?$output_processor@_WV?$stream_output_adapter@_W@__crt_stdio_output@@V?$standard_base@_WV?$stream_output_adapter@_W@__crt_stdio_output@@@2@@__crt_stdio_output@@AAE_NXZ 1002d9d5 f i libucrt:output.obj
 0001:0002c9fb       ?state_case_normal@?$output_processor@_WV?$string_output_adapter@_W@__crt_stdio_output@@V?$format_validation_base@_WV?$string_output_adapter@_W@__crt_stdio_output@@@2@@__crt_stdio_output@@AAE_NXZ 1002d9fb f i libucrt:output.obj
 0001:0002ca21       ?state_case_normal@?$output_processor@_WV?$string_output_adapter@_W@__crt_stdio_output@@V?$positional_parameter_base@_WV?$string_output_adapter@_W@__crt_stdio_output@@@2@@__crt_stdio_output@@AAE_NXZ 1002da21 f i libucrt:output.obj
 0001:0002ca5e       ?state_case_normal@?$output_processor@_WV?$string_output_adapter@_W@__crt_stdio_output@@V?$standard_base@_WV?$string_output_adapter@_W@__crt_stdio_output@@@2@@__crt_stdio_output@@AAE_NXZ 1002da5e f i libucrt:output.obj
 0001:0002ca84       ?state_case_normal_common@?$output_processor@DV?$stream_output_adapter@D@__crt_stdio_output@@V?$format_validation_base@DV?$stream_output_adapter@D@__crt_stdio_output@@@2@@__crt_stdio_output@@AAE_NXZ 1002da84 f i libucrt:output.obj
 0001:0002cacc       ?state_case_normal_common@?$output_processor@DV?$stream_output_adapter@D@__crt_stdio_output@@V?$positional_parameter_base@DV?$stream_output_adapter@D@__crt_stdio_output@@@2@@__crt_stdio_output@@AAE_NXZ 1002dacc f i libucrt:output.obj
 0001:0002cb14       ?state_case_normal_common@?$output_processor@DV?$stream_output_adapter@D@__crt_stdio_output@@V?$standard_base@DV?$stream_output_adapter@D@__crt_stdio_output@@@2@@__crt_stdio_output@@AAE_NXZ 1002db14 f i libucrt:output.obj
 0001:0002cb5c       ?state_case_normal_common@?$output_processor@DV?$string_output_adapter@D@__crt_stdio_output@@V?$format_validation_base@DV?$string_output_adapter@D@__crt_stdio_output@@@2@@__crt_stdio_output@@AAE_NXZ 1002db5c f i libucrt:output.obj
 0001:0002cb90       ?state_case_normal_common@?$output_processor@DV?$string_output_adapter@D@__crt_stdio_output@@V?$positional_parameter_base@DV?$string_output_adapter@D@__crt_stdio_output@@@2@@__crt_stdio_output@@AAE_NXZ 1002db90 f i libucrt:output.obj
 0001:0002cbc4       ?state_case_normal_common@?$output_processor@DV?$string_output_adapter@D@__crt_stdio_output@@V?$standard_base@DV?$string_output_adapter@D@__crt_stdio_output@@@2@@__crt_stdio_output@@AAE_NXZ 1002dbc4 f i libucrt:output.obj
 0001:0002cbf8       ?state_case_normal_common@?$output_processor@_WV?$stream_output_adapter@_W@__crt_stdio_output@@V?$format_validation_base@_WV?$stream_output_adapter@_W@__crt_stdio_output@@@2@@__crt_stdio_output@@AAE_NXZ 1002dbf8 f i libucrt:output.obj
 0001:0002cc2c       ?state_case_normal_common@?$output_processor@_WV?$stream_output_adapter@_W@__crt_stdio_output@@V?$positional_parameter_base@_WV?$stream_output_adapter@_W@__crt_stdio_output@@@2@@__crt_stdio_output@@AAE_NXZ 1002dc2c f i libucrt:output.obj
 0001:0002cc60       ?state_case_normal_common@?$output_processor@_WV?$stream_output_adapter@_W@__crt_stdio_output@@V?$standard_base@_WV?$stream_output_adapter@_W@__crt_stdio_output@@@2@@__crt_stdio_output@@AAE_NXZ 1002dc60 f i libucrt:output.obj
 0001:0002cc94       ?state_case_normal_common@?$output_processor@_WV?$string_output_adapter@_W@__crt_stdio_output@@V?$format_validation_base@_WV?$string_output_adapter@_W@__crt_stdio_output@@@2@@__crt_stdio_output@@AAE_NXZ 1002dc94 f i libucrt:output.obj
 0001:0002ccb5       ?state_case_normal_common@?$output_processor@_WV?$string_output_adapter@_W@__crt_stdio_output@@V?$positional_parameter_base@_WV?$string_output_adapter@_W@__crt_stdio_output@@@2@@__crt_stdio_output@@AAE_NXZ 1002dcb5 f i libucrt:output.obj
 0001:0002ccd6       ?state_case_normal_common@?$output_processor@_WV?$string_output_adapter@_W@__crt_stdio_output@@V?$standard_base@_WV?$string_output_adapter@_W@__crt_stdio_output@@@2@@__crt_stdio_output@@AAE_NXZ 1002dcd6 f i libucrt:output.obj
 0001:0002ccf7       ?state_case_normal_tchar@?$output_processor@DV?$stream_output_adapter@D@__crt_stdio_output@@V?$format_validation_base@DV?$stream_output_adapter@D@__crt_stdio_output@@@2@@__crt_stdio_output@@AAE_ND@Z 1002dcf7 f i libucrt:output.obj
 0001:0002cd7f       ?state_case_normal_tchar@?$output_processor@DV?$stream_output_adapter@D@__crt_stdio_output@@V?$positional_parameter_base@DV?$stream_output_adapter@D@__crt_stdio_output@@@2@@__crt_stdio_output@@AAE_ND@Z 1002dd7f f i libucrt:output.obj
 0001:0002ce07       ?state_case_normal_tchar@?$output_processor@DV?$stream_output_adapter@D@__crt_stdio_output@@V?$standard_base@DV?$stream_output_adapter@D@__crt_stdio_output@@@2@@__crt_stdio_output@@AAE_ND@Z 1002de07 f i libucrt:output.obj
 0001:0002ce8f       ?state_case_normal_tchar@?$output_processor@DV?$string_output_adapter@D@__crt_stdio_output@@V?$format_validation_base@DV?$string_output_adapter@D@__crt_stdio_output@@@2@@__crt_stdio_output@@AAE_ND@Z 1002de8f f i libucrt:output.obj
 0001:0002cf0c       ?state_case_normal_tchar@?$output_processor@DV?$string_output_adapter@D@__crt_stdio_output@@V?$positional_parameter_base@DV?$string_output_adapter@D@__crt_stdio_output@@@2@@__crt_stdio_output@@AAE_ND@Z 1002df0c f i libucrt:output.obj
 0001:0002cf89       ?state_case_normal_tchar@?$output_processor@DV?$string_output_adapter@D@__crt_stdio_output@@V?$standard_base@DV?$string_output_adapter@D@__crt_stdio_output@@@2@@__crt_stdio_output@@AAE_ND@Z 1002df89 f i libucrt:output.obj
 0001:0002d006       ?state_case_normal_tchar@?$output_processor@_WV?$stream_output_adapter@_W@__crt_stdio_output@@V?$format_validation_base@_WV?$stream_output_adapter@_W@__crt_stdio_output@@@2@@__crt_stdio_output@@AAE_N_W@Z 1002e006 f i libucrt:output.obj
 0001:0002d011       ?state_case_normal_tchar@?$output_processor@_WV?$stream_output_adapter@_W@__crt_stdio_output@@V?$positional_parameter_base@_WV?$stream_output_adapter@_W@__crt_stdio_output@@@2@@__crt_stdio_output@@AAE_N_W@Z 1002e011 f i libucrt:output.obj
 0001:0002d01c       ?state_case_normal_tchar@?$output_processor@_WV?$stream_output_adapter@_W@__crt_stdio_output@@V?$standard_base@_WV?$stream_output_adapter@_W@__crt_stdio_output@@@2@@__crt_stdio_output@@AAE_N_W@Z 1002e01c f i libucrt:output.obj
 0001:0002d027       ?state_case_normal_tchar@?$output_processor@_WV?$string_output_adapter@_W@__crt_stdio_output@@V?$format_validation_base@_WV?$string_output_adapter@_W@__crt_stdio_output@@@2@@__crt_stdio_output@@AAE_N_W@Z 1002e027 f i libucrt:output.obj
 0001:0002d032       ?state_case_normal_tchar@?$output_processor@_WV?$string_output_adapter@_W@__crt_stdio_output@@V?$positional_parameter_base@_WV?$string_output_adapter@_W@__crt_stdio_output@@@2@@__crt_stdio_output@@AAE_N_W@Z 1002e032 f i libucrt:output.obj
 0001:0002d03d       ?state_case_normal_tchar@?$output_processor@_WV?$string_output_adapter@_W@__crt_stdio_output@@V?$standard_base@_WV?$string_output_adapter@_W@__crt_stdio_output@@@2@@__crt_stdio_output@@AAE_N_W@Z 1002e03d f i libucrt:output.obj
 0001:0002d048       ?state_case_percent@?$output_processor@DV?$stream_output_adapter@D@__crt_stdio_output@@V?$format_validation_base@DV?$stream_output_adapter@D@__crt_stdio_output@@@2@@__crt_stdio_output@@AAE_NXZ 1002e048 f i libucrt:output.obj
 0001:0002d066       ?state_case_percent@?$output_processor@DV?$stream_output_adapter@D@__crt_stdio_output@@V?$positional_parameter_base@DV?$stream_output_adapter@D@__crt_stdio_output@@@2@@__crt_stdio_output@@AAE_NXZ 1002e066 f i libucrt:output.obj
 0001:0002d084       ?state_case_percent@?$output_processor@DV?$stream_output_adapter@D@__crt_stdio_output@@V?$standard_base@DV?$stream_output_adapter@D@__crt_stdio_output@@@2@@__crt_stdio_output@@AAE_NXZ 1002e084 f i libucrt:output.obj
 0001:0002d0a2       ?state_case_percent@?$output_processor@DV?$string_output_adapter@D@__crt_stdio_output@@V?$format_validation_base@DV?$string_output_adapter@D@__crt_stdio_output@@@2@@__crt_stdio_output@@AAE_NXZ 1002e0a2 f i libucrt:output.obj
 0001:0002d0c0       ?state_case_percent@?$output_processor@DV?$string_output_adapter@D@__crt_stdio_output@@V?$positional_parameter_base@DV?$string_output_adapter@D@__crt_stdio_output@@@2@@__crt_stdio_output@@AAE_NXZ 1002e0c0 f i libucrt:output.obj
 0001:0002d0de       ?state_case_percent@?$output_processor@DV?$string_output_adapter@D@__crt_stdio_output@@V?$standard_base@DV?$string_output_adapter@D@__crt_stdio_output@@@2@@__crt_stdio_output@@AAE_NXZ 1002e0de f i libucrt:output.obj
 0001:0002d0fc       ?state_case_percent@?$output_processor@_WV?$stream_output_adapter@_W@__crt_stdio_output@@V?$format_validation_base@_WV?$stream_output_adapter@_W@__crt_stdio_output@@@2@@__crt_stdio_output@@AAE_NXZ 1002e0fc f i libucrt:output.obj
 0001:0002d11a       ?state_case_percent@?$output_processor@_WV?$stream_output_adapter@_W@__crt_stdio_output@@V?$positional_parameter_base@_WV?$stream_output_adapter@_W@__crt_stdio_output@@@2@@__crt_stdio_output@@AAE_NXZ 1002e11a f i libucrt:output.obj
 0001:0002d138       ?state_case_percent@?$output_processor@_WV?$stream_output_adapter@_W@__crt_stdio_output@@V?$standard_base@_WV?$stream_output_adapter@_W@__crt_stdio_output@@@2@@__crt_stdio_output@@AAE_NXZ 1002e138 f i libucrt:output.obj
 0001:0002d156       ?state_case_percent@?$output_processor@_WV?$string_output_adapter@_W@__crt_stdio_output@@V?$format_validation_base@_WV?$string_output_adapter@_W@__crt_stdio_output@@@2@@__crt_stdio_output@@AAE_NXZ 1002e156 f i libucrt:output.obj
 0001:0002d174       ?state_case_percent@?$output_processor@_WV?$string_output_adapter@_W@__crt_stdio_output@@V?$positional_parameter_base@_WV?$string_output_adapter@_W@__crt_stdio_output@@@2@@__crt_stdio_output@@AAE_NXZ 1002e174 f i libucrt:output.obj
 0001:0002d192       ?state_case_percent@?$output_processor@_WV?$string_output_adapter@_W@__crt_stdio_output@@V?$standard_base@_WV?$string_output_adapter@_W@__crt_stdio_output@@@2@@__crt_stdio_output@@AAE_NXZ 1002e192 f i libucrt:output.obj
 0001:0002d1b0       ?state_case_precision@?$output_processor@DV?$stream_output_adapter@D@__crt_stdio_output@@V?$format_validation_base@DV?$stream_output_adapter@D@__crt_stdio_output@@@2@@__crt_stdio_output@@AAE_NXZ 1002e1b0 f i libucrt:output.obj
 0001:0002d1df       ?state_case_precision@?$output_processor@DV?$stream_output_adapter@D@__crt_stdio_output@@V?$positional_parameter_base@DV?$stream_output_adapter@D@__crt_stdio_output@@@2@@__crt_stdio_output@@AAE_NXZ 1002e1df f i libucrt:output.obj
 0001:0002d227       ?state_case_precision@?$output_processor@DV?$stream_output_adapter@D@__crt_stdio_output@@V?$standard_base@DV?$stream_output_adapter@D@__crt_stdio_output@@@2@@__crt_stdio_output@@AAE_NXZ 1002e227 f i libucrt:output.obj
 0001:0002d256       ?state_case_precision@?$output_processor@DV?$string_output_adapter@D@__crt_stdio_output@@V?$format_validation_base@DV?$string_output_adapter@D@__crt_stdio_output@@@2@@__crt_stdio_output@@AAE_NXZ 1002e256 f i libucrt:output.obj
 0001:0002d285       ?state_case_precision@?$output_processor@DV?$string_output_adapter@D@__crt_stdio_output@@V?$positional_parameter_base@DV?$string_output_adapter@D@__crt_stdio_output@@@2@@__crt_stdio_output@@AAE_NXZ 1002e285 f i libucrt:output.obj
 0001:0002d2cd       ?state_case_precision@?$output_processor@DV?$string_output_adapter@D@__crt_stdio_output@@V?$standard_base@DV?$string_output_adapter@D@__crt_stdio_output@@@2@@__crt_stdio_output@@AAE_NXZ 1002e2cd f i libucrt:output.obj
 0001:0002d2fc       ?state_case_precision@?$output_processor@_WV?$stream_output_adapter@_W@__crt_stdio_output@@V?$format_validation_base@_WV?$stream_output_adapter@_W@__crt_stdio_output@@@2@@__crt_stdio_output@@AAE_NXZ 1002e2fc f i libucrt:output.obj
 0001:0002d32c       ?state_case_precision@?$output_processor@_WV?$stream_output_adapter@_W@__crt_stdio_output@@V?$positional_parameter_base@_WV?$stream_output_adapter@_W@__crt_stdio_output@@@2@@__crt_stdio_output@@AAE_NXZ 1002e32c f i libucrt:output.obj
 0001:0002d375       ?state_case_precision@?$output_processor@_WV?$stream_output_adapter@_W@__crt_stdio_output@@V?$standard_base@_WV?$stream_output_adapter@_W@__crt_stdio_output@@@2@@__crt_stdio_output@@AAE_NXZ 1002e375 f i libucrt:output.obj
 0001:0002d3a5       ?state_case_precision@?$output_processor@_WV?$string_output_adapter@_W@__crt_stdio_output@@V?$format_validation_base@_WV?$string_output_adapter@_W@__crt_stdio_output@@@2@@__crt_stdio_output@@AAE_NXZ 1002e3a5 f i libucrt:output.obj
 0001:0002d3d5       ?state_case_precision@?$output_processor@_WV?$string_output_adapter@_W@__crt_stdio_output@@V?$positional_parameter_base@_WV?$string_output_adapter@_W@__crt_stdio_output@@@2@@__crt_stdio_output@@AAE_NXZ 1002e3d5 f i libucrt:output.obj
 0001:0002d41e       ?state_case_precision@?$output_processor@_WV?$string_output_adapter@_W@__crt_stdio_output@@V?$standard_base@_WV?$string_output_adapter@_W@__crt_stdio_output@@@2@@__crt_stdio_output@@AAE_NXZ 1002e41e f i libucrt:output.obj
 0001:0002d44e       ?state_case_size@?$output_processor@DV?$stream_output_adapter@D@__crt_stdio_output@@V?$format_validation_base@DV?$stream_output_adapter@D@__crt_stdio_output@@@2@@__crt_stdio_output@@AAE_NXZ 1002e44e f i libucrt:output.obj
 0001:0002d5ef       ?state_case_size@?$output_processor@DV?$stream_output_adapter@D@__crt_stdio_output@@V?$positional_parameter_base@DV?$stream_output_adapter@D@__crt_stdio_output@@@2@@__crt_stdio_output@@AAE_NXZ 1002e5ef f i libucrt:output.obj
 0001:0002d790       ?state_case_size@?$output_processor@DV?$stream_output_adapter@D@__crt_stdio_output@@V?$standard_base@DV?$stream_output_adapter@D@__crt_stdio_output@@@2@@__crt_stdio_output@@AAE_NXZ 1002e790 f i libucrt:output.obj
 0001:0002d931       ?state_case_size@?$output_processor@DV?$string_output_adapter@D@__crt_stdio_output@@V?$format_validation_base@DV?$string_output_adapter@D@__crt_stdio_output@@@2@@__crt_stdio_output@@AAE_NXZ 1002e931 f i libucrt:output.obj
 0001:0002dad2       ?state_case_size@?$output_processor@DV?$string_output_adapter@D@__crt_stdio_output@@V?$positional_parameter_base@DV?$string_output_adapter@D@__crt_stdio_output@@@2@@__crt_stdio_output@@AAE_NXZ 1002ead2 f i libucrt:output.obj
 0001:0002dc73       ?state_case_size@?$output_processor@DV?$string_output_adapter@D@__crt_stdio_output@@V?$standard_base@DV?$string_output_adapter@D@__crt_stdio_output@@@2@@__crt_stdio_output@@AAE_NXZ 1002ec73 f i libucrt:output.obj
 0001:0002de14       ?state_case_size@?$output_processor@_WV?$stream_output_adapter@_W@__crt_stdio_output@@V?$format_validation_base@_WV?$stream_output_adapter@_W@__crt_stdio_output@@@2@@__crt_stdio_output@@AAE_NXZ 1002ee14 f i libucrt:output.obj
 0001:0002dfea       ?state_case_size@?$output_processor@_WV?$stream_output_adapter@_W@__crt_stdio_output@@V?$positional_parameter_base@_WV?$stream_output_adapter@_W@__crt_stdio_output@@@2@@__crt_stdio_output@@AAE_NXZ 1002efea f i libucrt:output.obj
 0001:0002e1c0       ?state_case_size@?$output_processor@_WV?$stream_output_adapter@_W@__crt_stdio_output@@V?$standard_base@_WV?$stream_output_adapter@_W@__crt_stdio_output@@@2@@__crt_stdio_output@@AAE_NXZ 1002f1c0 f i libucrt:output.obj
 0001:0002e396       ?state_case_size@?$output_processor@_WV?$string_output_adapter@_W@__crt_stdio_output@@V?$format_validation_base@_WV?$string_output_adapter@_W@__crt_stdio_output@@@2@@__crt_stdio_output@@AAE_NXZ 1002f396 f i libucrt:output.obj
 0001:0002e56c       ?state_case_size@?$output_processor@_WV?$string_output_adapter@_W@__crt_stdio_output@@V?$positional_parameter_base@_WV?$string_output_adapter@_W@__crt_stdio_output@@@2@@__crt_stdio_output@@AAE_NXZ 1002f56c f i libucrt:output.obj
 0001:0002e742       ?state_case_size@?$output_processor@_WV?$string_output_adapter@_W@__crt_stdio_output@@V?$standard_base@_WV?$string_output_adapter@_W@__crt_stdio_output@@@2@@__crt_stdio_output@@AAE_NXZ 1002f742 f i libucrt:output.obj
 0001:0002e918       ?state_case_type@?$output_processor@DV?$stream_output_adapter@D@__crt_stdio_output@@V?$format_validation_base@DV?$stream_output_adapter@D@__crt_stdio_output@@@2@@__crt_stdio_output@@AAE_NXZ 1002f918 f i libucrt:output.obj
 0001:0002ebd6       ?state_case_type@?$output_processor@DV?$stream_output_adapter@D@__crt_stdio_output@@V?$positional_parameter_base@DV?$stream_output_adapter@D@__crt_stdio_output@@@2@@__crt_stdio_output@@AAE_NXZ 1002fbd6 f i libucrt:output.obj
 0001:0002eea7       ?state_case_type@?$output_processor@DV?$stream_output_adapter@D@__crt_stdio_output@@V?$standard_base@DV?$stream_output_adapter@D@__crt_stdio_output@@@2@@__crt_stdio_output@@AAE_NXZ 1002fea7 f i libucrt:output.obj
 0001:0002f165       ?state_case_type@?$output_processor@DV?$string_output_adapter@D@__crt_stdio_output@@V?$format_validation_base@DV?$string_output_adapter@D@__crt_stdio_output@@@2@@__crt_stdio_output@@AAE_NXZ 10030165 f i libucrt:output.obj
 0001:0002f423       ?state_case_type@?$output_processor@DV?$string_output_adapter@D@__crt_stdio_output@@V?$positional_parameter_base@DV?$string_output_adapter@D@__crt_stdio_output@@@2@@__crt_stdio_output@@AAE_NXZ 10030423 f i libucrt:output.obj
 0001:0002f6f4       ?state_case_type@?$output_processor@DV?$string_output_adapter@D@__crt_stdio_output@@V?$standard_base@DV?$string_output_adapter@D@__crt_stdio_output@@@2@@__crt_stdio_output@@AAE_NXZ 100306f4 f i libucrt:output.obj
 0001:0002f9b2       ?state_case_type@?$output_processor@_WV?$stream_output_adapter@_W@__crt_stdio_output@@V?$format_validation_base@_WV?$stream_output_adapter@_W@__crt_stdio_output@@@2@@__crt_stdio_output@@AAE_NXZ 100309b2 f i libucrt:output.obj
 0001:0002fcb0       ?state_case_type@?$output_processor@_WV?$stream_output_adapter@_W@__crt_stdio_output@@V?$positional_parameter_base@_WV?$stream_output_adapter@_W@__crt_stdio_output@@@2@@__crt_stdio_output@@AAE_NXZ 10030cb0 f i libucrt:output.obj
 0001:0002ffc1       ?state_case_type@?$output_processor@_WV?$stream_output_adapter@_W@__crt_stdio_output@@V?$standard_base@_WV?$stream_output_adapter@_W@__crt_stdio_output@@@2@@__crt_stdio_output@@AAE_NXZ 10030fc1 f i libucrt:output.obj
 0001:000302bf       ?state_case_type@?$output_processor@_WV?$string_output_adapter@_W@__crt_stdio_output@@V?$format_validation_base@_WV?$string_output_adapter@_W@__crt_stdio_output@@@2@@__crt_stdio_output@@AAE_NXZ 100312bf f i libucrt:output.obj
 0001:000305bd       ?state_case_type@?$output_processor@_WV?$string_output_adapter@_W@__crt_stdio_output@@V?$positional_parameter_base@_WV?$string_output_adapter@_W@__crt_stdio_output@@@2@@__crt_stdio_output@@AAE_NXZ 100315bd f i libucrt:output.obj
 0001:000308ce       ?state_case_type@?$output_processor@_WV?$string_output_adapter@_W@__crt_stdio_output@@V?$standard_base@_WV?$string_output_adapter@_W@__crt_stdio_output@@@2@@__crt_stdio_output@@AAE_NXZ 100318ce f i libucrt:output.obj
 0001:00030bcc       ?state_case_width@?$output_processor@DV?$stream_output_adapter@D@__crt_stdio_output@@V?$format_validation_base@DV?$stream_output_adapter@D@__crt_stdio_output@@@2@@__crt_stdio_output@@AAE_NXZ 10031bcc f i libucrt:output.obj
 0001:00030c01       ?state_case_width@?$output_processor@DV?$stream_output_adapter@D@__crt_stdio_output@@V?$positional_parameter_base@DV?$stream_output_adapter@D@__crt_stdio_output@@@2@@__crt_stdio_output@@AAE_NXZ 10031c01 f i libucrt:output.obj
 0001:00030c51       ?state_case_width@?$output_processor@DV?$stream_output_adapter@D@__crt_stdio_output@@V?$standard_base@DV?$stream_output_adapter@D@__crt_stdio_output@@@2@@__crt_stdio_output@@AAE_NXZ 10031c51 f i libucrt:output.obj
 0001:00030c86       ?state_case_width@?$output_processor@DV?$string_output_adapter@D@__crt_stdio_output@@V?$format_validation_base@DV?$string_output_adapter@D@__crt_stdio_output@@@2@@__crt_stdio_output@@AAE_NXZ 10031c86 f i libucrt:output.obj
 0001:00030cbb       ?state_case_width@?$output_processor@DV?$string_output_adapter@D@__crt_stdio_output@@V?$positional_parameter_base@DV?$string_output_adapter@D@__crt_stdio_output@@@2@@__crt_stdio_output@@AAE_NXZ 10031cbb f i libucrt:output.obj
 0001:00030d0b       ?state_case_width@?$output_processor@DV?$string_output_adapter@D@__crt_stdio_output@@V?$standard_base@DV?$string_output_adapter@D@__crt_stdio_output@@@2@@__crt_stdio_output@@AAE_NXZ 10031d0b f i libucrt:output.obj
 0001:00030d40       ?state_case_width@?$output_processor@_WV?$stream_output_adapter@_W@__crt_stdio_output@@V?$format_validation_base@_WV?$stream_output_adapter@_W@__crt_stdio_output@@@2@@__crt_stdio_output@@AAE_NXZ 10031d40 f i libucrt:output.obj
 0001:00030d77       ?state_case_width@?$output_processor@_WV?$stream_output_adapter@_W@__crt_stdio_output@@V?$positional_parameter_base@_WV?$stream_output_adapter@_W@__crt_stdio_output@@@2@@__crt_stdio_output@@AAE_NXZ 10031d77 f i libucrt:output.obj
 0001:00030dc8       ?state_case_width@?$output_processor@_WV?$stream_output_adapter@_W@__crt_stdio_output@@V?$standard_base@_WV?$stream_output_adapter@_W@__crt_stdio_output@@@2@@__crt_stdio_output@@AAE_NXZ 10031dc8 f i libucrt:output.obj
 0001:00030dff       ?state_case_width@?$output_processor@_WV?$string_output_adapter@_W@__crt_stdio_output@@V?$format_validation_base@_WV?$string_output_adapter@_W@__crt_stdio_output@@@2@@__crt_stdio_output@@AAE_NXZ 10031dff f i libucrt:output.obj
 0001:00030e36       ?state_case_width@?$output_processor@_WV?$string_output_adapter@_W@__crt_stdio_output@@V?$positional_parameter_base@_WV?$string_output_adapter@_W@__crt_stdio_output@@@2@@__crt_stdio_output@@AAE_NXZ 10031e36 f i libucrt:output.obj
 0001:00030e87       ?state_case_width@?$output_processor@_WV?$string_output_adapter@_W@__crt_stdio_output@@V?$standard_base@_WV?$string_output_adapter@_W@__crt_stdio_output@@@2@@__crt_stdio_output@@AAE_NXZ 10031e87 f i libucrt:output.obj
 0001:00030ebe       ?state_count@?$format_validation_base@DV?$stream_output_adapter@D@__crt_stdio_output@@@__crt_stdio_output@@KAIXZ 10031ebe f i libucrt:output.obj
 0001:00030ec2       ?state_count@?$format_validation_base@DV?$string_output_adapter@D@__crt_stdio_output@@@__crt_stdio_output@@KAIXZ 10031ec2 f i libucrt:output.obj
 0001:00030ec6       ?state_count@?$format_validation_base@_WV?$stream_output_adapter@_W@__crt_stdio_output@@@__crt_stdio_output@@KAIXZ 10031ec6 f i libucrt:output.obj
 0001:00030eca       ?state_count@?$format_validation_base@_WV?$string_output_adapter@_W@__crt_stdio_output@@@__crt_stdio_output@@KAIXZ 10031eca f i libucrt:output.obj
 0001:00030ece       ?state_count@?$standard_base@DV?$stream_output_adapter@D@__crt_stdio_output@@@__crt_stdio_output@@KAIXZ 10031ece f i libucrt:output.obj
 0001:00030ed2       ?state_count@?$standard_base@DV?$string_output_adapter@D@__crt_stdio_output@@@__crt_stdio_output@@KAIXZ 10031ed2 f i libucrt:output.obj
 0001:00030ed6       ?state_count@?$standard_base@_WV?$stream_output_adapter@_W@__crt_stdio_output@@@__crt_stdio_output@@KAIXZ 10031ed6 f i libucrt:output.obj
 0001:00030eda       ?state_count@?$standard_base@_WV?$string_output_adapter@_W@__crt_stdio_output@@@__crt_stdio_output@@KAIXZ 10031eda f i libucrt:output.obj
 0001:00030ede       ?state_transition_table@?$format_validation_base@DV?$stream_output_adapter@D@__crt_stdio_output@@@__crt_stdio_output@@KAPBEXZ 10031ede f i libucrt:output.obj
 0001:00030ee4       ?state_transition_table@?$format_validation_base@DV?$string_output_adapter@D@__crt_stdio_output@@@__crt_stdio_output@@KAPBEXZ 10031ee4 f i libucrt:output.obj
 0001:00030eea       ?state_transition_table@?$format_validation_base@_WV?$stream_output_adapter@_W@__crt_stdio_output@@@__crt_stdio_output@@KAPBEXZ 10031eea f i libucrt:output.obj
 0001:00030ef0       ?state_transition_table@?$format_validation_base@_WV?$string_output_adapter@_W@__crt_stdio_output@@@__crt_stdio_output@@KAPBEXZ 10031ef0 f i libucrt:output.obj
 0001:00030ef6       ?state_transition_table@?$standard_base@DV?$stream_output_adapter@D@__crt_stdio_output@@@__crt_stdio_output@@KAPBEXZ 10031ef6 f i libucrt:output.obj
 0001:00030efc       ?state_transition_table@?$standard_base@DV?$string_output_adapter@D@__crt_stdio_output@@@__crt_stdio_output@@KAPBEXZ 10031efc f i libucrt:output.obj
 0001:00030f02       ?state_transition_table@?$standard_base@_WV?$stream_output_adapter@_W@__crt_stdio_output@@@__crt_stdio_output@@KAPBEXZ 10031f02 f i libucrt:output.obj
 0001:00030f08       ?state_transition_table@?$standard_base@_WV?$string_output_adapter@_W@__crt_stdio_output@@@__crt_stdio_output@@KAPBEXZ 10031f08 f i libucrt:output.obj
 0001:00030f0e       ?tchar_string@?$common_data@D@__crt_stdio_output@@IAEAAPADD@Z 10031f0e f i libucrt:output.obj
 0001:00030f14       ?tchar_string@?$common_data@D@__crt_stdio_output@@IAEAAPADXZ 10031f14 f i libucrt:output.obj
 0001:00030f18       ?tchar_string@?$common_data@_W@__crt_stdio_output@@IAEAAPA_WXZ 10031f18 f i libucrt:output.obj
 0001:00030f1c       ?tchar_string@?$common_data@_W@__crt_stdio_output@@IAEAAPA_W_W@Z 10031f1c f i libucrt:output.obj
 0001:00030f22       ?to_integer_size@__crt_stdio_output@@YAIW4length_modifier@1@@Z 10031f22 f i libucrt:output.obj
 0001:00030f8b       ?type_case_X@?$output_processor@DV?$stream_output_adapter@D@__crt_stdio_output@@V?$format_validation_base@DV?$stream_output_adapter@D@__crt_stdio_output@@@2@@__crt_stdio_output@@AAE_NXZ 10031f8b f i libucrt:output.obj
 0001:00030f97       ?type_case_X@?$output_processor@DV?$stream_output_adapter@D@__crt_stdio_output@@V?$positional_parameter_base@DV?$stream_output_adapter@D@__crt_stdio_output@@@2@@__crt_stdio_output@@AAE_NXZ 10031f97 f i libucrt:output.obj
 0001:00030fa3       ?type_case_X@?$output_processor@DV?$stream_output_adapter@D@__crt_stdio_output@@V?$standard_base@DV?$stream_output_adapter@D@__crt_stdio_output@@@2@@__crt_stdio_output@@AAE_NXZ 10031fa3 f i libucrt:output.obj
 0001:00030faf       ?type_case_X@?$output_processor@DV?$string_output_adapter@D@__crt_stdio_output@@V?$format_validation_base@DV?$string_output_adapter@D@__crt_stdio_output@@@2@@__crt_stdio_output@@AAE_NXZ 10031faf f i libucrt:output.obj
 0001:00030fbb       ?type_case_X@?$output_processor@DV?$string_output_adapter@D@__crt_stdio_output@@V?$positional_parameter_base@DV?$string_output_adapter@D@__crt_stdio_output@@@2@@__crt_stdio_output@@AAE_NXZ 10031fbb f i libucrt:output.obj
 0001:00030fc7       ?type_case_X@?$output_processor@DV?$string_output_adapter@D@__crt_stdio_output@@V?$standard_base@DV?$string_output_adapter@D@__crt_stdio_output@@@2@@__crt_stdio_output@@AAE_NXZ 10031fc7 f i libucrt:output.obj
 0001:00030fd3       ?type_case_X@?$output_processor@_WV?$stream_output_adapter@_W@__crt_stdio_output@@V?$format_validation_base@_WV?$stream_output_adapter@_W@__crt_stdio_output@@@2@@__crt_stdio_output@@AAE_NXZ 10031fd3 f i libucrt:output.obj
 0001:00030fdf       ?type_case_X@?$output_processor@_WV?$stream_output_adapter@_W@__crt_stdio_output@@V?$positional_parameter_base@_WV?$stream_output_adapter@_W@__crt_stdio_output@@@2@@__crt_stdio_output@@AAE_NXZ 10031fdf f i libucrt:output.obj
 0001:00030feb       ?type_case_X@?$output_processor@_WV?$stream_output_adapter@_W@__crt_stdio_output@@V?$standard_base@_WV?$stream_output_adapter@_W@__crt_stdio_output@@@2@@__crt_stdio_output@@AAE_NXZ 10031feb f i libucrt:output.obj
 0001:00030ff7       ?type_case_X@?$output_processor@_WV?$string_output_adapter@_W@__crt_stdio_output@@V?$format_validation_base@_WV?$string_output_adapter@_W@__crt_stdio_output@@@2@@__crt_stdio_output@@AAE_NXZ 10031ff7 f i libucrt:output.obj
 0001:00031003       ?type_case_X@?$output_processor@_WV?$string_output_adapter@_W@__crt_stdio_output@@V?$positional_parameter_base@_WV?$string_output_adapter@_W@__crt_stdio_output@@@2@@__crt_stdio_output@@AAE_NXZ 10032003 f i libucrt:output.obj
 0001:0003100f       ?type_case_X@?$output_processor@_WV?$string_output_adapter@_W@__crt_stdio_output@@V?$standard_base@_WV?$string_output_adapter@_W@__crt_stdio_output@@@2@@__crt_stdio_output@@AAE_NXZ 1003200f f i libucrt:output.obj
 0001:0003101b       ?type_case_Z@?$output_processor@DV?$stream_output_adapter@D@__crt_stdio_output@@V?$format_validation_base@DV?$stream_output_adapter@D@__crt_stdio_output@@@2@@__crt_stdio_output@@AAE_NXZ 1003201b f i libucrt:output.obj
 0001:0003108b       ?type_case_Z@?$output_processor@DV?$stream_output_adapter@D@__crt_stdio_output@@V?$positional_parameter_base@DV?$stream_output_adapter@D@__crt_stdio_output@@@2@@__crt_stdio_output@@AAE_NXZ 1003208b f i libucrt:output.obj
 0001:00031199       ?type_case_Z@?$output_processor@DV?$stream_output_adapter@D@__crt_stdio_output@@V?$standard_base@DV?$stream_output_adapter@D@__crt_stdio_output@@@2@@__crt_stdio_output@@AAE_NXZ 10032199 f i libucrt:output.obj
 0001:00031209       ?type_case_Z@?$output_processor@DV?$string_output_adapter@D@__crt_stdio_output@@V?$format_validation_base@DV?$string_output_adapter@D@__crt_stdio_output@@@2@@__crt_stdio_output@@AAE_NXZ 10032209 f i libucrt:output.obj
 0001:00031279       ?type_case_Z@?$output_processor@DV?$string_output_adapter@D@__crt_stdio_output@@V?$positional_parameter_base@DV?$string_output_adapter@D@__crt_stdio_output@@@2@@__crt_stdio_output@@AAE_NXZ 10032279 f i libucrt:output.obj
 0001:00031387       ?type_case_Z@?$output_processor@DV?$string_output_adapter@D@__crt_stdio_output@@V?$standard_base@DV?$string_output_adapter@D@__crt_stdio_output@@@2@@__crt_stdio_output@@AAE_NXZ 10032387 f i libucrt:output.obj
 0001:000313f7       ?type_case_Z@?$output_processor@_WV?$stream_output_adapter@_W@__crt_stdio_output@@V?$format_validation_base@_WV?$stream_output_adapter@_W@__crt_stdio_output@@@2@@__crt_stdio_output@@AAE_NXZ 100323f7 f i libucrt:output.obj
 0001:00031467       ?type_case_Z@?$output_processor@_WV?$stream_output_adapter@_W@__crt_stdio_output@@V?$positional_parameter_base@_WV?$stream_output_adapter@_W@__crt_stdio_output@@@2@@__crt_stdio_output@@AAE_NXZ 10032467 f i libucrt:output.obj
 0001:00031575       ?type_case_Z@?$output_processor@_WV?$stream_output_adapter@_W@__crt_stdio_output@@V?$standard_base@_WV?$stream_output_adapter@_W@__crt_stdio_output@@@2@@__crt_stdio_output@@AAE_NXZ 10032575 f i libucrt:output.obj
 0001:000315e5       ?type_case_Z@?$output_processor@_WV?$string_output_adapter@_W@__crt_stdio_output@@V?$format_validation_base@_WV?$string_output_adapter@_W@__crt_stdio_output@@@2@@__crt_stdio_output@@AAE_NXZ 100325e5 f i libucrt:output.obj
 0001:00031655       ?type_case_Z@?$output_processor@_WV?$string_output_adapter@_W@__crt_stdio_output@@V?$positional_parameter_base@_WV?$string_output_adapter@_W@__crt_stdio_output@@@2@@__crt_stdio_output@@AAE_NXZ 10032655 f i libucrt:output.obj
 0001:00031763       ?type_case_Z@?$output_processor@_WV?$string_output_adapter@_W@__crt_stdio_output@@V?$standard_base@_WV?$string_output_adapter@_W@__crt_stdio_output@@@2@@__crt_stdio_output@@AAE_NXZ 10032763 f i libucrt:output.obj
 0001:000317d3       ?type_case_a@?$output_processor@DV?$stream_output_adapter@D@__crt_stdio_output@@V?$format_validation_base@DV?$stream_output_adapter@D@__crt_stdio_output@@@2@@__crt_stdio_output@@AAE_NXZ 100327d3 f i libucrt:output.obj
 0001:00031975       ?type_case_a@?$output_processor@DV?$stream_output_adapter@D@__crt_stdio_output@@V?$positional_parameter_base@DV?$stream_output_adapter@D@__crt_stdio_output@@@2@@__crt_stdio_output@@AAE_NXZ 10032975 f i libucrt:output.obj
 0001:00031b4e       ?type_case_a@?$output_processor@DV?$stream_output_adapter@D@__crt_stdio_output@@V?$standard_base@DV?$stream_output_adapter@D@__crt_stdio_output@@@2@@__crt_stdio_output@@AAE_NXZ 10032b4e f i libucrt:output.obj
 0001:00031cf0       ?type_case_a@?$output_processor@DV?$string_output_adapter@D@__crt_stdio_output@@V?$format_validation_base@DV?$string_output_adapter@D@__crt_stdio_output@@@2@@__crt_stdio_output@@AAE_NXZ 10032cf0 f i libucrt:output.obj
 0001:00031e92       ?type_case_a@?$output_processor@DV?$string_output_adapter@D@__crt_stdio_output@@V?$positional_parameter_base@DV?$string_output_adapter@D@__crt_stdio_output@@@2@@__crt_stdio_output@@AAE_NXZ 10032e92 f i libucrt:output.obj
 0001:0003206b       ?type_case_a@?$output_processor@DV?$string_output_adapter@D@__crt_stdio_output@@V?$standard_base@DV?$string_output_adapter@D@__crt_stdio_output@@@2@@__crt_stdio_output@@AAE_NXZ 1003306b f i libucrt:output.obj
 0001:0003220d       ?type_case_a@?$output_processor@_WV?$stream_output_adapter@_W@__crt_stdio_output@@V?$format_validation_base@_WV?$stream_output_adapter@_W@__crt_stdio_output@@@2@@__crt_stdio_output@@AAE_NXZ 1003320d f i libucrt:output.obj
 0001:000323cb       ?type_case_a@?$output_processor@_WV?$stream_output_adapter@_W@__crt_stdio_output@@V?$positional_parameter_base@_WV?$stream_output_adapter@_W@__crt_stdio_output@@@2@@__crt_stdio_output@@AAE_NXZ 100333cb f i libucrt:output.obj
 0001:000325c0       ?type_case_a@?$output_processor@_WV?$stream_output_adapter@_W@__crt_stdio_output@@V?$standard_base@_WV?$stream_output_adapter@_W@__crt_stdio_output@@@2@@__crt_stdio_output@@AAE_NXZ 100335c0 f i libucrt:output.obj
 0001:0003277e       ?type_case_a@?$output_processor@_WV?$string_output_adapter@_W@__crt_stdio_output@@V?$format_validation_base@_WV?$string_output_adapter@_W@__crt_stdio_output@@@2@@__crt_stdio_output@@AAE_NXZ 1003377e f i libucrt:output.obj
 0001:0003293c       ?type_case_a@?$output_processor@_WV?$string_output_adapter@_W@__crt_stdio_output@@V?$positional_parameter_base@_WV?$string_output_adapter@_W@__crt_stdio_output@@@2@@__crt_stdio_output@@AAE_NXZ 1003393c f i libucrt:output.obj
 0001:00032b31       ?type_case_a@?$output_processor@_WV?$string_output_adapter@_W@__crt_stdio_output@@V?$standard_base@_WV?$string_output_adapter@_W@__crt_stdio_output@@@2@@__crt_stdio_output@@AAE_NXZ 10033b31 f i libucrt:output.obj
 0001:00032cef       ?type_case_c@?$output_processor@DV?$stream_output_adapter@D@__crt_stdio_output@@V?$format_validation_base@DV?$stream_output_adapter@D@__crt_stdio_output@@@2@@__crt_stdio_output@@AAE_NXZ 10033cef f i libucrt:output.obj
 0001:00032cf9       ?type_case_c@?$output_processor@DV?$stream_output_adapter@D@__crt_stdio_output@@V?$positional_parameter_base@DV?$stream_output_adapter@D@__crt_stdio_output@@@2@@__crt_stdio_output@@AAE_NXZ 10033cf9 f i libucrt:output.obj
 0001:00032d03       ?type_case_c@?$output_processor@DV?$stream_output_adapter@D@__crt_stdio_output@@V?$standard_base@DV?$stream_output_adapter@D@__crt_stdio_output@@@2@@__crt_stdio_output@@AAE_NXZ 10033d03 f i libucrt:output.obj
 0001:00032d0d       ?type_case_c@?$output_processor@DV?$string_output_adapter@D@__crt_stdio_output@@V?$format_validation_base@DV?$string_output_adapter@D@__crt_stdio_output@@@2@@__crt_stdio_output@@AAE_NXZ 10033d0d f i libucrt:output.obj
 0001:00032d17       ?type_case_c@?$output_processor@DV?$string_output_adapter@D@__crt_stdio_output@@V?$positional_parameter_base@DV?$string_output_adapter@D@__crt_stdio_output@@@2@@__crt_stdio_output@@AAE_NXZ 10033d17 f i libucrt:output.obj
 0001:00032d21       ?type_case_c@?$output_processor@DV?$string_output_adapter@D@__crt_stdio_output@@V?$standard_base@DV?$string_output_adapter@D@__crt_stdio_output@@@2@@__crt_stdio_output@@AAE_NXZ 10033d21 f i libucrt:output.obj
 0001:00032d2b       ?type_case_c@?$output_processor@_WV?$stream_output_adapter@_W@__crt_stdio_output@@V?$format_validation_base@_WV?$stream_output_adapter@_W@__crt_stdio_output@@@2@@__crt_stdio_output@@AAE_NXZ 10033d2b f i libucrt:output.obj
 0001:00032d35       ?type_case_c@?$output_processor@_WV?$stream_output_adapter@_W@__crt_stdio_output@@V?$positional_parameter_base@_WV?$stream_output_adapter@_W@__crt_stdio_output@@@2@@__crt_stdio_output@@AAE_NXZ 10033d35 f i libucrt:output.obj
 0001:00032d3f       ?type_case_c@?$output_processor@_WV?$stream_output_adapter@_W@__crt_stdio_output@@V?$standard_base@_WV?$stream_output_adapter@_W@__crt_stdio_output@@@2@@__crt_stdio_output@@AAE_NXZ 10033d3f f i libucrt:output.obj
 0001:00032d49       ?type_case_c@?$output_processor@_WV?$string_output_adapter@_W@__crt_stdio_output@@V?$format_validation_base@_WV?$string_output_adapter@_W@__crt_stdio_output@@@2@@__crt_stdio_output@@AAE_NXZ 10033d49 f i libucrt:output.obj
 0001:00032d53       ?type_case_c@?$output_processor@_WV?$string_output_adapter@_W@__crt_stdio_output@@V?$positional_parameter_base@_WV?$string_output_adapter@_W@__crt_stdio_output@@@2@@__crt_stdio_output@@AAE_NXZ 10033d53 f i libucrt:output.obj
 0001:00032d5d       ?type_case_c@?$output_processor@_WV?$string_output_adapter@_W@__crt_stdio_output@@V?$standard_base@_WV?$string_output_adapter@_W@__crt_stdio_output@@@2@@__crt_stdio_output@@AAE_NXZ 10033d5d f i libucrt:output.obj
 0001:00032d67       ?type_case_c_tchar@?$output_processor@DV?$stream_output_adapter@D@__crt_stdio_output@@V?$format_validation_base@DV?$stream_output_adapter@D@__crt_stdio_output@@@2@@__crt_stdio_output@@AAE_ND@Z 10033d67 f i libucrt:output.obj
 0001:00032e1b       ?type_case_c_tchar@?$output_processor@DV?$stream_output_adapter@D@__crt_stdio_output@@V?$positional_parameter_base@DV?$stream_output_adapter@D@__crt_stdio_output@@@2@@__crt_stdio_output@@AAE_ND@Z 10033e1b f i libucrt:output.obj
 0001:00032f08       ?type_case_c_tchar@?$output_processor@DV?$stream_output_adapter@D@__crt_stdio_output@@V?$standard_base@DV?$stream_output_adapter@D@__crt_stdio_output@@@2@@__crt_stdio_output@@AAE_ND@Z 10033f08 f i libucrt:output.obj
 0001:00032fbc       ?type_case_c_tchar@?$output_processor@DV?$string_output_adapter@D@__crt_stdio_output@@V?$format_validation_base@DV?$string_output_adapter@D@__crt_stdio_output@@@2@@__crt_stdio_output@@AAE_ND@Z 10033fbc f i libucrt:output.obj
 0001:00033070       ?type_case_c_tchar@?$output_processor@DV?$string_output_adapter@D@__crt_stdio_output@@V?$positional_parameter_base@DV?$string_output_adapter@D@__crt_stdio_output@@@2@@__crt_stdio_output@@AAE_ND@Z 10034070 f i libucrt:output.obj
 0001:0003315d       ?type_case_c_tchar@?$output_processor@DV?$string_output_adapter@D@__crt_stdio_output@@V?$standard_base@DV?$string_output_adapter@D@__crt_stdio_output@@@2@@__crt_stdio_output@@AAE_ND@Z 1003415d f i libucrt:output.obj
 0001:00033211       ?type_case_c_tchar@?$output_processor@_WV?$stream_output_adapter@_W@__crt_stdio_output@@V?$format_validation_base@_WV?$stream_output_adapter@_W@__crt_stdio_output@@@2@@__crt_stdio_output@@AAE_N_W@Z 10034211 f i libucrt:output.obj
 0001:000332cc       ?type_case_c_tchar@?$output_processor@_WV?$stream_output_adapter@_W@__crt_stdio_output@@V?$positional_parameter_base@_WV?$stream_output_adapter@_W@__crt_stdio_output@@@2@@__crt_stdio_output@@AAE_N_W@Z 100342cc f i libucrt:output.obj
 0001:000333a4       ?type_case_c_tchar@?$output_processor@_WV?$stream_output_adapter@_W@__crt_stdio_output@@V?$standard_base@_WV?$stream_output_adapter@_W@__crt_stdio_output@@@2@@__crt_stdio_output@@AAE_N_W@Z 100343a4 f i libucrt:output.obj
 0001:0003345f       ?type_case_c_tchar@?$output_processor@_WV?$string_output_adapter@_W@__crt_stdio_output@@V?$format_validation_base@_WV?$string_output_adapter@_W@__crt_stdio_output@@@2@@__crt_stdio_output@@AAE_N_W@Z 1003445f f i libucrt:output.obj
 0001:0003351a       ?type_case_c_tchar@?$output_processor@_WV?$string_output_adapter@_W@__crt_stdio_output@@V?$positional_parameter_base@_WV?$string_output_adapter@_W@__crt_stdio_output@@@2@@__crt_stdio_output@@AAE_N_W@Z 1003451a f i libucrt:output.obj
 0001:000335f2       ?type_case_c_tchar@?$output_processor@_WV?$string_output_adapter@_W@__crt_stdio_output@@V?$standard_base@_WV?$string_output_adapter@_W@__crt_stdio_output@@@2@@__crt_stdio_output@@AAE_N_W@Z 100345f2 f i libucrt:output.obj
 0001:000336ad       ?type_case_d@?$output_processor@DV?$stream_output_adapter@D@__crt_stdio_output@@V?$format_validation_base@DV?$stream_output_adapter@D@__crt_stdio_output@@@2@@__crt_stdio_output@@AAE_NXZ 100346ad f i libucrt:output.obj
 0001:000336be       ?type_case_d@?$output_processor@DV?$stream_output_adapter@D@__crt_stdio_output@@V?$positional_parameter_base@DV?$stream_output_adapter@D@__crt_stdio_output@@@2@@__crt_stdio_output@@AAE_NXZ 100346be f i libucrt:output.obj
 0001:000336cf       ?type_case_d@?$output_processor@DV?$stream_output_adapter@D@__crt_stdio_output@@V?$standard_base@DV?$stream_output_adapter@D@__crt_stdio_output@@@2@@__crt_stdio_output@@AAE_NXZ 100346cf f i libucrt:output.obj
 0001:000336e0       ?type_case_d@?$output_processor@DV?$string_output_adapter@D@__crt_stdio_output@@V?$format_validation_base@DV?$string_output_adapter@D@__crt_stdio_output@@@2@@__crt_stdio_output@@AAE_NXZ 100346e0 f i libucrt:output.obj
 0001:000336f1       ?type_case_d@?$output_processor@DV?$string_output_adapter@D@__crt_stdio_output@@V?$positional_parameter_base@DV?$string_output_adapter@D@__crt_stdio_output@@@2@@__crt_stdio_output@@AAE_NXZ 100346f1 f i libucrt:output.obj
 0001:00033702       ?type_case_d@?$output_processor@DV?$string_output_adapter@D@__crt_stdio_output@@V?$standard_base@DV?$string_output_adapter@D@__crt_stdio_output@@@2@@__crt_stdio_output@@AAE_NXZ 10034702 f i libucrt:output.obj
 0001:00033713       ?type_case_d@?$output_processor@_WV?$stream_output_adapter@_W@__crt_stdio_output@@V?$format_validation_base@_WV?$stream_output_adapter@_W@__crt_stdio_output@@@2@@__crt_stdio_output@@AAE_NXZ 10034713 f i libucrt:output.obj
 0001:00033724       ?type_case_d@?$output_processor@_WV?$stream_output_adapter@_W@__crt_stdio_output@@V?$positional_parameter_base@_WV?$stream_output_adapter@_W@__crt_stdio_output@@@2@@__crt_stdio_output@@AAE_NXZ 10034724 f i libucrt:output.obj
 0001:00033735       ?type_case_d@?$output_processor@_WV?$stream_output_adapter@_W@__crt_stdio_output@@V?$standard_base@_WV?$stream_output_adapter@_W@__crt_stdio_output@@@2@@__crt_stdio_output@@AAE_NXZ 10034735 f i libucrt:output.obj
 0001:00033746       ?type_case_d@?$output_processor@_WV?$string_output_adapter@_W@__crt_stdio_output@@V?$format_validation_base@_WV?$string_output_adapter@_W@__crt_stdio_output@@@2@@__crt_stdio_output@@AAE_NXZ 10034746 f i libucrt:output.obj
 0001:00033757       ?type_case_d@?$output_processor@_WV?$string_output_adapter@_W@__crt_stdio_output@@V?$positional_parameter_base@_WV?$string_output_adapter@_W@__crt_stdio_output@@@2@@__crt_stdio_output@@AAE_NXZ 10034757 f i libucrt:output.obj
 0001:00033768       ?type_case_d@?$output_processor@_WV?$string_output_adapter@_W@__crt_stdio_output@@V?$standard_base@_WV?$string_output_adapter@_W@__crt_stdio_output@@@2@@__crt_stdio_output@@AAE_NXZ 10034768 f i libucrt:output.obj
 0001:00033779       ?type_case_integer@?$output_processor@DV?$stream_output_adapter@D@__crt_stdio_output@@V?$format_validation_base@DV?$stream_output_adapter@D@__crt_stdio_output@@@2@@__crt_stdio_output@@AAE_NI_N@Z 10034779 f i libucrt:output.obj
 0001:0003391e       ?type_case_integer@?$output_processor@DV?$stream_output_adapter@D@__crt_stdio_output@@V?$positional_parameter_base@DV?$stream_output_adapter@D@__crt_stdio_output@@@2@@__crt_stdio_output@@AAE_NI_N@Z 1003491e f i libucrt:output.obj
 0001:00033aff       ?type_case_integer@?$output_processor@DV?$stream_output_adapter@D@__crt_stdio_output@@V?$standard_base@DV?$stream_output_adapter@D@__crt_stdio_output@@@2@@__crt_stdio_output@@AAE_NI_N@Z 10034aff f i libucrt:output.obj
 0001:00033ca4       ?type_case_integer@?$output_processor@DV?$string_output_adapter@D@__crt_stdio_output@@V?$format_validation_base@DV?$string_output_adapter@D@__crt_stdio_output@@@2@@__crt_stdio_output@@AAE_NI_N@Z 10034ca4 f i libucrt:output.obj
 0001:00033e49       ?type_case_integer@?$output_processor@DV?$string_output_adapter@D@__crt_stdio_output@@V?$positional_parameter_base@DV?$string_output_adapter@D@__crt_stdio_output@@@2@@__crt_stdio_output@@AAE_NI_N@Z 10034e49 f i libucrt:output.obj
 0001:0003402a       ?type_case_integer@?$output_processor@DV?$string_output_adapter@D@__crt_stdio_output@@V?$standard_base@DV?$string_output_adapter@D@__crt_stdio_output@@@2@@__crt_stdio_output@@AAE_NI_N@Z 1003502a f i libucrt:output.obj
 0001:000341cf       ?type_case_integer@?$output_processor@_WV?$stream_output_adapter@_W@__crt_stdio_output@@V?$format_validation_base@_WV?$stream_output_adapter@_W@__crt_stdio_output@@@2@@__crt_stdio_output@@AAE_NI_N@Z 100351cf f i libucrt:output.obj
 0001:00034379       ?type_case_integer@?$output_processor@_WV?$stream_output_adapter@_W@__crt_stdio_output@@V?$positional_parameter_base@_WV?$stream_output_adapter@_W@__crt_stdio_output@@@2@@__crt_stdio_output@@AAE_NI_N@Z 10035379 f i libucrt:output.obj
 0001:0003455f       ?type_case_integer@?$output_processor@_WV?$stream_output_adapter@_W@__crt_stdio_output@@V?$standard_base@_WV?$stream_output_adapter@_W@__crt_stdio_output@@@2@@__crt_stdio_output@@AAE_NI_N@Z 1003555f f i libucrt:output.obj
 0001:00034709       ?type_case_integer@?$output_processor@_WV?$string_output_adapter@_W@__crt_stdio_output@@V?$format_validation_base@_WV?$string_output_adapter@_W@__crt_stdio_output@@@2@@__crt_stdio_output@@AAE_NI_N@Z 10035709 f i libucrt:output.obj
 0001:000348b3       ?type_case_integer@?$output_processor@_WV?$string_output_adapter@_W@__crt_stdio_output@@V?$positional_parameter_base@_WV?$string_output_adapter@_W@__crt_stdio_output@@@2@@__crt_stdio_output@@AAE_NI_N@Z 100358b3 f i libucrt:output.obj
 0001:00034a99       ?type_case_integer@?$output_processor@_WV?$string_output_adapter@_W@__crt_stdio_output@@V?$standard_base@_WV?$string_output_adapter@_W@__crt_stdio_output@@@2@@__crt_stdio_output@@AAE_NI_N@Z 10035a99 f i libucrt:output.obj
 0001:00034c43       ?type_case_n@?$output_processor@DV?$stream_output_adapter@D@__crt_stdio_output@@V?$format_validation_base@DV?$stream_output_adapter@D@__crt_stdio_output@@@2@@__crt_stdio_output@@AAE_NXZ 10035c43 f i libucrt:output.obj
 0001:00034cd4       ?type_case_n@?$output_processor@DV?$stream_output_adapter@D@__crt_stdio_output@@V?$positional_parameter_base@DV?$stream_output_adapter@D@__crt_stdio_output@@@2@@__crt_stdio_output@@AAE_NXZ 10035cd4 f i libucrt:output.obj
 0001:00034d90       ?type_case_n@?$output_processor@DV?$stream_output_adapter@D@__crt_stdio_output@@V?$standard_base@DV?$stream_output_adapter@D@__crt_stdio_output@@@2@@__crt_stdio_output@@AAE_NXZ 10035d90 f i libucrt:output.obj
 0001:00034e21       ?type_case_n@?$output_processor@DV?$string_output_adapter@D@__crt_stdio_output@@V?$format_validation_base@DV?$string_output_adapter@D@__crt_stdio_output@@@2@@__crt_stdio_output@@AAE_NXZ 10035e21 f i libucrt:output.obj
 0001:00034eb2       ?type_case_n@?$output_processor@DV?$string_output_adapter@D@__crt_stdio_output@@V?$positional_parameter_base@DV?$string_output_adapter@D@__crt_stdio_output@@@2@@__crt_stdio_output@@AAE_NXZ 10035eb2 f i libucrt:output.obj
 0001:00034f6e       ?type_case_n@?$output_processor@DV?$string_output_adapter@D@__crt_stdio_output@@V?$standard_base@DV?$string_output_adapter@D@__crt_stdio_output@@@2@@__crt_stdio_output@@AAE_NXZ 10035f6e f i libucrt:output.obj
 0001:00034fff       ?type_case_n@?$output_processor@_WV?$stream_output_adapter@_W@__crt_stdio_output@@V?$format_validation_base@_WV?$stream_output_adapter@_W@__crt_stdio_output@@@2@@__crt_stdio_output@@AAE_NXZ 10035fff f i libucrt:output.obj
 0001:00035090       ?type_case_n@?$output_processor@_WV?$stream_output_adapter@_W@__crt_stdio_output@@V?$positional_parameter_base@_WV?$stream_output_adapter@_W@__crt_stdio_output@@@2@@__crt_stdio_output@@AAE_NXZ 10036090 f i libucrt:output.obj
 0001:0003514c       ?type_case_n@?$output_processor@_WV?$stream_output_adapter@_W@__crt_stdio_output@@V?$standard_base@_WV?$stream_output_adapter@_W@__crt_stdio_output@@@2@@__crt_stdio_output@@AAE_NXZ 1003614c f i libucrt:output.obj
 0001:000351dd       ?type_case_n@?$output_processor@_WV?$string_output_adapter@_W@__crt_stdio_output@@V?$format_validation_base@_WV?$string_output_adapter@_W@__crt_stdio_output@@@2@@__crt_stdio_output@@AAE_NXZ 100361dd f i libucrt:output.obj
 0001:0003526e       ?type_case_n@?$output_processor@_WV?$string_output_adapter@_W@__crt_stdio_output@@V?$positional_parameter_base@_WV?$string_output_adapter@_W@__crt_stdio_output@@@2@@__crt_stdio_output@@AAE_NXZ 1003626e f i libucrt:output.obj
 0001:0003532a       ?type_case_n@?$output_processor@_WV?$string_output_adapter@_W@__crt_stdio_output@@V?$standard_base@_WV?$string_output_adapter@_W@__crt_stdio_output@@@2@@__crt_stdio_output@@AAE_NXZ 1003632a f i libucrt:output.obj
 0001:000353bb       ?type_case_o@?$output_processor@DV?$stream_output_adapter@D@__crt_stdio_output@@V?$format_validation_base@DV?$stream_output_adapter@D@__crt_stdio_output@@@2@@__crt_stdio_output@@AAE_NXZ 100363bb f i libucrt:output.obj
 0001:000353e1       ?type_case_o@?$output_processor@DV?$stream_output_adapter@D@__crt_stdio_output@@V?$positional_parameter_base@DV?$stream_output_adapter@D@__crt_stdio_output@@@2@@__crt_stdio_output@@AAE_NXZ 100363e1 f i libucrt:output.obj
 0001:00035407       ?type_case_o@?$output_processor@DV?$stream_output_adapter@D@__crt_stdio_output@@V?$standard_base@DV?$stream_output_adapter@D@__crt_stdio_output@@@2@@__crt_stdio_output@@AAE_NXZ 10036407 f i libucrt:output.obj
 0001:0003542d       ?type_case_o@?$output_processor@DV?$string_output_adapter@D@__crt_stdio_output@@V?$format_validation_base@DV?$string_output_adapter@D@__crt_stdio_output@@@2@@__crt_stdio_output@@AAE_NXZ 1003642d f i libucrt:output.obj
 0001:00035453       ?type_case_o@?$output_processor@DV?$string_output_adapter@D@__crt_stdio_output@@V?$positional_parameter_base@DV?$string_output_adapter@D@__crt_stdio_output@@@2@@__crt_stdio_output@@AAE_NXZ 10036453 f i libucrt:output.obj
 0001:00035479       ?type_case_o@?$output_processor@DV?$string_output_adapter@D@__crt_stdio_output@@V?$standard_base@DV?$string_output_adapter@D@__crt_stdio_output@@@2@@__crt_stdio_output@@AAE_NXZ 10036479 f i libucrt:output.obj
 0001:0003549f       ?type_case_o@?$output_processor@_WV?$stream_output_adapter@_W@__crt_stdio_output@@V?$format_validation_base@_WV?$stream_output_adapter@_W@__crt_stdio_output@@@2@@__crt_stdio_output@@AAE_NXZ 1003649f f i libucrt:output.obj
 0001:000354c5       ?type_case_o@?$output_processor@_WV?$stream_output_adapter@_W@__crt_stdio_output@@V?$positional_parameter_base@_WV?$stream_output_adapter@_W@__crt_stdio_output@@@2@@__crt_stdio_output@@AAE_NXZ 100364c5 f i libucrt:output.obj
 0001:000354eb       ?type_case_o@?$output_processor@_WV?$stream_output_adapter@_W@__crt_stdio_output@@V?$standard_base@_WV?$stream_output_adapter@_W@__crt_stdio_output@@@2@@__crt_stdio_output@@AAE_NXZ 100364eb f i libucrt:output.obj
 0001:00035511       ?type_case_o@?$output_processor@_WV?$string_output_adapter@_W@__crt_stdio_output@@V?$format_validation_base@_WV?$string_output_adapter@_W@__crt_stdio_output@@@2@@__crt_stdio_output@@AAE_NXZ 10036511 f i libucrt:output.obj
 0001:00035537       ?type_case_o@?$output_processor@_WV?$string_output_adapter@_W@__crt_stdio_output@@V?$positional_parameter_base@_WV?$string_output_adapter@_W@__crt_stdio_output@@@2@@__crt_stdio_output@@AAE_NXZ 10036537 f i libucrt:output.obj
 0001:0003555d       ?type_case_o@?$output_processor@_WV?$string_output_adapter@_W@__crt_stdio_output@@V?$standard_base@_WV?$string_output_adapter@_W@__crt_stdio_output@@@2@@__crt_stdio_output@@AAE_NXZ 1003655d f i libucrt:output.obj
 0001:00035583       ?type_case_p@?$output_processor@DV?$stream_output_adapter@D@__crt_stdio_output@@V?$format_validation_base@DV?$stream_output_adapter@D@__crt_stdio_output@@@2@@__crt_stdio_output@@AAE_NXZ 10036583 f i libucrt:output.obj
 0001:000355a1       ?type_case_p@?$output_processor@DV?$stream_output_adapter@D@__crt_stdio_output@@V?$positional_parameter_base@DV?$stream_output_adapter@D@__crt_stdio_output@@@2@@__crt_stdio_output@@AAE_NXZ 100365a1 f i libucrt:output.obj
 0001:000355bf       ?type_case_p@?$output_processor@DV?$stream_output_adapter@D@__crt_stdio_output@@V?$standard_base@DV?$stream_output_adapter@D@__crt_stdio_output@@@2@@__crt_stdio_output@@AAE_NXZ 100365bf f i libucrt:output.obj
 0001:000355dd       ?type_case_p@?$output_processor@DV?$string_output_adapter@D@__crt_stdio_output@@V?$format_validation_base@DV?$string_output_adapter@D@__crt_stdio_output@@@2@@__crt_stdio_output@@AAE_NXZ 100365dd f i libucrt:output.obj
 0001:000355fb       ?type_case_p@?$output_processor@DV?$string_output_adapter@D@__crt_stdio_output@@V?$positional_parameter_base@DV?$string_output_adapter@D@__crt_stdio_output@@@2@@__crt_stdio_output@@AAE_NXZ 100365fb f i libucrt:output.obj
 0001:00035619       ?type_case_p@?$output_processor@DV?$string_output_adapter@D@__crt_stdio_output@@V?$standard_base@DV?$string_output_adapter@D@__crt_stdio_output@@@2@@__crt_stdio_output@@AAE_NXZ 10036619 f i libucrt:output.obj
 0001:00035637       ?type_case_p@?$output_processor@_WV?$stream_output_adapter@_W@__crt_stdio_output@@V?$format_validation_base@_WV?$stream_output_adapter@_W@__crt_stdio_output@@@2@@__crt_stdio_output@@AAE_NXZ 10036637 f i libucrt:output.obj
 0001:00035655       ?type_case_p@?$output_processor@_WV?$stream_output_adapter@_W@__crt_stdio_output@@V?$positional_parameter_base@_WV?$stream_output_adapter@_W@__crt_stdio_output@@@2@@__crt_stdio_output@@AAE_NXZ 10036655 f i libucrt:output.obj
 0001:00035673       ?type_case_p@?$output_processor@_WV?$stream_output_adapter@_W@__crt_stdio_output@@V?$standard_base@_WV?$stream_output_adapter@_W@__crt_stdio_output@@@2@@__crt_stdio_output@@AAE_NXZ 10036673 f i libucrt:output.obj
 0001:00035691       ?type_case_p@?$output_processor@_WV?$string_output_adapter@_W@__crt_stdio_output@@V?$format_validation_base@_WV?$string_output_adapter@_W@__crt_stdio_output@@@2@@__crt_stdio_output@@AAE_NXZ 10036691 f i libucrt:output.obj
 0001:000356af       ?type_case_p@?$output_processor@_WV?$string_output_adapter@_W@__crt_stdio_output@@V?$positional_parameter_base@_WV?$string_output_adapter@_W@__crt_stdio_output@@@2@@__crt_stdio_output@@AAE_NXZ 100366af f i libucrt:output.obj
 0001:000356cd       ?type_case_p@?$output_processor@_WV?$string_output_adapter@_W@__crt_stdio_output@@V?$standard_base@_WV?$string_output_adapter@_W@__crt_stdio_output@@@2@@__crt_stdio_output@@AAE_NXZ 100366cd f i libucrt:output.obj
 0001:000356eb       ?type_case_s@?$output_processor@DV?$stream_output_adapter@D@__crt_stdio_output@@V?$format_validation_base@DV?$stream_output_adapter@D@__crt_stdio_output@@@2@@__crt_stdio_output@@AAE_NXZ 100366eb f i libucrt:output.obj
 0001:00035778       ?type_case_s@?$output_processor@DV?$stream_output_adapter@D@__crt_stdio_output@@V?$positional_parameter_base@DV?$stream_output_adapter@D@__crt_stdio_output@@@2@@__crt_stdio_output@@AAE_NXZ 10036778 f i libucrt:output.obj
 0001:00035815       ?type_case_s@?$output_processor@DV?$stream_output_adapter@D@__crt_stdio_output@@V?$standard_base@DV?$stream_output_adapter@D@__crt_stdio_output@@@2@@__crt_stdio_output@@AAE_NXZ 10036815 f i libucrt:output.obj
 0001:000358a2       ?type_case_s@?$output_processor@DV?$string_output_adapter@D@__crt_stdio_output@@V?$format_validation_base@DV?$string_output_adapter@D@__crt_stdio_output@@@2@@__crt_stdio_output@@AAE_NXZ 100368a2 f i libucrt:output.obj
 0001:0003592f       ?type_case_s@?$output_processor@DV?$string_output_adapter@D@__crt_stdio_output@@V?$positional_parameter_base@DV?$string_output_adapter@D@__crt_stdio_output@@@2@@__crt_stdio_output@@AAE_NXZ 1003692f f i libucrt:output.obj
 0001:000359cc       ?type_case_s@?$output_processor@DV?$string_output_adapter@D@__crt_stdio_output@@V?$standard_base@DV?$string_output_adapter@D@__crt_stdio_output@@@2@@__crt_stdio_output@@AAE_NXZ 100369cc f i libucrt:output.obj
 0001:00035a59       ?type_case_s@?$output_processor@_WV?$stream_output_adapter@_W@__crt_stdio_output@@V?$format_validation_base@_WV?$stream_output_adapter@_W@__crt_stdio_output@@@2@@__crt_stdio_output@@AAE_NXZ 10036a59 f i libucrt:output.obj
 0001:00035ae8       ?type_case_s@?$output_processor@_WV?$stream_output_adapter@_W@__crt_stdio_output@@V?$positional_parameter_base@_WV?$stream_output_adapter@_W@__crt_stdio_output@@@2@@__crt_stdio_output@@AAE_NXZ 10036ae8 f i libucrt:output.obj
 0001:00035b88       ?type_case_s@?$output_processor@_WV?$stream_output_adapter@_W@__crt_stdio_output@@V?$standard_base@_WV?$stream_output_adapter@_W@__crt_stdio_output@@@2@@__crt_stdio_output@@AAE_NXZ 10036b88 f i libucrt:output.obj
 0001:00035c17       ?type_case_s@?$output_processor@_WV?$string_output_adapter@_W@__crt_stdio_output@@V?$format_validation_base@_WV?$string_output_adapter@_W@__crt_stdio_output@@@2@@__crt_stdio_output@@AAE_NXZ 10036c17 f i libucrt:output.obj
 0001:00035ca6       ?type_case_s@?$output_processor@_WV?$string_output_adapter@_W@__crt_stdio_output@@V?$positional_parameter_base@_WV?$string_output_adapter@_W@__crt_stdio_output@@@2@@__crt_stdio_output@@AAE_NXZ 10036ca6 f i libucrt:output.obj
 0001:00035d46       ?type_case_s@?$output_processor@_WV?$string_output_adapter@_W@__crt_stdio_output@@V?$standard_base@_WV?$string_output_adapter@_W@__crt_stdio_output@@@2@@__crt_stdio_output@@AAE_NXZ 10036d46 f i libucrt:output.obj
 0001:00035dd5       ?type_case_s_compute_narrow_string_length@?$output_processor@DV?$stream_output_adapter@D@__crt_stdio_output@@V?$format_validation_base@DV?$stream_output_adapter@D@__crt_stdio_output@@@2@@__crt_stdio_output@@ABEHHD@Z 10036dd5 f i libucrt:output.obj
 0001:00035df0       ?type_case_s_compute_narrow_string_length@?$output_processor@DV?$stream_output_adapter@D@__crt_stdio_output@@V?$positional_parameter_base@DV?$stream_output_adapter@D@__crt_stdio_output@@@2@@__crt_stdio_output@@ABEHHD@Z 10036df0 f i libucrt:output.obj
 0001:00035e0b       ?type_case_s_compute_narrow_string_length@?$output_processor@DV?$stream_output_adapter@D@__crt_stdio_output@@V?$standard_base@DV?$stream_output_adapter@D@__crt_stdio_output@@@2@@__crt_stdio_output@@ABEHHD@Z 10036e0b f i libucrt:output.obj
 0001:00035e26       ?type_case_s_compute_narrow_string_length@?$output_processor@DV?$string_output_adapter@D@__crt_stdio_output@@V?$format_validation_base@DV?$string_output_adapter@D@__crt_stdio_output@@@2@@__crt_stdio_output@@ABEHHD@Z 10036e26 f i libucrt:output.obj
 0001:00035e41       ?type_case_s_compute_narrow_string_length@?$output_processor@DV?$string_output_adapter@D@__crt_stdio_output@@V?$positional_parameter_base@DV?$string_output_adapter@D@__crt_stdio_output@@@2@@__crt_stdio_output@@ABEHHD@Z 10036e41 f i libucrt:output.obj
 0001:00035e5c       ?type_case_s_compute_narrow_string_length@?$output_processor@DV?$string_output_adapter@D@__crt_stdio_output@@V?$standard_base@DV?$string_output_adapter@D@__crt_stdio_output@@@2@@__crt_stdio_output@@ABEHHD@Z 10036e5c f i libucrt:output.obj
 0001:00035e77       ?type_case_s_compute_narrow_string_length@?$output_processor@_WV?$stream_output_adapter@_W@__crt_stdio_output@@V?$format_validation_base@_WV?$stream_output_adapter@_W@__crt_stdio_output@@@2@@__crt_stdio_output@@ABEHH_W@Z 10036e77 f i libucrt:output.obj
 0001:00035ecf       ?type_case_s_compute_narrow_string_length@?$output_processor@_WV?$stream_output_adapter@_W@__crt_stdio_output@@V?$positional_parameter_base@_WV?$stream_output_adapter@_W@__crt_stdio_output@@@2@@__crt_stdio_output@@ABEHH_W@Z 10036ecf f i libucrt:output.obj
 0001:00035f27       ?type_case_s_compute_narrow_string_length@?$output_processor@_WV?$stream_output_adapter@_W@__crt_stdio_output@@V?$standard_base@_WV?$stream_output_adapter@_W@__crt_stdio_output@@@2@@__crt_stdio_output@@ABEHH_W@Z 10036f27 f i libucrt:output.obj
 0001:00035f7f       ?type_case_s_compute_narrow_string_length@?$output_processor@_WV?$string_output_adapter@_W@__crt_stdio_output@@V?$format_validation_base@_WV?$string_output_adapter@_W@__crt_stdio_output@@@2@@__crt_stdio_output@@ABEHH_W@Z 10036f7f f i libucrt:output.obj
 0001:00035fd7       ?type_case_s_compute_narrow_string_length@?$output_processor@_WV?$string_output_adapter@_W@__crt_stdio_output@@V?$positional_parameter_base@_WV?$string_output_adapter@_W@__crt_stdio_output@@@2@@__crt_stdio_output@@ABEHH_W@Z 10036fd7 f i libucrt:output.obj
 0001:0003602f       ?type_case_s_compute_narrow_string_length@?$output_processor@_WV?$string_output_adapter@_W@__crt_stdio_output@@V?$standard_base@_WV?$string_output_adapter@_W@__crt_stdio_output@@@2@@__crt_stdio_output@@ABEHH_W@Z 1003702f f i libucrt:output.obj
 0001:00036087       ?type_case_u@?$output_processor@DV?$stream_output_adapter@D@__crt_stdio_output@@V?$format_validation_base@DV?$stream_output_adapter@D@__crt_stdio_output@@@2@@__crt_stdio_output@@AAE_NXZ 10037087 f i libucrt:output.obj
 0001:00036093       ?type_case_u@?$output_processor@DV?$stream_output_adapter@D@__crt_stdio_output@@V?$positional_parameter_base@DV?$stream_output_adapter@D@__crt_stdio_output@@@2@@__crt_stdio_output@@AAE_NXZ 10037093 f i libucrt:output.obj
 0001:0003609f       ?type_case_u@?$output_processor@DV?$stream_output_adapter@D@__crt_stdio_output@@V?$standard_base@DV?$stream_output_adapter@D@__crt_stdio_output@@@2@@__crt_stdio_output@@AAE_NXZ 1003709f f i libucrt:output.obj
 0001:000360ab       ?type_case_u@?$output_processor@DV?$string_output_adapter@D@__crt_stdio_output@@V?$format_validation_base@DV?$string_output_adapter@D@__crt_stdio_output@@@2@@__crt_stdio_output@@AAE_NXZ 100370ab f i libucrt:output.obj
 0001:000360b7       ?type_case_u@?$output_processor@DV?$string_output_adapter@D@__crt_stdio_output@@V?$positional_parameter_base@DV?$string_output_adapter@D@__crt_stdio_output@@@2@@__crt_stdio_output@@AAE_NXZ 100370b7 f i libucrt:output.obj
 0001:000360c3       ?type_case_u@?$output_processor@DV?$string_output_adapter@D@__crt_stdio_output@@V?$standard_base@DV?$string_output_adapter@D@__crt_stdio_output@@@2@@__crt_stdio_output@@AAE_NXZ 100370c3 f i libucrt:output.obj
 0001:000360cf       ?type_case_u@?$output_processor@_WV?$stream_output_adapter@_W@__crt_stdio_output@@V?$format_validation_base@_WV?$stream_output_adapter@_W@__crt_stdio_output@@@2@@__crt_stdio_output@@AAE_NXZ 100370cf f i libucrt:output.obj
 0001:000360db       ?type_case_u@?$output_processor@_WV?$stream_output_adapter@_W@__crt_stdio_output@@V?$positional_parameter_base@_WV?$stream_output_adapter@_W@__crt_stdio_output@@@2@@__crt_stdio_output@@AAE_NXZ 100370db f i libucrt:output.obj
 0001:000360e7       ?type_case_u@?$output_processor@_WV?$stream_output_adapter@_W@__crt_stdio_output@@V?$standard_base@_WV?$stream_output_adapter@_W@__crt_stdio_output@@@2@@__crt_stdio_output@@AAE_NXZ 100370e7 f i libucrt:output.obj
 0001:000360f3       ?type_case_u@?$output_processor@_WV?$string_output_adapter@_W@__crt_stdio_output@@V?$format_validation_base@_WV?$string_output_adapter@_W@__crt_stdio_output@@@2@@__crt_stdio_output@@AAE_NXZ 100370f3 f i libucrt:output.obj
 0001:000360ff       ?type_case_u@?$output_processor@_WV?$string_output_adapter@_W@__crt_stdio_output@@V?$positional_parameter_base@_WV?$string_output_adapter@_W@__crt_stdio_output@@@2@@__crt_stdio_output@@AAE_NXZ 100370ff f i libucrt:output.obj
 0001:0003610b       ?type_case_u@?$output_processor@_WV?$string_output_adapter@_W@__crt_stdio_output@@V?$standard_base@_WV?$string_output_adapter@_W@__crt_stdio_output@@@2@@__crt_stdio_output@@AAE_NXZ 1003710b f i libucrt:output.obj
 0001:00036117       ?type_case_x@?$output_processor@DV?$stream_output_adapter@D@__crt_stdio_output@@V?$format_validation_base@DV?$stream_output_adapter@D@__crt_stdio_output@@@2@@__crt_stdio_output@@AAE_NXZ 10037117 f i libucrt:output.obj
 0001:00036123       ?type_case_x@?$output_processor@DV?$stream_output_adapter@D@__crt_stdio_output@@V?$positional_parameter_base@DV?$stream_output_adapter@D@__crt_stdio_output@@@2@@__crt_stdio_output@@AAE_NXZ 10037123 f i libucrt:output.obj
 0001:0003612f       ?type_case_x@?$output_processor@DV?$stream_output_adapter@D@__crt_stdio_output@@V?$standard_base@DV?$stream_output_adapter@D@__crt_stdio_output@@@2@@__crt_stdio_output@@AAE_NXZ 1003712f f i libucrt:output.obj
 0001:0003613b       ?type_case_x@?$output_processor@DV?$string_output_adapter@D@__crt_stdio_output@@V?$format_validation_base@DV?$string_output_adapter@D@__crt_stdio_output@@@2@@__crt_stdio_output@@AAE_NXZ 1003713b f i libucrt:output.obj
 0001:00036147       ?type_case_x@?$output_processor@DV?$string_output_adapter@D@__crt_stdio_output@@V?$positional_parameter_base@DV?$string_output_adapter@D@__crt_stdio_output@@@2@@__crt_stdio_output@@AAE_NXZ 10037147 f i libucrt:output.obj
 0001:00036153       ?type_case_x@?$output_processor@DV?$string_output_adapter@D@__crt_stdio_output@@V?$standard_base@DV?$string_output_adapter@D@__crt_stdio_output@@@2@@__crt_stdio_output@@AAE_NXZ 10037153 f i libucrt:output.obj
 0001:0003615f       ?type_case_x@?$output_processor@_WV?$stream_output_adapter@_W@__crt_stdio_output@@V?$format_validation_base@_WV?$stream_output_adapter@_W@__crt_stdio_output@@@2@@__crt_stdio_output@@AAE_NXZ 1003715f f i libucrt:output.obj
 0001:0003616b       ?type_case_x@?$output_processor@_WV?$stream_output_adapter@_W@__crt_stdio_output@@V?$positional_parameter_base@_WV?$stream_output_adapter@_W@__crt_stdio_output@@@2@@__crt_stdio_output@@AAE_NXZ 1003716b f i libucrt:output.obj
 0001:00036177       ?type_case_x@?$output_processor@_WV?$stream_output_adapter@_W@__crt_stdio_output@@V?$standard_base@_WV?$stream_output_adapter@_W@__crt_stdio_output@@@2@@__crt_stdio_output@@AAE_NXZ 10037177 f i libucrt:output.obj
 0001:00036183       ?type_case_x@?$output_processor@_WV?$string_output_adapter@_W@__crt_stdio_output@@V?$format_validation_base@_WV?$string_output_adapter@_W@__crt_stdio_output@@@2@@__crt_stdio_output@@AAE_NXZ 10037183 f i libucrt:output.obj
 0001:0003618f       ?type_case_x@?$output_processor@_WV?$string_output_adapter@_W@__crt_stdio_output@@V?$positional_parameter_base@_WV?$string_output_adapter@_W@__crt_stdio_output@@@2@@__crt_stdio_output@@AAE_NXZ 1003718f f i libucrt:output.obj
 0001:0003619b       ?type_case_x@?$output_processor@_WV?$string_output_adapter@_W@__crt_stdio_output@@V?$standard_base@_WV?$string_output_adapter@_W@__crt_stdio_output@@@2@@__crt_stdio_output@@AAE_NXZ 1003719b f i libucrt:output.obj
 0001:000361a7       ?unset_flag@?$output_processor@DV?$stream_output_adapter@D@__crt_stdio_output@@V?$format_validation_base@DV?$stream_output_adapter@D@__crt_stdio_output@@@2@@__crt_stdio_output@@AAEXI@Z 100371a7 f i libucrt:output.obj
 0001:000361bc       ?unset_flag@?$output_processor@DV?$stream_output_adapter@D@__crt_stdio_output@@V?$positional_parameter_base@DV?$stream_output_adapter@D@__crt_stdio_output@@@2@@__crt_stdio_output@@AAEXI@Z 100371bc f i libucrt:output.obj
 0001:000361d1       ?unset_flag@?$output_processor@DV?$stream_output_adapter@D@__crt_stdio_output@@V?$standard_base@DV?$stream_output_adapter@D@__crt_stdio_output@@@2@@__crt_stdio_output@@AAEXI@Z 100371d1 f i libucrt:output.obj
 0001:000361e6       ?unset_flag@?$output_processor@DV?$string_output_adapter@D@__crt_stdio_output@@V?$format_validation_base@DV?$string_output_adapter@D@__crt_stdio_output@@@2@@__crt_stdio_output@@AAEXI@Z 100371e6 f i libucrt:output.obj
 0001:000361fb       ?unset_flag@?$output_processor@DV?$string_output_adapter@D@__crt_stdio_output@@V?$positional_parameter_base@DV?$string_output_adapter@D@__crt_stdio_output@@@2@@__crt_stdio_output@@AAEXI@Z 100371fb f i libucrt:output.obj
 0001:00036210       ?unset_flag@?$output_processor@DV?$string_output_adapter@D@__crt_stdio_output@@V?$standard_base@DV?$string_output_adapter@D@__crt_stdio_output@@@2@@__crt_stdio_output@@AAEXI@Z 10037210 f i libucrt:output.obj
 0001:00036225       ?unset_flag@?$output_processor@_WV?$stream_output_adapter@_W@__crt_stdio_output@@V?$format_validation_base@_WV?$stream_output_adapter@_W@__crt_stdio_output@@@2@@__crt_stdio_output@@AAEXI@Z 10037225 f i libucrt:output.obj
 0001:0003623a       ?unset_flag@?$output_processor@_WV?$stream_output_adapter@_W@__crt_stdio_output@@V?$positional_parameter_base@_WV?$stream_output_adapter@_W@__crt_stdio_output@@@2@@__crt_stdio_output@@AAEXI@Z 1003723a f i libucrt:output.obj
 0001:0003624f       ?unset_flag@?$output_processor@_WV?$stream_output_adapter@_W@__crt_stdio_output@@V?$standard_base@_WV?$stream_output_adapter@_W@__crt_stdio_output@@@2@@__crt_stdio_output@@AAEXI@Z 1003724f f i libucrt:output.obj
 0001:00036264       ?unset_flag@?$output_processor@_WV?$string_output_adapter@_W@__crt_stdio_output@@V?$format_validation_base@_WV?$string_output_adapter@_W@__crt_stdio_output@@@2@@__crt_stdio_output@@AAEXI@Z 10037264 f i libucrt:output.obj
 0001:00036279       ?unset_flag@?$output_processor@_WV?$string_output_adapter@_W@__crt_stdio_output@@V?$positional_parameter_base@_WV?$string_output_adapter@_W@__crt_stdio_output@@@2@@__crt_stdio_output@@AAEXI@Z 10037279 f i libucrt:output.obj
 0001:0003628e       ?unset_flag@?$output_processor@_WV?$string_output_adapter@_W@__crt_stdio_output@@V?$standard_base@_WV?$string_output_adapter@_W@__crt_stdio_output@@@2@@__crt_stdio_output@@AAEXI@Z 1003728e f i libucrt:output.obj
 0001:000362a3       ?update_field_width@?$positional_parameter_base@DV?$stream_output_adapter@D@__crt_stdio_output@@@__crt_stdio_output@@IAE_NXZ 100372a3 f i libucrt:output.obj
 0001:00036384       ?update_field_width@?$positional_parameter_base@DV?$string_output_adapter@D@__crt_stdio_output@@@__crt_stdio_output@@IAE_NXZ 10037384 f i libucrt:output.obj
 0001:00036465       ?update_field_width@?$positional_parameter_base@_WV?$stream_output_adapter@_W@__crt_stdio_output@@@__crt_stdio_output@@IAE_NXZ 10037465 f i libucrt:output.obj
 0001:00036547       ?update_field_width@?$positional_parameter_base@_WV?$string_output_adapter@_W@__crt_stdio_output@@@__crt_stdio_output@@IAE_NXZ 10037547 f i libucrt:output.obj
 0001:00036629       ?update_field_width@?$standard_base@DV?$stream_output_adapter@D@__crt_stdio_output@@@__crt_stdio_output@@IAE_NXZ 10037629 f i libucrt:output.obj
 0001:0003663d       ?update_field_width@?$standard_base@DV?$string_output_adapter@D@__crt_stdio_output@@@__crt_stdio_output@@IAE_NXZ 1003763d f i libucrt:output.obj
 0001:00036651       ?update_field_width@?$standard_base@_WV?$stream_output_adapter@_W@__crt_stdio_output@@@__crt_stdio_output@@IAE_NXZ 10037651 f i libucrt:output.obj
 0001:00036665       ?update_field_width@?$standard_base@_WV?$string_output_adapter@_W@__crt_stdio_output@@@__crt_stdio_output@@IAE_NXZ 10037665 f i libucrt:output.obj
 0001:00036679       ?update_precision@?$positional_parameter_base@DV?$stream_output_adapter@D@__crt_stdio_output@@@__crt_stdio_output@@IAE_NXZ 10037679 f i libucrt:output.obj
 0001:0003675a       ?update_precision@?$positional_parameter_base@DV?$string_output_adapter@D@__crt_stdio_output@@@__crt_stdio_output@@IAE_NXZ 1003775a f i libucrt:output.obj
 0001:0003683b       ?update_precision@?$positional_parameter_base@_WV?$stream_output_adapter@_W@__crt_stdio_output@@@__crt_stdio_output@@IAE_NXZ 1003783b f i libucrt:output.obj
 0001:0003691d       ?update_precision@?$positional_parameter_base@_WV?$string_output_adapter@_W@__crt_stdio_output@@@__crt_stdio_output@@IAE_NXZ 1003791d f i libucrt:output.obj
 0001:000369ff       ?update_precision@?$standard_base@DV?$stream_output_adapter@D@__crt_stdio_output@@@__crt_stdio_output@@IAE_NXZ 100379ff f i libucrt:output.obj
 0001:00036a13       ?update_precision@?$standard_base@DV?$string_output_adapter@D@__crt_stdio_output@@@__crt_stdio_output@@IAE_NXZ 10037a13 f i libucrt:output.obj
 0001:00036a27       ?update_precision@?$standard_base@_WV?$stream_output_adapter@_W@__crt_stdio_output@@@__crt_stdio_output@@IAE_NXZ 10037a27 f i libucrt:output.obj
 0001:00036a3b       ?update_precision@?$standard_base@_WV?$string_output_adapter@_W@__crt_stdio_output@@@__crt_stdio_output@@IAE_NXZ 10037a3b f i libucrt:output.obj
 0001:00036a4f       ?valid@__crt_stdio_stream@@QBE_NXZ 10037a4f f i libucrt:output.obj
 0001:00036a56       ?validate@?$stream_output_adapter@D@__crt_stdio_output@@QBE_NXZ 10037a56 f i libucrt:output.obj
 0001:00036a7f       ?validate@?$stream_output_adapter@_W@__crt_stdio_output@@QBE_NXZ 10037a7f f i libucrt:output.obj
 0001:00036aa0       ?validate@?$string_output_adapter@D@__crt_stdio_output@@QBE_NXZ 10037aa0 f i libucrt:output.obj
 0001:00036ac1       ?validate@?$string_output_adapter@_W@__crt_stdio_output@@QBE_NXZ 10037ac1 f i libucrt:output.obj
 0001:00036ae2       ?validate_and_store_parameter_data@?$positional_parameter_base@DV?$stream_output_adapter@D@__crt_stdio_output@@@__crt_stdio_output@@AAE_NAAUparameter_data@12@W4parameter_type@12@DW4length_modifier@2@@Z 10037ae2 f i libucrt:output.obj
 0001:00036b3f       ?validate_and_store_parameter_data@?$positional_parameter_base@DV?$string_output_adapter@D@__crt_stdio_output@@@__crt_stdio_output@@AAE_NAAUparameter_data@12@W4parameter_type@12@DW4length_modifier@2@@Z 10037b3f f i libucrt:output.obj
 0001:00036b9c       ?validate_and_store_parameter_data@?$positional_parameter_base@_WV?$stream_output_adapter@_W@__crt_stdio_output@@@__crt_stdio_output@@AAE_NAAUparameter_data@12@W4parameter_type@12@_WW4length_modifier@2@@Z 10037b9c f i libucrt:output.obj
 0001:00036bfc       ?validate_and_store_parameter_data@?$positional_parameter_base@_WV?$string_output_adapter@_W@__crt_stdio_output@@@__crt_stdio_output@@AAE_NAAUparameter_data@12@W4parameter_type@12@_WW4length_modifier@2@@Z 10037bfc f i libucrt:output.obj
 0001:00036c5c       ?validate_and_update_state_at_beginning_of_format_character@?$positional_parameter_base@DV?$stream_output_adapter@D@__crt_stdio_output@@@__crt_stdio_output@@IAE_NXZ 10037c5c f i libucrt:output.obj
 0001:00036d92       ?validate_and_update_state_at_beginning_of_format_character@?$positional_parameter_base@DV?$string_output_adapter@D@__crt_stdio_output@@@__crt_stdio_output@@IAE_NXZ 10037d92 f i libucrt:output.obj
 0001:00036ec8       ?validate_and_update_state_at_beginning_of_format_character@?$positional_parameter_base@_WV?$stream_output_adapter@_W@__crt_stdio_output@@@__crt_stdio_output@@IAE_NXZ 10037ec8 f i libucrt:output.obj
 0001:00037009       ?validate_and_update_state_at_beginning_of_format_character@?$positional_parameter_base@_WV?$string_output_adapter@_W@__crt_stdio_output@@@__crt_stdio_output@@IAE_NXZ 10038009 f i libucrt:output.obj
 0001:0003714a       ?validate_and_update_state_at_beginning_of_format_character@?$standard_base@DV?$stream_output_adapter@D@__crt_stdio_output@@@__crt_stdio_output@@IAE_NXZ 1003814a f i libucrt:output.obj
 0001:0003714d       ?validate_and_update_state_at_beginning_of_format_character@?$standard_base@DV?$string_output_adapter@D@__crt_stdio_output@@@__crt_stdio_output@@IAE_NXZ 1003814d f i libucrt:output.obj
 0001:00037150       ?validate_and_update_state_at_beginning_of_format_character@?$standard_base@_WV?$stream_output_adapter@_W@__crt_stdio_output@@@__crt_stdio_output@@IAE_NXZ 10038150 f i libucrt:output.obj
 0001:00037153       ?validate_and_update_state_at_beginning_of_format_character@?$standard_base@_WV?$string_output_adapter@_W@__crt_stdio_output@@@__crt_stdio_output@@IAE_NXZ 10038153 f i libucrt:output.obj
 0001:00037156       ?validate_and_update_state_at_end_of_format_string@?$format_validation_base@DV?$stream_output_adapter@D@__crt_stdio_output@@@__crt_stdio_output@@IBE_NXZ 10038156 f i libucrt:output.obj
 0001:00037180       ?validate_and_update_state_at_end_of_format_string@?$format_validation_base@DV?$string_output_adapter@D@__crt_stdio_output@@@__crt_stdio_output@@IBE_NXZ 10038180 f i libucrt:output.obj
 0001:000371aa       ?validate_and_update_state_at_end_of_format_string@?$format_validation_base@_WV?$stream_output_adapter@_W@__crt_stdio_output@@@__crt_stdio_output@@IBE_NXZ 100381aa f i libucrt:output.obj
 0001:000371d4       ?validate_and_update_state_at_end_of_format_string@?$format_validation_base@_WV?$string_output_adapter@_W@__crt_stdio_output@@@__crt_stdio_output@@IBE_NXZ 100381d4 f i libucrt:output.obj
 0001:000371fe       ?validate_and_update_state_at_end_of_format_string@?$positional_parameter_base@DV?$stream_output_adapter@D@__crt_stdio_output@@@__crt_stdio_output@@IAE_NXZ 100381fe f i libucrt:output.obj
 0001:000372b2       ?validate_and_update_state_at_end_of_format_string@?$positional_parameter_base@DV?$string_output_adapter@D@__crt_stdio_output@@@__crt_stdio_output@@IAE_NXZ 100382b2 f i libucrt:output.obj
 0001:00037366       ?validate_and_update_state_at_end_of_format_string@?$positional_parameter_base@_WV?$stream_output_adapter@_W@__crt_stdio_output@@@__crt_stdio_output@@IAE_NXZ 10038366 f i libucrt:output.obj
 0001:0003741a       ?validate_and_update_state_at_end_of_format_string@?$positional_parameter_base@_WV?$string_output_adapter@_W@__crt_stdio_output@@@__crt_stdio_output@@IAE_NXZ 1003841a f i libucrt:output.obj
 0001:000374ce       ?validate_and_update_state_at_end_of_format_string@?$standard_base@DV?$stream_output_adapter@D@__crt_stdio_output@@@__crt_stdio_output@@IBE_NXZ 100384ce f i libucrt:output.obj
 0001:000374d1       ?validate_and_update_state_at_end_of_format_string@?$standard_base@DV?$string_output_adapter@D@__crt_stdio_output@@@__crt_stdio_output@@IBE_NXZ 100384d1 f i libucrt:output.obj
 0001:000374d4       ?validate_and_update_state_at_end_of_format_string@?$standard_base@_WV?$stream_output_adapter@_W@__crt_stdio_output@@@__crt_stdio_output@@IBE_NXZ 100384d4 f i libucrt:output.obj
 0001:000374d7       ?validate_and_update_state_at_end_of_format_string@?$standard_base@_WV?$string_output_adapter@_W@__crt_stdio_output@@@__crt_stdio_output@@IBE_NXZ 100384d7 f i libucrt:output.obj
 0001:000374da       ?validate_state_for_type_case_a@?$positional_parameter_base@DV?$stream_output_adapter@D@__crt_stdio_output@@@__crt_stdio_output@@IAE_NXZ 100384da f i libucrt:output.obj
 0001:0003753c       ?validate_state_for_type_case_a@?$positional_parameter_base@DV?$string_output_adapter@D@__crt_stdio_output@@@__crt_stdio_output@@IAE_NXZ 1003853c f i libucrt:output.obj
 0001:0003759e       ?validate_state_for_type_case_a@?$positional_parameter_base@_WV?$stream_output_adapter@_W@__crt_stdio_output@@@__crt_stdio_output@@IAE_NXZ 1003859e f i libucrt:output.obj
 0001:00037600       ?validate_state_for_type_case_a@?$positional_parameter_base@_WV?$string_output_adapter@_W@__crt_stdio_output@@@__crt_stdio_output@@IAE_NXZ 10038600 f i libucrt:output.obj
 0001:00037662       ?validate_state_for_type_case_a@?$standard_base@DV?$stream_output_adapter@D@__crt_stdio_output@@@__crt_stdio_output@@IBE_NXZ 10038662 f i libucrt:output.obj
 0001:00037665       ?validate_state_for_type_case_a@?$standard_base@DV?$string_output_adapter@D@__crt_stdio_output@@@__crt_stdio_output@@IBE_NXZ 10038665 f i libucrt:output.obj
 0001:00037668       ?validate_state_for_type_case_a@?$standard_base@_WV?$stream_output_adapter@_W@__crt_stdio_output@@@__crt_stdio_output@@IBE_NXZ 10038668 f i libucrt:output.obj
 0001:0003766b       ?validate_state_for_type_case_a@?$standard_base@_WV?$string_output_adapter@_W@__crt_stdio_output@@@__crt_stdio_output@@IBE_NXZ 1003866b f i libucrt:output.obj
 0001:0003766e       ?validate_stream_is_ansi_if_required@?$__acrt_stdio_char_traits@D@@SA_NQAU_iobuf@@@Z 1003866e f i libucrt:output.obj
 0001:00037716       ?validate_stream_is_ansi_if_required@?$__acrt_stdio_char_traits@_W@@SA_NQAU_iobuf@@@Z 10038716 f i libucrt:output.obj
 0001:00037719       ?wide_null_string@?$output_processor@DV?$stream_output_adapter@D@__crt_stdio_output@@V?$format_validation_base@DV?$stream_output_adapter@D@__crt_stdio_output@@@2@@__crt_stdio_output@@CAPA_WXZ 10038719 f i libucrt:output.obj
 0001:0003771f       ?wide_null_string@?$output_processor@DV?$stream_output_adapter@D@__crt_stdio_output@@V?$positional_parameter_base@DV?$stream_output_adapter@D@__crt_stdio_output@@@2@@__crt_stdio_output@@CAPA_WXZ 1003871f f i libucrt:output.obj
 0001:00037725       ?wide_null_string@?$output_processor@DV?$stream_output_adapter@D@__crt_stdio_output@@V?$standard_base@DV?$stream_output_adapter@D@__crt_stdio_output@@@2@@__crt_stdio_output@@CAPA_WXZ 10038725 f i libucrt:output.obj
 0001:0003772b       ?wide_null_string@?$output_processor@DV?$string_output_adapter@D@__crt_stdio_output@@V?$format_validation_base@DV?$string_output_adapter@D@__crt_stdio_output@@@2@@__crt_stdio_output@@CAPA_WXZ 1003872b f i libucrt:output.obj
 0001:00037731       ?wide_null_string@?$output_processor@DV?$string_output_adapter@D@__crt_stdio_output@@V?$positional_parameter_base@DV?$string_output_adapter@D@__crt_stdio_output@@@2@@__crt_stdio_output@@CAPA_WXZ 10038731 f i libucrt:output.obj
 0001:00037737       ?wide_null_string@?$output_processor@DV?$string_output_adapter@D@__crt_stdio_output@@V?$standard_base@DV?$string_output_adapter@D@__crt_stdio_output@@@2@@__crt_stdio_output@@CAPA_WXZ 10038737 f i libucrt:output.obj
 0001:0003773d       ?wide_null_string@?$output_processor@_WV?$stream_output_adapter@_W@__crt_stdio_output@@V?$format_validation_base@_WV?$stream_output_adapter@_W@__crt_stdio_output@@@2@@__crt_stdio_output@@CAPA_WXZ 1003873d f i libucrt:output.obj
 0001:00037743       ?wide_null_string@?$output_processor@_WV?$stream_output_adapter@_W@__crt_stdio_output@@V?$positional_parameter_base@_WV?$stream_output_adapter@_W@__crt_stdio_output@@@2@@__crt_stdio_output@@CAPA_WXZ 10038743 f i libucrt:output.obj
 0001:00037749       ?wide_null_string@?$output_processor@_WV?$stream_output_adapter@_W@__crt_stdio_output@@V?$standard_base@_WV?$stream_output_adapter@_W@__crt_stdio_output@@@2@@__crt_stdio_output@@CAPA_WXZ 10038749 f i libucrt:output.obj
 0001:0003774f       ?wide_null_string@?$output_processor@_WV?$string_output_adapter@_W@__crt_stdio_output@@V?$format_validation_base@_WV?$string_output_adapter@_W@__crt_stdio_output@@@2@@__crt_stdio_output@@CAPA_WXZ 1003874f f i libucrt:output.obj
 0001:00037755       ?wide_null_string@?$output_processor@_WV?$string_output_adapter@_W@__crt_stdio_output@@V?$positional_parameter_base@_WV?$string_output_adapter@_W@__crt_stdio_output@@@2@@__crt_stdio_output@@CAPA_WXZ 10038755 f i libucrt:output.obj
 0001:0003775b       ?wide_null_string@?$output_processor@_WV?$string_output_adapter@_W@__crt_stdio_output@@V?$standard_base@_WV?$string_output_adapter@_W@__crt_stdio_output@@@2@@__crt_stdio_output@@CAPA_WXZ 1003875b f i libucrt:output.obj
 0001:00037761       ?write_character@?$output_adapter_common@DV?$stream_output_adapter@D@__crt_stdio_output@@@__crt_stdio_output@@QBEXDQAH@Z 10038761 f i libucrt:output.obj
 0001:00037787       ?write_character@?$output_adapter_common@_WV?$stream_output_adapter@_W@__crt_stdio_output@@@__crt_stdio_output@@QBEX_WQAH@Z 10038787 f i libucrt:output.obj
 0001:000377ad       ?write_character@?$string_output_adapter@D@__crt_stdio_output@@QBE_NDQAH@Z 100387ad f i libucrt:output.obj
 0001:000377ff       ?write_character@?$string_output_adapter@_W@__crt_stdio_output@@QBE_N_WQAH@Z 100387ff f i libucrt:output.obj
 0001:00037855       ?write_character_without_count_update@?$stream_output_adapter@D@__crt_stdio_output@@QBE_ND@Z 10038855 f i libucrt:output.obj
 0001:00037898       ?write_character_without_count_update@?$stream_output_adapter@_W@__crt_stdio_output@@QBE_N_W@Z 10038898 f i libucrt:output.obj
 0001:000378df       ?write_stored_string_tchar@?$output_processor@DV?$stream_output_adapter@D@__crt_stdio_output@@V?$format_validation_base@DV?$stream_output_adapter@D@__crt_stdio_output@@@2@@__crt_stdio_output@@AAE_ND@Z 100388df f i libucrt:output.obj
 0001:000379af       ?write_stored_string_tchar@?$output_processor@DV?$stream_output_adapter@D@__crt_stdio_output@@V?$positional_parameter_base@DV?$stream_output_adapter@D@__crt_stdio_output@@@2@@__crt_stdio_output@@AAE_ND@Z 100389af f i libucrt:output.obj
 0001:00037a7f       ?write_stored_string_tchar@?$output_processor@DV?$stream_output_adapter@D@__crt_stdio_output@@V?$standard_base@DV?$stream_output_adapter@D@__crt_stdio_output@@@2@@__crt_stdio_output@@AAE_ND@Z 10038a7f f i libucrt:output.obj
 0001:00037b4f       ?write_stored_string_tchar@?$output_processor@DV?$string_output_adapter@D@__crt_stdio_output@@V?$format_validation_base@DV?$string_output_adapter@D@__crt_stdio_output@@@2@@__crt_stdio_output@@AAE_ND@Z 10038b4f f i libucrt:output.obj
 0001:00037c1f       ?write_stored_string_tchar@?$output_processor@DV?$string_output_adapter@D@__crt_stdio_output@@V?$positional_parameter_base@DV?$string_output_adapter@D@__crt_stdio_output@@@2@@__crt_stdio_output@@AAE_ND@Z 10038c1f f i libucrt:output.obj
 0001:00037cef       ?write_stored_string_tchar@?$output_processor@DV?$string_output_adapter@D@__crt_stdio_output@@V?$standard_base@DV?$string_output_adapter@D@__crt_stdio_output@@@2@@__crt_stdio_output@@AAE_ND@Z 10038cef f i libucrt:output.obj
 0001:00037dbf       ?write_stored_string_tchar@?$output_processor@_WV?$stream_output_adapter@_W@__crt_stdio_output@@V?$format_validation_base@_WV?$stream_output_adapter@_W@__crt_stdio_output@@@2@@__crt_stdio_output@@AAE_N_W@Z 10038dbf f i libucrt:output.obj
 0001:00037e76       ?write_stored_string_tchar@?$output_processor@_WV?$stream_output_adapter@_W@__crt_stdio_output@@V?$positional_parameter_base@_WV?$stream_output_adapter@_W@__crt_stdio_output@@@2@@__crt_stdio_output@@AAE_N_W@Z 10038e76 f i libucrt:output.obj
 0001:00037f2d       ?write_stored_string_tchar@?$output_processor@_WV?$stream_output_adapter@_W@__crt_stdio_output@@V?$standard_base@_WV?$stream_output_adapter@_W@__crt_stdio_output@@@2@@__crt_stdio_output@@AAE_N_W@Z 10038f2d f i libucrt:output.obj
 0001:00037fe4       ?write_stored_string_tchar@?$output_processor@_WV?$string_output_adapter@_W@__crt_stdio_output@@V?$format_validation_base@_WV?$string_output_adapter@_W@__crt_stdio_output@@@2@@__crt_stdio_output@@AAE_N_W@Z 10038fe4 f i libucrt:output.obj
 0001:0003809b       ?write_stored_string_tchar@?$output_processor@_WV?$string_output_adapter@_W@__crt_stdio_output@@V?$positional_parameter_base@_WV?$string_output_adapter@_W@__crt_stdio_output@@@2@@__crt_stdio_output@@AAE_N_W@Z 1003909b f i libucrt:output.obj
 0001:00038152       ?write_stored_string_tchar@?$output_processor@_WV?$string_output_adapter@_W@__crt_stdio_output@@V?$standard_base@_WV?$string_output_adapter@_W@__crt_stdio_output@@@2@@__crt_stdio_output@@AAE_N_W@Z 10039152 f i libucrt:output.obj
 0001:00038209       ?write_string@?$stream_output_adapter@D@__crt_stdio_output@@QBEXQBDHQAHAAV__crt_deferred_errno_cache@@@Z 10039209 f i libucrt:output.obj
 0001:00038240       ?write_string@?$stream_output_adapter@_W@__crt_stdio_output@@QBEXQB_WHQAHAAV__crt_deferred_errno_cache@@@Z 10039240 f i libucrt:output.obj
 0001:00038277       ?write_string@?$string_output_adapter@D@__crt_stdio_output@@QBEXQBDHQAHAAV__crt_deferred_errno_cache@@@Z 10039277 f i libucrt:output.obj
 0001:000382f7       ?write_string@?$string_output_adapter@_W@__crt_stdio_output@@QBEXQB_WHQAHAAV__crt_deferred_errno_cache@@@Z 100392f7 f i libucrt:output.obj
 0001:00038384       ?write_string_impl@?$output_adapter_common@DV?$stream_output_adapter@D@__crt_stdio_output@@@__crt_stdio_output@@IBEXQBDHQAHAAV__crt_deferred_errno_cache@@@Z 10039384 f i libucrt:output.obj
 0001:00038449       ?write_string_impl@?$output_adapter_common@_WV?$stream_output_adapter@_W@__crt_stdio_output@@@__crt_stdio_output@@IBEXQB_WHQAHAAV__crt_deferred_errno_cache@@@Z 10039449 f i libucrt:output.obj
 0001:00038512       ___acrt_isleadbyte_l_noupdate 10039512 f i libucrt:output.obj
 0001:00038537       ___acrt_locale_changed     10039537 f i libucrt:output.obj
 0001:00038544       ___acrt_locale_get_ctype_array_value 10039544 f i libucrt:output.obj
 0001:0003856e       ___stdio_common_vfprintf   1003956e f   libucrt:output.obj
 0001:00038611       ___stdio_common_vfprintf_p 10039611 f   libucrt:output.obj
 0001:000386b4       ___stdio_common_vfprintf_s 100396b4 f   libucrt:output.obj
 0001:00038757       ___stdio_common_vfwprintf  10039757 f   libucrt:output.obj
 0001:000387fa       ___stdio_common_vfwprintf_p 100397fa f   libucrt:output.obj
 0001:0003889d       ___stdio_common_vfwprintf_s 1003989d f   libucrt:output.obj
 0001:00038940       ___stdio_common_vsnprintf_s 10039940 f   libucrt:output.obj
 0001:00038970       ___stdio_common_vsnwprintf_s 10039970 f   libucrt:output.obj
 0001:000389a0       ___stdio_common_vsprintf   100399a0 f   libucrt:output.obj
 0001:000389cd       ___stdio_common_vsprintf_p 100399cd f   libucrt:output.obj
 0001:000389fa       ___stdio_common_vsprintf_s 100399fa f   libucrt:output.obj
 0001:00038a27       ___stdio_common_vswprintf  10039a27 f   libucrt:output.obj
 0001:00038a54       ___stdio_common_vswprintf_p 10039a54 f   libucrt:output.obj
 0001:00038a81       ___stdio_common_vswprintf_s 10039a81 f   libucrt:output.obj
 0001:00038aae       __ctype_fast_check_internal 10039aae f i libucrt:output.obj
 0001:00038ace       __isdigit_fast_internal    10039ace f i libucrt:output.obj
 0001:00038aee       __tolower_fast_internal    10039aee f i libucrt:output.obj
 0001:00038b0d       _calloc                    10039b0d f   libucrt:calloc.obj
 0001:00038b1a       _realloc                   10039b1a f   libucrt:realloc.obj
 0001:00038b27       ??$?B$$A6GXPAXK0@Z@__crt_fast_encoded_nullptr_t@@QBEP6GXPAXK0@ZXZ 10039b27 f i libucrt:exit.obj
 0001:00038bbc       ??$__crt_fast_decode_pointer@P6GXPAXK0@Z@@YAP6GXPAXK0@ZQ6GX0K0@Z@Z 10039bbc f i libucrt:exit.obj
 0001:00038bd7       ??$__crt_fast_encode_pointer@P6GXPAXK0@Z@@YAP6GXPAXK0@ZQ6GX0K0@Z@Z 10039bd7 f i libucrt:exit.obj
 0001:00038bfd       ??$__crt_get_proc_address@P6GXI@Z@@YAP6GXI@ZQAUHINSTANCE__@@QBD@Z 10039bfd f i libucrt:exit.obj
 0001:00038c63       ??0?$__crt_unique_handle_t@U__crt_hmodule_traits@@@@QAE@QAUHINSTANCE__@@@Z 10039c63 f i libucrt:exit.obj
 0001:00038c77       ??1?$__crt_unique_handle_t@U__crt_hmodule_traits@@@@QAE@XZ 10039c77 f i libucrt:exit.obj
 0001:00038db9       ?__acrt_select_exit_lock@@YA?AW4__acrt_lock_id@@XZ 10039db9 f i libucrt:exit.obj
 0001:00038dbd       ?__crt_fast_encode_pointer@@YA?AU__crt_fast_encoded_nullptr_t@@$$T@Z 10039dbd f i libucrt:exit.obj
 0001:00038dca       ?__crt_rotate_pointer_value@@YAIIH@Z 10039dca f i libucrt:exit.obj
 0001:00038df3       ?close@?$__crt_unique_handle_t@U__crt_hmodule_traits@@@@QAEXXZ 10039df3 f i libucrt:exit.obj
 0001:00038e0f       ?close@__crt_hmodule_traits@@SA_NPAUHINSTANCE__@@@Z 10039e0f f i libucrt:exit.obj
 0001:00038ef8       ?get@?$__crt_unique_handle_t@U__crt_hmodule_traits@@@@QBEPAUHINSTANCE__@@XZ 10039ef8 f i libucrt:exit.obj
 0001:00038efb       ?get_address_of@?$__crt_unique_handle_t@U__crt_hmodule_traits@@@@QAEPAPAUHINSTANCE__@@XZ 10039efb f i libucrt:exit.obj
 0001:00038efe       ?get_invalid_value@__crt_hmodule_traits@@SAPAUHINSTANCE__@@XZ 10039efe f i libucrt:exit.obj
 0001:00038fe5       __Exit                     10039fe5 f   libucrt:exit.obj
 0001:00039000       ___acrt_initialize_thread_local_exit_callback 1003a000 f   libucrt:exit.obj
 0001:00039012       __c_exit                   1003a012 f   libucrt:exit.obj
 0001:00039024       __cexit                    1003a024 f   libucrt:exit.obj
 0001:00039036       __exit                     1003a036 f   libucrt:exit.obj
 0001:00039051       __is_c_termination_complete 1003a051 f   libucrt:exit.obj
 0001:00039058       __register_thread_local_exe_atexit_callback 1003a058 f   libucrt:exit.obj
 0001:00039087       _exit                      1003a087 f   libucrt:exit.obj
 0001:000390a2       _quick_exit                1003a0a2 f   libucrt:exit.obj
 0001:000390c0       _strncat                   1003a0c0 f   libucrt:strncat.obj
 0001:00039250       _strncpy                   1003a250 f   libucrt:strncpy.obj
 0001:000393bd       ?is_in_use@__crt_stdio_stream@@QBE_NXZ 1003a3bd f i libucrt:fclose.obj
 0001:000393cc       __fclose_nolock            1003a3cc f   libucrt:fclose.obj
 0001:00039460       _fclose                    1003a460 f   libucrt:fclose.obj
 0001:0003977c       ??$open_file@ABQBDABQBDABHPAU_iobuf@@@?$__crt_char_traits@D@@SAPAU_iobuf@@ABQBD0ABH$$QAPAU1@@Z 1003a77c f i libucrt:fopen.obj
 0001:000397a7       ??$open_file@ABQB_WABQB_WABHPAU_iobuf@@@?$__crt_char_traits@_W@@SAPAU_iobuf@@ABQB_W0ABH$$QAPAU1@@Z 1003a7a7 f i libucrt:fopen.obj
 0001:000397d2       ?unlock@__crt_stdio_stream@@QBEXXZ 1003a7d2 f i libucrt:fopen.obj
 0001:000397dd       __fsopen                   1003a7dd f   libucrt:fopen.obj
 0001:000397ea       __wfopen                   1003a7ea f   libucrt:fopen.obj
 0001:00039806       __wfopen_s                 1003a806 f   libucrt:fopen.obj
 0001:0003985e       __wfsopen                  1003a85e f   libucrt:fopen.obj
 0001:0003986b       _fopen                     1003a86b f   libucrt:fopen.obj
 0001:00039887       _fopen_s                   1003a887 f   libucrt:fopen.obj
 0001:000398df       ?__acrt_stdio_reset_buffer@@YAXV__crt_stdio_stream@@@Z 1003a8df f i libucrt:fread.obj
 0001:000398fa       ?has_any_buffer@__crt_stdio_stream@@QBE_NXZ 1003a8fa f i libucrt:fread.obj
 0001:0003990c       ?has_any_of@__crt_stdio_stream@@QBE_NJ@Z 1003a90c f i libucrt:fread.obj
 0001:00039926       ?set_flags@__crt_stdio_stream@@QBE_NJ@Z 1003a926 f i libucrt:fread.obj
 0001:00039953       __fread_nolock             1003a953 f   libucrt:fread.obj
 0001:00039977       __fread_nolock_s           1003a977 f   libucrt:fread.obj
 0001:00039bd6       _fread                     1003abd6 f   libucrt:fread.obj
 0001:00039bfa       _fread_s                   1003abfa f   libucrt:fread.obj
 0001:00039ebe       ?has_big_buffer@__crt_stdio_stream@@QBE_NXZ 1003aebe f i libucrt:fwrite.obj
 0001:00039ecd       __fwrite_nolock            1003aecd f   libucrt:fwrite.obj
 0001:0003a0ae       _fwrite                    1003b0ae f   libucrt:fwrite.obj
 0001:0003a207       ??$__acrt_mbs_to_wcs_cp@U__crt_win32_buffer_internal_dynamic_resizing@@@@YAHQBDAAV?$__crt_win32_buffer@_WU__crt_win32_buffer_internal_dynamic_resizing@@@@I@Z 1003b207 f i libucrt:unlink.obj
 0001:0003a22b       ??0?$__crt_win32_buffer@_WU__crt_win32_buffer_internal_dynamic_resizing@@@@QAE@XZ 1003b22b f i libucrt:unlink.obj
 0001:0003a246       ??1?$__crt_win32_buffer@_WU__crt_win32_buffer_internal_dynamic_resizing@@@@QAE@XZ 1003b246 f i libucrt:unlink.obj
 0001:0003a274       ?__acrt_get_utf8_acp_compatibility_codepage@@YAIXZ 1003b274 f i libucrt:unlink.obj
 0001:0003a2c2       ?_deallocate@?$__crt_win32_buffer@_WU__crt_win32_buffer_internal_dynamic_resizing@@@@AAEXXZ 1003b2c2 f i libucrt:unlink.obj
 0001:0003a2e2       ?allocate@?$__crt_win32_buffer@_WU__crt_win32_buffer_internal_dynamic_resizing@@@@QAEHI@Z 1003b2e2 f i libucrt:unlink.obj
 0001:0003a330       ?allocate@__crt_win32_buffer_internal_dynamic_resizing@@SAHQAPAXIABV__crt_win32_buffer_empty_debug_info@@@Z 1003b330 f i libucrt:unlink.obj
 0001:0003a356       ?capacity@?$__crt_win32_buffer@_WU__crt_win32_buffer_internal_dynamic_resizing@@@@QBEIXZ 1003b356 f i libucrt:unlink.obj
 0001:0003a35a       ?data@?$__crt_win32_buffer@_WU__crt_win32_buffer_internal_dynamic_resizing@@@@QAEPA_WXZ 1003b35a f i libucrt:unlink.obj
 0001:0003a35e       ?deallocate@__crt_win32_buffer_internal_dynamic_resizing@@SAXQAXABV__crt_win32_buffer_empty_debug_info@@@Z 1003b35e f i libucrt:unlink.obj
 0001:0003a372       ?debug_info@?$__crt_win32_buffer@_WU__crt_win32_buffer_internal_dynamic_resizing@@@@QBEABV__crt_win32_buffer_empty_debug_info@@XZ 1003b372 f i libucrt:unlink.obj
 0001:0003a375       ?set_to_nullptr@?$__crt_win32_buffer@_WU__crt_win32_buffer_internal_dynamic_resizing@@@@QAEXXZ 1003b375 f i libucrt:unlink.obj
 0001:0003a391       ?size@?$__crt_win32_buffer@_WU__crt_win32_buffer_internal_dynamic_resizing@@@@QAEXI@Z 1003b391 f i libucrt:unlink.obj
 0001:0003a3a3       __unlink                   1003b3a3 f   libucrt:unlink.obj
 0001:0003a3b0       _remove                    1003b3b0 f   libucrt:unlink.obj
 0001:0003a434       ?has_all_of@__crt_stdio_stream@@QBE_NJ@Z 1003b434 f i libucrt:rewind.obj
 0001:0003a452       ?unset_flags@__crt_stdio_stream@@QBE_NJ@Z 1003b452 f i libucrt:rewind.obj
 0001:0003a485       _rewind                    1003b485 f   libucrt:rewind.obj
 0001:0003a585       _ldexp                     1003b585 f   libucrt:ldexp.obj
 0001:0003a800       __CIfmod                   1003b800 f   libucrt:87fmod_impl.obj
 0001:0003a810       __fFMOD                    1003b810 f   libucrt:87fmod_impl.obj
 0001:0003a825       ___libm_sse2_cos           1003b825 f   libucrt:cos_sse2.obj
 0001:0003aa2e       ___libm_sse2_sin           1003ba2e f   libucrt:sin_sse2.obj
 0001:0003ac47       __errcode                  1003bc47 f   libucrt:fpexcept.obj
 0001:0003ac88       __except1                  1003bc88 f   libucrt:fpexcept.obj
 0001:0003ad89       __except2                  1003bd89 f   libucrt:fpexcept.obj
 0001:0003aed2       __handle_exc               1003bed2 f   libucrt:fpexcept.obj
 0001:0003b137       __handle_qnan2             1003c137 f   libucrt:fpexcept.obj
 0001:0003b147       __raise_exc                1003c147 f   libucrt:fpexcept.obj
 0001:0003b172       __raise_exc_ex             1003c172 f   libucrt:fpexcept.obj
 0001:0003b525       __raise_excf               1003c525 f   libucrt:fpexcept.obj
 0001:0003b550       __set_errno_from_matherr   1003c550 f   libucrt:fpexcept.obj
 0001:0003b58a       __umatherr                 1003c58a f   libucrt:fpexcept.obj
 0001:0003b652       __initterm                 1003c652 f   libucrt:initterm.obj
 0001:0003b6a8       __initterm_e               1003c6a8 f   libucrt:initterm.obj
 0001:0003b70e       __seh_filter_dll           1003c70e f   libucrt:exception_filter.obj
 0001:0003b736       __seh_filter_exe           1003c736 f   libucrt:exception_filter.obj
 0001:0003b8e4       ??$?RE@__crt_internal_free_policy@@QBEXQBE@Z 1003c8e4 f i libucrt:argv_parsing.obj
 0001:0003b8fa       ??$?RPAD@__crt_internal_free_policy@@QBEXQBQAD@Z 1003c8fa f i libucrt:argv_parsing.obj
 0001:0003b910       ??$?RPA_W@__crt_internal_free_policy@@QBEXQBQA_W@Z 1003c910 f i libucrt:argv_parsing.obj
 0001:0003bc23       ??$get_module_file_name@$$TAAY0BAF@DH@?$__crt_char_traits@D@@SAK$$QA$$TAAY0BAF@D$$QAH@Z 1003cc23 f i libucrt:argv_parsing.obj
 0001:0003bc46       ??$get_module_file_name@$$TAAY0BAF@_WH@?$__crt_char_traits@_W@@SAK$$QA$$TAAY0BAF@_W$$QAH@Z 1003cc46 f i libucrt:argv_parsing.obj
 0001:0003c034       ??$set_program_name@PAD@?$__crt_char_traits@D@@SAX$$QAPAD@Z 1003d034 f i libucrt:argv_parsing.obj
 0001:0003c049       ??$set_program_name@PA_W@?$__crt_char_traits@_W@@SAX$$QAPA_W@Z 1003d049 f i libucrt:argv_parsing.obj
 0001:0003c086       ??0?$__crt_unique_heap_ptr@EU__crt_internal_free_policy@@@@QAE@QAE@Z 1003d086 f i libucrt:argv_parsing.obj
 0001:0003c09a       ??0?$__crt_unique_heap_ptr@PADU__crt_internal_free_policy@@@@QAE@QAPAD@Z 1003d09a f i libucrt:argv_parsing.obj
 0001:0003c0ae       ??0?$__crt_unique_heap_ptr@PA_WU__crt_internal_free_policy@@@@QAE@QAPA_W@Z 1003d0ae f i libucrt:argv_parsing.obj
 0001:0003c0c2       ??1?$__crt_unique_heap_ptr@EU__crt_internal_free_policy@@@@QAE@XZ 1003d0c2 f i libucrt:argv_parsing.obj
 0001:0003c0d8       ??1?$__crt_unique_heap_ptr@PADU__crt_internal_free_policy@@@@QAE@XZ 1003d0d8 f i libucrt:argv_parsing.obj
 0001:0003c0ee       ??1?$__crt_unique_heap_ptr@PA_WU__crt_internal_free_policy@@@@QAE@XZ 1003d0ee f i libucrt:argv_parsing.obj
 0001:0003c104       ??B?$__crt_unique_heap_ptr@EU__crt_internal_free_policy@@@@QBE_NXZ 1003d104 f i libucrt:argv_parsing.obj
 0001:0003c141       ?detach@?$__crt_unique_heap_ptr@EU__crt_internal_free_policy@@@@QAEPAEXZ 1003d141 f i libucrt:argv_parsing.obj
 0001:0003c147       ?detach@?$__crt_unique_heap_ptr@PADU__crt_internal_free_policy@@@@QAEPAPADXZ 1003d147 f i libucrt:argv_parsing.obj
 0001:0003c14d       ?detach@?$__crt_unique_heap_ptr@PA_WU__crt_internal_free_policy@@@@QAEPAPA_WXZ 1003d14d f i libucrt:argv_parsing.obj
 0001:0003c175       ?get@?$__crt_unique_heap_ptr@EU__crt_internal_free_policy@@@@QBEPAEXZ 1003d175 f i libucrt:argv_parsing.obj
 0001:0003c178       ?get@?$__crt_unique_heap_ptr@PADU__crt_internal_free_policy@@@@QBEPAPADXZ 1003d178 f i libucrt:argv_parsing.obj
 0001:0003c17b       ?get@?$__crt_unique_heap_ptr@PA_WU__crt_internal_free_policy@@@@QBEPAPA_WXZ 1003d17b f i libucrt:argv_parsing.obj
 0001:0003c17e       ?get_address_of@?$__crt_unique_heap_ptr@PADU__crt_internal_free_policy@@@@QAEPAPAPADXZ 1003d17e f i libucrt:argv_parsing.obj
 0001:0003c181       ?get_address_of@?$__crt_unique_heap_ptr@PA_WU__crt_internal_free_policy@@@@QAEPAPAPA_WXZ 1003d181 f i libucrt:argv_parsing.obj
 0001:0003c19c       ?is_valid@?$__crt_unique_heap_ptr@EU__crt_internal_free_policy@@@@QBE_NXZ 1003d19c f i libucrt:argv_parsing.obj
 0001:0003c1a3       ?release@?$__crt_unique_heap_ptr@EU__crt_internal_free_policy@@@@QAEXXZ 1003d1a3 f i libucrt:argv_parsing.obj
 0001:0003c1b9       ?release@?$__crt_unique_heap_ptr@PADU__crt_internal_free_policy@@@@QAEXXZ 1003d1b9 f i libucrt:argv_parsing.obj
 0001:0003c1cf       ?release@?$__crt_unique_heap_ptr@PA_WU__crt_internal_free_policy@@@@QAEXXZ 1003d1cf f i libucrt:argv_parsing.obj
 0001:0003c204       ___acrt_allocate_buffer_for_argv 1003d204 f   libucrt:argv_parsing.obj
 0001:0003c266       __configure_narrow_argv    1003d266 f   libucrt:argv_parsing.obj
 0001:0003c273       __configure_wide_argv      1003d273 f   libucrt:argv_parsing.obj
 0001:0003c280       __set_pgmptr               1003d280 f i libucrt:argv_parsing.obj
 0001:0003c292       __set_wpgmptr              1003d292 f i libucrt:argv_parsing.obj
 0001:0003c2a4       ??$?R_W@__crt_internal_free_policy@@QBEXQB_W@Z 1003d2a4 f i libucrt:environment_initialization.obj
 0001:0003c786       ??$get_environment_from_os@$$V@?$__crt_char_traits@D@@SAPADXZ 1003d786 f i libucrt:environment_initialization.obj
 0001:0003c78b       ??$get_environment_from_os@$$V@?$__crt_char_traits@_W@@SAPA_WXZ 1003d78b f i libucrt:environment_initialization.obj
 0001:0003c8cf       ??$set_variable_in_environment_nolock@PADH@?$__crt_char_traits@D@@SAH$$QAPAD$$QAH@Z 1003d8cf f i libucrt:environment_initialization.obj
 0001:0003c8ed       ??$set_variable_in_environment_nolock@PA_WH@?$__crt_char_traits@_W@@SAH$$QAPA_W$$QAH@Z 1003d8ed f i libucrt:environment_initialization.obj
 0001:0003c90b       ??$tcscpy_s@PADABIAAPAD@?$__crt_char_traits@D@@SAH$$QAPADABIAAPAD@Z 1003d90b f i libucrt:environment_initialization.obj
 0001:0003c930       ??$tcscpy_s@PA_WABIAAPA_W@?$__crt_char_traits@_W@@SAH$$QAPA_WABIAAPA_W@Z 1003d930 f i libucrt:environment_initialization.obj
 0001:0003c955       ??$tcslen@AAPAD@?$__crt_char_traits@D@@SAIAAPAD@Z 1003d955 f i libucrt:environment_initialization.obj
 0001:0003c973       ??$tcslen@AAPA_W@?$__crt_char_traits@_W@@SAIAAPA_W@Z 1003d973 f i libucrt:environment_initialization.obj
 0001:0003c998       ??$uninitialize@A6AXAAPAPAD@Z@?$dual_state_global@PAPAD@__crt_state_management@@QAEXA6AXAAPAPAD@Z@Z 1003d998 f i libucrt:environment_initialization.obj
 0001:0003c9cb       ??$uninitialize@A6AXAAPAPA_W@Z@?$dual_state_global@PAPA_W@__crt_state_management@@QAEXA6AXAAPAPA_W@Z@Z 1003d9cb f i libucrt:environment_initialization.obj
 0001:0003ca40       ??0?$__crt_unique_heap_ptr@_WU__crt_internal_free_policy@@@@QAE@QA_W@Z 1003da40 f i libucrt:environment_initialization.obj
 0001:0003ca54       ??1?$__crt_unique_heap_ptr@_WU__crt_internal_free_policy@@@@QAE@XZ 1003da54 f i libucrt:environment_initialization.obj
 0001:0003ca6a       ??B?$__crt_unique_heap_ptr@PADU__crt_internal_free_policy@@@@QBE_NXZ 1003da6a f i libucrt:environment_initialization.obj
 0001:0003ca71       ??B?$__crt_unique_heap_ptr@PA_WU__crt_internal_free_policy@@@@QBE_NXZ 1003da71 f i libucrt:environment_initialization.obj
 0001:0003ca78       ??B?$__crt_unique_heap_ptr@_WU__crt_internal_free_policy@@@@QBE_NXZ 1003da78 f i libucrt:environment_initialization.obj
 0001:0003ca7f       ?__crt_compute_required_transform_buffer_count@@YAIIQBD@Z 1003da7f f i libucrt:environment_initialization.obj
 0001:0003caa2       ?__crt_compute_required_transform_buffer_count@@YAIIQB_W@Z 1003daa2 f i libucrt:environment_initialization.obj
 0001:0003cac7       ?__crt_transform_string@@YAIIQBDQA_WI@Z 1003dac7 f i libucrt:environment_initialization.obj
 0001:0003caed       ?__crt_transform_string@@YAIIQB_WQADI@Z 1003daed f i libucrt:environment_initialization.obj
 0001:0003cb17       ?detach@?$__crt_unique_heap_ptr@DU__crt_internal_free_policy@@@@QAEPADXZ 1003db17 f i libucrt:environment_initialization.obj
 0001:0003cb1d       ?detach@?$__crt_unique_heap_ptr@_WU__crt_internal_free_policy@@@@QAEPA_WXZ 1003db1d f i libucrt:environment_initialization.obj
 0001:0003cb23       ?get@?$__crt_unique_heap_ptr@_WU__crt_internal_free_policy@@@@QBEPA_WXZ 1003db23 f i libucrt:environment_initialization.obj
 0001:0003cb26       ?get_current_state_index@__crt_state_management@@YAIXZ 1003db26 f i libucrt:environment_initialization.obj
 0001:0003cb4d       ?initialize@?$dual_state_global@PAPAD@__crt_state_management@@QAEXQAPAD@Z 1003db4d f i libucrt:environment_initialization.obj
 0001:0003cb7c       ?initialize@?$dual_state_global@PAPA_W@__crt_state_management@@QAEXQAPA_W@Z 1003db7c f i libucrt:environment_initialization.obj
 0001:0003cbab       ?is_valid@?$__crt_unique_heap_ptr@PADU__crt_internal_free_policy@@@@QBE_NXZ 1003dbab f i libucrt:environment_initialization.obj
 0001:0003cbb2       ?is_valid@?$__crt_unique_heap_ptr@PA_WU__crt_internal_free_policy@@@@QBE_NXZ 1003dbb2 f i libucrt:environment_initialization.obj
 0001:0003cbb9       ?is_valid@?$__crt_unique_heap_ptr@_WU__crt_internal_free_policy@@@@QBE_NXZ 1003dbb9 f i libucrt:environment_initialization.obj
 0001:0003cbc8       ?release@?$__crt_unique_heap_ptr@_WU__crt_internal_free_policy@@@@QAEXXZ 1003dbc8 f i libucrt:environment_initialization.obj
 0001:0003cbde       ?value@?$dual_state_global@PAPAD@__crt_state_management@@QAEAAPAPADXZ 1003dbde f i libucrt:environment_initialization.obj
 0001:0003cbe1       ?value@?$dual_state_global@PAPA_W@__crt_state_management@@QAEAAPAPA_WXZ 1003dbe1 f i libucrt:environment_initialization.obj
 0001:0003cbe4       ___dcrt_get_or_create_narrow_environment_nolock 1003dbe4 f   libucrt:environment_initialization.obj
 0001:0003cbe9       ___dcrt_get_or_create_wide_environment_nolock 1003dbe9 f   libucrt:environment_initialization.obj
 0001:0003cbee       ___dcrt_uninitialize_environments_nolock 1003dbee f   libucrt:environment_initialization.obj
 0001:0003cc32       ___p__environ              1003dc32 f   libucrt:environment_initialization.obj
 0001:0003cc38       ___p__wenviron             1003dc38 f   libucrt:environment_initialization.obj
 0001:0003cc3e       __get_initial_narrow_environment 1003dc3e f   libucrt:environment_initialization.obj
 0001:0003cc57       __get_initial_wide_environment 1003dc57 f   libucrt:environment_initialization.obj
 0001:0003cc70       __initialize_narrow_environment 1003dc70 f   libucrt:environment_initialization.obj
 0001:0003cc75       __initialize_wide_environment 1003dc75 f   libucrt:environment_initialization.obj
 0001:0003cc7a       __invoke_watson_if_error   1003dc7a f i libucrt:environment_initialization.obj
 0001:0003cca4       ??$?B$$A6AXXZ@__crt_fast_encoded_nullptr_t@@QBEP6AXXZXZ 1003dca4 f i libucrt:onexit.obj
 0001:0003ccaa       ??$?BP6AXXZ@__crt_fast_encoded_nullptr_t@@QBEPAP6AXXZXZ 1003dcaa f i libucrt:onexit.obj
 0001:0003ccb0       ??$?RP6AXXZ@__crt_internal_free_policy@@QBEXQBQ6AXXZ@Z 1003dcb0 f i libucrt:onexit.obj
 0001:0003ce06       ??$__crt_fast_decode_pointer@P6AXXZ@@YAP6AXXZQ6AXXZ@Z 1003de06 f i libucrt:onexit.obj
 0001:0003ce21       ??$__crt_fast_decode_pointer@PAP6AXXZ@@YAPAP6AXXZQAP6AXXZ@Z 1003de21 f i libucrt:onexit.obj
 0001:0003ce3c       ??$__crt_fast_encode_pointer@P6AHXZ@@YAP6AHXZQ6AHXZ@Z 1003de3c f i libucrt:onexit.obj
 0001:0003ce62       ??$__crt_fast_encode_pointer@P6AXXZ@@YAP6AXXZQ6AXXZ@Z 1003de62 f i libucrt:onexit.obj
 0001:0003ce88       ??$__crt_fast_encode_pointer@PAP6AXXZ@@YAPAP6AXXZQAP6AXXZ@Z 1003de88 f i libucrt:onexit.obj
 0001:0003cf35       ??0?$__crt_unique_heap_ptr@P6AXXZU__crt_internal_free_policy@@@@QAE@QAP6AXXZ@Z 1003df35 f i libucrt:onexit.obj
 0001:0003cf49       ??1?$__crt_unique_heap_ptr@P6AXXZU__crt_internal_free_policy@@@@QAE@XZ 1003df49 f i libucrt:onexit.obj
 0001:0003cf5f       ??1scoped_global_state_reset@__crt_state_management@@QAE@XZ 1003df5f f i libucrt:onexit.obj
 0001:0003d211       ?detach@?$__crt_unique_heap_ptr@P6AXXZU__crt_internal_free_policy@@@@QAEPAP6AXXZXZ 1003e211 f i libucrt:onexit.obj
 0001:0003d217       ?release@?$__crt_unique_heap_ptr@P6AXXZU__crt_internal_free_policy@@@@QAEXXZ 1003e217 f i libucrt:onexit.obj
 0001:0003d22d       __crt_at_quick_exit        1003e22d f   libucrt:onexit.obj
 0001:0003d248       __crt_atexit               1003e248 f   libucrt:onexit.obj
 0001:0003d263       __execute_onexit_table     1003e263 f   libucrt:onexit.obj
 0001:0003d29b       __initialize_onexit_table  1003e29b f   libucrt:onexit.obj
 0001:0003d2ce       __register_onexit_function 1003e2ce f   libucrt:onexit.obj
 0001:0003d41a       ??$?BX@__crt_fast_encoded_nullptr_t@@QBEPAXXZ 1003e41a f i libucrt:initialization.obj
 0001:0003d420       ??$__crt_fast_encode_pointer@PAX@@YAPAXQAX@Z 1003e420 f i libucrt:initialization.obj
 0001:0003d4ac       ?__acrt_stdio_is_initialized@@YA_NXZ 1003e4ac f i libucrt:initialization.obj
 0001:0003d4b9       ?initialize@?$dual_state_global@PAU__crt_locale_data@@@__crt_state_management@@QAEXQAU__crt_locale_data@@@Z 1003e4b9 f i libucrt:initialization.obj
 0001:0003d4e8       ___acrt_initialize         1003e4e8 f   libucrt:initialization.obj
 0001:0003d4fe       ___acrt_thread_attach      1003e4fe f   libucrt:initialization.obj
 0001:0003d50b       ___acrt_thread_detach      1003e50b f   libucrt:initialization.obj
 0001:0003d515       ___acrt_uninitialize       1003e515 f   libucrt:initialization.obj
 0001:0003d551       ___acrt_uninitialize_critical 1003e551 f   libucrt:initialization.obj
 0001:0003d582       __get_terminate            1003e582 f   libucrt:terminate.obj
 0001:0003d598       _set_terminate             1003e598 f   libucrt:terminate.obj
 0001:0003d5c0       _terminate                 1003e5c0 f   libucrt:terminate.obj
 0001:0003d67b       _strcpy_s                  1003e67b f   libucrt:strcpy_s.obj
 0001:0003d6eb       __set_abort_behavior       1003e6eb f   libucrt:abort.obj
 0001:0003d714       _abort                     1003e714 f   libucrt:abort.obj
 0001:0003d769       ??$is_overflow_condition@K@__crt_strtox@@YA_NIK@Z 1003e769 f i libucrt:atox.obj
 0001:0003d7a6       ??$is_overflow_condition@_K@__crt_strtox@@YA_NI_K@Z 1003e7a6 f i libucrt:atox.obj
 0001:0003d7f7       ??$make_c_string_character_source@D$$T@__crt_strtox@@YA?AV?$c_string_character_source@D@0@QBD$$T@Z 1003e7f7 f i libucrt:atox.obj
 0001:0003d818       ??$make_c_string_character_source@_W$$T@__crt_strtox@@YA?AV?$c_string_character_source@_W@0@QB_W$$T@Z 1003e818 f i libucrt:atox.obj
 0001:0003d839       ??$parse_integer@KV?$c_string_character_source@D@__crt_strtox@@@__crt_strtox@@YAKQAU__crt_locale_pointers@@V?$c_string_character_source@D@0@H_N@Z 1003e839 f i libucrt:atox.obj
 0001:0003dae7       ??$parse_integer@KV?$c_string_character_source@_W@__crt_strtox@@@__crt_strtox@@YAKQAU__crt_locale_pointers@@V?$c_string_character_source@_W@0@H_N@Z 1003eae7 f i libucrt:atox.obj
 0001:0003e271       ??$parse_integer@_KV?$c_string_character_source@D@__crt_strtox@@@__crt_strtox@@YA_KQAU__crt_locale_pointers@@V?$c_string_character_source@D@0@H_N@Z 1003f271 f i libucrt:atox.obj
 0001:0003e5c0       ??$parse_integer@_KV?$c_string_character_source@_W@__crt_strtox@@@__crt_strtox@@YA_KQAU__crt_locale_pointers@@V?$c_string_character_source@_W@0@H_N@Z 1003f5c0 f i libucrt:atox.obj
 0001:0003ee45       ??$parse_integer_from_string@JD$$T@__crt_strtox@@YAJQBD$$THQAU__crt_locale_pointers@@@Z 1003fe45 f i libucrt:atox.obj
 0001:0003ee7a       ??$parse_integer_from_string@J_W$$T@__crt_strtox@@YAJQB_W$$THQAU__crt_locale_pointers@@@Z 1003fe7a f i libucrt:atox.obj
 0001:0003eeaf       ??$parse_integer_from_string@_JD$$T@__crt_strtox@@YA_JQBD$$THQAU__crt_locale_pointers@@@Z 1003feaf f i libucrt:atox.obj
 0001:0003eee4       ??$parse_integer_from_string@_J_W$$T@__crt_strtox@@YA_JQB_W$$THQAU__crt_locale_pointers@@@Z 1003fee4 f i libucrt:atox.obj
 0001:0003ef19       ??0?$c_string_character_source@D@__crt_strtox@@QAE@QBDQAPBD@Z 1003ff19 f i libucrt:atox.obj
 0001:0003ef3c       ??0?$c_string_character_source@_W@__crt_strtox@@QAE@QB_WQAPB_W@Z 1003ff3c f i libucrt:atox.obj
 0001:0003ef5f       ??1?$c_string_character_source@D@__crt_strtox@@QAE@XZ 1003ff5f f i libucrt:atox.obj
 0001:0003ef6e       ??1?$c_string_character_source@_W@__crt_strtox@@QAE@XZ 1003ff6e f i libucrt:atox.obj
 0001:0003ef7d       ?get@?$c_string_character_source@D@__crt_strtox@@QAEDXZ 1003ff7d f i libucrt:atox.obj
 0001:0003ef87       ?get@?$c_string_character_source@_W@__crt_strtox@@QAE_WXZ 1003ff87 f i libucrt:atox.obj
 0001:0003ef94       ?is_space@__crt_strtox@@YA_NDQAU__crt_locale_pointers@@@Z 1003ff94 f i libucrt:atox.obj
 0001:0003efb9       ?is_space@__crt_strtox@@YA_N_WPAU__crt_locale_pointers@@@Z 1003ffb9 f i libucrt:atox.obj
 0001:0003efd7       ?maximum_signed_value@__crt_strtox@@YAJK@Z 1003ffd7 f i libucrt:atox.obj
 0001:0003efdd       ?maximum_signed_value@__crt_strtox@@YA_J_K@Z 1003ffdd f i libucrt:atox.obj
 0001:0003efe8       ?minimum_signed_value@__crt_strtox@@YAJK@Z 1003ffe8 f i libucrt:atox.obj
 0001:0003efee       ?minimum_signed_value@__crt_strtox@@YA_J_K@Z 1003ffee f i libucrt:atox.obj
 0001:0003eff8       ?parse_digit@__crt_strtox@@YAID@Z 1003fff8 f i libucrt:atox.obj
 0001:0003f040       ?parse_digit@__crt_strtox@@YAI_W@Z 10040040 f i libucrt:atox.obj
 0001:0003f296       ?restore_state@?$c_string_character_source@D@__crt_strtox@@QAE_NQBD@Z 10040296 f i libucrt:atox.obj
 0001:0003f2aa       ?restore_state@?$c_string_character_source@_W@__crt_strtox@@QAE_NQB_W@Z 100402aa f i libucrt:atox.obj
 0001:0003f2be       ?save_state@?$c_string_character_source@D@__crt_strtox@@QBEPBDXZ 100402be f i libucrt:atox.obj
 0001:0003f2c1       ?save_state@?$c_string_character_source@_W@__crt_strtox@@QBEPB_WXZ 100402c1 f i libucrt:atox.obj
 0001:0003f2c4       ?unget@?$c_string_character_source@D@__crt_strtox@@QAEXD@Z 100402c4 f i libucrt:atox.obj
 0001:0003f2f7       ?unget@?$c_string_character_source@_W@__crt_strtox@@QAEX_W@Z 100402f7 f i libucrt:atox.obj
 0001:0003f330       ?validate@?$c_string_character_source@D@__crt_strtox@@QBE_NXZ 10040330 f i libucrt:atox.obj
 0001:0003f351       ?validate@?$c_string_character_source@_W@__crt_strtox@@QBE_NXZ 10040351 f i libucrt:atox.obj
 0001:0003f372       ?wide_character_to_digit@__crt_strtox@@YAH_W@Z 10040372 f i libucrt:atox.obj
 0001:0003f57b       ___acrt_get_locale_data_prefix 1004057b f i libucrt:atox.obj
 0001:0003f58a       ___ascii_iswalpha          1004058a f i libucrt:atox.obj
 0001:0003f5b5       ___ascii_toupper           100405b5 f i libucrt:atox.obj
 0001:0003f5d1       ___ascii_towupper          100405d1 f i libucrt:atox.obj
 0001:0003f5ed       __atoi64                   100405ed f   libucrt:atox.obj
 0001:0003f618       __atoi64_l                 10040618 f   libucrt:atox.obj
 0001:0003f645       __atoi_l                   10040645 f   libucrt:atox.obj
 0001:0003f672       __atol_l                   10040672 f   libucrt:atox.obj
 0001:0003f69f       __atoll_l                  1004069f f   libucrt:atox.obj
 0001:0003f6cc       __chvalidchk_l             100406cc f i libucrt:atox.obj
 0001:0003f6fe       __ischartype_l             100406fe f i libucrt:atox.obj
 0001:0003f767       __wtoi                     10040767 f   libucrt:atox.obj
 0001:0003f792       __wtoi64                   10040792 f   libucrt:atox.obj
 0001:0003f7bd       __wtoi64_l                 100407bd f   libucrt:atox.obj
 0001:0003f7ea       __wtoi_l                   100407ea f   libucrt:atox.obj
 0001:0003f817       __wtol                     10040817 f   libucrt:atox.obj
 0001:0003f842       __wtol_l                   10040842 f   libucrt:atox.obj
 0001:0003f86f       __wtoll                    1004086f f   libucrt:atox.obj
 0001:0003f89a       __wtoll_l                  1004089a f   libucrt:atox.obj
 0001:0003f8c7       _atoi                      100408c7 f   libucrt:atox.obj
 0001:0003f8f2       _atol                      100408f2 f   libucrt:atox.obj
 0001:0003f91d       _atoll                     1004091d f   libucrt:atox.obj
 0001:0003f950       _strncmp                   10040950 f   libucrt:strncmp.obj
 0001:0003f9e6       _wcsncmp                   100409e6 f   libucrt:wcsncmp.obj
 0001:0003fa2e       __malloc_base              10040a2e f   libucrt:malloc_base.obj
 0001:0003fa95       __free_base                10040a95 f   libucrt:free_base.obj
 0001:0003fadd       ??$__crt_fast_decode_pointer@P6AXPB_W00II@Z@@YAP6AXPB_W00II@ZQ6AX000II@Z@Z 10040add f i libucrt:invalid_parameter.obj
 0001:0003faf8       ??$__crt_fast_encode_pointer@P6AXPB_W00II@Z@@YAP6AXPB_W00II@ZQ6AX000II@Z@Z 10040af8 f i libucrt:invalid_parameter.obj
 0001:0003fb1e       ??$initialize_from_array@$$BY00Q6AXPB_W00II@Z@?$dual_state_global@P6AXPB_W00II@Z@__crt_state_management@@QAAXAAY00Q6AXPB_W00II@Z@Z 10040b1e f i libucrt:invalid_parameter.obj
 0001:0003fb33       ?dangerous_get_state_array@?$dual_state_global@P6AXPB_W00II@Z@__crt_state_management@@QAEPAP6AXPB_W00II@ZXZ 10040b33 f i libucrt:invalid_parameter.obj
 0001:0003fb36       ?value@?$dual_state_global@P6AXPB_W00II@Z@__crt_state_management@@QAEAAP6AXPB_W00II@ZXZ 10040b36 f i libucrt:invalid_parameter.obj
 0001:0003fb39       ___acrt_call_reportfault   10040b39 f   libucrt:invalid_parameter.obj
 0001:0003fcc0       ___acrt_initialize_invalid_parameter_handler 10040cc0 f   libucrt:invalid_parameter.obj
 0001:0003fcd2       __get_invalid_parameter_handler 10040cd2 f   libucrt:invalid_parameter.obj
 0001:0003fce9       __get_thread_local_invalid_parameter_handler 10040ce9 f   libucrt:invalid_parameter.obj
 0001:0003fcfe       __invalid_parameter        10040cfe f   libucrt:invalid_parameter.obj
 0001:0003fd7b       __invalid_parameter_noinfo 10040d7b f   libucrt:invalid_parameter.obj
 0001:0003fd8f       __invalid_parameter_noinfo_noreturn 10040d8f f   libucrt:invalid_parameter.obj
 0001:0003fdb3       __invoke_watson            10040db3 f   libucrt:invalid_parameter.obj
 0001:0003fdf4       __set_invalid_parameter_handler 10040df4 f   libucrt:invalid_parameter.obj
 0001:0003fe30       __set_thread_local_invalid_parameter_handler 10040e30 f   libucrt:invalid_parameter.obj
 0001:0003fe54       ___acrt_errno_from_os_error 10040e54 f   libucrt:errno.obj
 0001:0003fea7       ___acrt_errno_map_os_error 10040ea7 f   libucrt:errno.obj
 0001:0003fed2       ___doserrno                10040ed2 f   libucrt:errno.obj
 0001:0003fee9       __errno                    10040ee9 f   libucrt:errno.obj
 0001:0003ff00       __get_doserrno             10040f00 f   libucrt:errno.obj
 0001:0003ff2e       __get_errno                10040f2e f   libucrt:errno.obj
 0001:0003ff5c       __set_doserrno             10040f5c f   libucrt:errno.obj
 0001:0003ff85       __set_errno                10040f85 f   libucrt:errno.obj
 0001:0003ffae       __calloc_base              10040fae f   libucrt:calloc_base.obj
 0001:00040032       ??$?B$$A6GHPA_WKJ@Z@__crt_fast_encoded_nullptr_t@@QBEP6GHPA_WKJ@ZXZ 10041032 f i libucrt:winapi_thunks.obj
 0001:00040102       ??$__crt_fast_decode_pointer@P6GHPA_WKJ@Z@@YAP6GHPA_WKJ@ZQ6GH0KJ@Z@Z 10041102 f i libucrt:winapi_thunks.obj
 0001:0004011d       ??$__crt_fast_decode_pointer@PAX@@YAPAXQAX@Z 1004111d f i libucrt:winapi_thunks.obj
 0001:00040138       ??$__crt_fast_encode_pointer@P6GHPA_WKJ@Z@@YAP6GHPA_WKJ@ZQ6GH0KJ@Z@Z 10041138 f i libucrt:winapi_thunks.obj
 0001:0004094d       _GetCurrentThreadEffectiveToken 1004194d f i libucrt:winapi_thunks.obj
 0001:00040951       ___acrt_AppPolicyGetProcessTerminationMethodInternal@4 10041951 f   libucrt:winapi_thunks.obj
 0001:000409a1       ___acrt_AppPolicyGetShowDeveloperDiagnosticInternal@4 100419a1 f   libucrt:winapi_thunks.obj
 0001:000409f1       ___acrt_AppPolicyGetThreadInitializationTypeInternal@4 100419f1 f   libucrt:winapi_thunks.obj
 0001:00040a41       ___acrt_AppPolicyGetWindowingModelInternal@4 10041a41 f   libucrt:winapi_thunks.obj
 0001:00040a91       ___acrt_AreFileApisANSI@0  10041a91 f   libucrt:winapi_thunks.obj
 0001:00040ab7       ___acrt_CompareStringEx@36 10041ab7 f   libucrt:winapi_thunks.obj
 0001:00040b2b       ___acrt_EnumSystemLocalesEx@16 10041b2b f   libucrt:winapi_thunks.obj
 0001:00040b94       ___acrt_FlsAlloc@4         10041b94 f   libucrt:winapi_thunks.obj
 0001:00040be2       ___acrt_FlsFree@4          10041be2 f   libucrt:winapi_thunks.obj
 0001:00040c30       ___acrt_FlsGetValue@4      10041c30 f   libucrt:winapi_thunks.obj
 0001:00040c7e       ___acrt_FlsSetValue@8      10041c7e f   libucrt:winapi_thunks.obj
 0001:00040cd0       ___acrt_GetDateFormatEx@28 10041cd0 f   libucrt:winapi_thunks.obj
 0001:00040d3c       ___acrt_GetEnabledXStateFeatures@0 10041d3c f   libucrt:winapi_thunks.obj
 0001:00040d7d       ___acrt_GetLocaleInfoEx@16 10041d7d f   libucrt:winapi_thunks.obj
 0001:00040dcb       ___acrt_GetSystemTimePreciseAsFileTime@4 10041dcb f   libucrt:winapi_thunks.obj
 0001:00040e19       ___acrt_GetTimeFormatEx@24 10041e19 f   libucrt:winapi_thunks.obj
 0001:00040e6f       ___acrt_GetUserDefaultLocaleName@8 10041e6f f   libucrt:winapi_thunks.obj
 0001:00040eba       ___acrt_GetXStateFeaturesMask@8 10041eba f   libucrt:winapi_thunks.obj
 0001:00040f0a       ___acrt_InitializeCriticalSectionEx@12 10041f0a f   libucrt:winapi_thunks.obj
 0001:00040f67       ___acrt_IsValidLocaleName@4 10041f67 f   libucrt:winapi_thunks.obj
 0001:00040fad       ___acrt_LCIDToLocaleName@16 10041fad f   libucrt:winapi_thunks.obj
 0001:00040ffb       ___acrt_LCMapStringEx@36   10041ffb f   libucrt:winapi_thunks.obj
 0001:0004106f       ___acrt_LocaleNameToLCID@8 1004206f f   libucrt:winapi_thunks.obj
 0001:000410ac       ___acrt_LocateXStateFeature@12 100420ac f   libucrt:winapi_thunks.obj
 0001:000410e6       ___acrt_MessageBoxA@16     100420e6 f   libucrt:winapi_thunks.obj
 0001:00041124       ___acrt_MessageBoxW@16     10042124 f   libucrt:winapi_thunks.obj
 0001:00041162       ___acrt_RoInitialize@4     10042162 f   libucrt:winapi_thunks.obj
 0001:000411ab       ___acrt_RoUninitialize@0   100421ab f   libucrt:winapi_thunks.obj
 0001:000411e4       ___acrt_RtlGenRandom@8     100421e4 f   libucrt:winapi_thunks.obj
 0001:00041234       ___acrt_SetThreadStackGuarantee@4 10042234 f   libucrt:winapi_thunks.obj
 0001:0004127d       ___acrt_can_show_message_box 1004227d f   libucrt:winapi_thunks.obj
 0001:000412ad       ___acrt_can_use_vista_locale_apis 100422ad f   libucrt:winapi_thunks.obj
 0001:000412ba       ___acrt_can_use_xstate_apis 100422ba f   libucrt:winapi_thunks.obj
 0001:000412c7       ___acrt_eagerly_load_locale_apis 100422c7 f   libucrt:winapi_thunks.obj
 0001:0004130b       ___acrt_get_parent_window  1004230b f   libucrt:winapi_thunks.obj
 0001:0004138d       ___acrt_initialize_winapi_thunks 1004238d f   libucrt:winapi_thunks.obj
 0001:000413c2       ___acrt_is_interactive     100423c2 f   libucrt:winapi_thunks.obj
 0001:00041488       ___acrt_uninitialize_winapi_thunks 10042488 f   libucrt:winapi_thunks.obj
 0001:000414cb       ??0__crt_stdio_stream@@QAE@QAU__crt_stdio_stream_data@@@Z 100424cb f i libucrt:closeall.obj
 0001:000414df       __fcloseall                100424df f   libucrt:closeall.obj
 0001:00041b7c       ___acrt_stdio_flush_nolock 10042b7c f   libucrt:fflush.obj
 0001:00041bfa       __fflush_nolock            10042bfa f   libucrt:fflush.obj
 0001:00041c54       __flushall                 10042c54 f   libucrt:fflush.obj
 0001:00041c5f       _fflush                    10042c5f f   libucrt:fflush.obj
 0001:00041cc9       ?has_crt_buffer@__crt_stdio_stream@@QBE_NXZ 10042cc9 f i libucrt:_freebuf.obj
 0001:00041cd8       ___acrt_stdio_free_buffer_nolock 10042cd8 f   libucrt:_freebuf.obj
 0001:00041f16       ___acrt_initialize_lowio   10042f16 f   libucrt:ioinit.obj
 0001:00041f8e       ___acrt_uninitialize_lowio 10042f8e f   libucrt:ioinit.obj
 0001:00041fc5       ??$make_c_string_character_source@DPAPAD@__crt_strtox@@YA?AV?$c_string_character_source@D@0@QBDQAPAD@Z 10042fc5 f i libucrt:strtox.obj
 0001:00041fe6       ??$make_c_string_character_source@_WPAPA_W@__crt_strtox@@YA?AV?$c_string_character_source@_W@0@QB_WQAPA_W@Z 10042fe6 f i libucrt:strtox.obj
 0001:00042007       ??$parse_integer_from_string@JDPAPAD@__crt_strtox@@YAJQBDQAPADHQAU__crt_locale_pointers@@@Z 10043007 f i libucrt:strtox.obj
 0001:0004203c       ??$parse_integer_from_string@J_WPAPA_W@__crt_strtox@@YAJQB_WQAPA_WHQAU__crt_locale_pointers@@@Z 1004303c f i libucrt:strtox.obj
 0001:00042071       ??$parse_integer_from_string@KDPAPAD@__crt_strtox@@YAKQBDQAPADHQAU__crt_locale_pointers@@@Z 10043071 f i libucrt:strtox.obj
 0001:000420a6       ??$parse_integer_from_string@K_WPAPA_W@__crt_strtox@@YAKQB_WQAPA_WHQAU__crt_locale_pointers@@@Z 100430a6 f i libucrt:strtox.obj
 0001:000420db       ??$parse_integer_from_string@_JDPAPAD@__crt_strtox@@YA_JQBDQAPADHQAU__crt_locale_pointers@@@Z 100430db f i libucrt:strtox.obj
 0001:00042110       ??$parse_integer_from_string@_J_WPAPA_W@__crt_strtox@@YA_JQB_WQAPA_WHQAU__crt_locale_pointers@@@Z 10043110 f i libucrt:strtox.obj
 0001:00042145       ??$parse_integer_from_string@_KDPAPAD@__crt_strtox@@YA_KQBDQAPADHQAU__crt_locale_pointers@@@Z 10043145 f i libucrt:strtox.obj
 0001:0004217a       ??$parse_integer_from_string@_K_WPAPA_W@__crt_strtox@@YA_KQB_WQAPA_WHQAU__crt_locale_pointers@@@Z 1004317a f i libucrt:strtox.obj
 0001:000421af       __strtoi64                 100431af f   libucrt:strtox.obj
 0001:000421e3       __strtoi64_l               100431e3 f   libucrt:strtox.obj
 0001:00042218       __strtoimax_l              10043218 f   libucrt:strtox.obj
 0001:0004224d       __strtol_l                 1004324d f   libucrt:strtox.obj
 0001:00042282       __strtoll_l                10043282 f   libucrt:strtox.obj
 0001:000422b7       __strtoui64                100432b7 f   libucrt:strtox.obj
 0001:000422eb       __strtoui64_l              100432eb f   libucrt:strtox.obj
 0001:00042320       __strtoul_l                10043320 f   libucrt:strtox.obj
 0001:00042355       __strtoull_l               10043355 f   libucrt:strtox.obj
 0001:0004238a       __strtoumax_l              1004338a f   libucrt:strtox.obj
 0001:000423bf       __wcstoi64                 100433bf f   libucrt:strtox.obj
 0001:000423f3       __wcstoi64_l               100433f3 f   libucrt:strtox.obj
 0001:00042428       __wcstoimax_l              10043428 f   libucrt:strtox.obj
 0001:0004245d       __wcstol_l                 1004345d f   libucrt:strtox.obj
 0001:00042492       __wcstoll_l                10043492 f   libucrt:strtox.obj
 0001:000424c7       __wcstoui64                100434c7 f   libucrt:strtox.obj
 0001:000424fb       __wcstoui64_l              100434fb f   libucrt:strtox.obj
 0001:00042530       __wcstoul_l                10043530 f   libucrt:strtox.obj
 0001:00042565       __wcstoull_l               10043565 f   libucrt:strtox.obj
 0001:0004259a       __wcstoumax_l              1004359a f   libucrt:strtox.obj
 0001:000425cf       _strtoimax                 100435cf f   libucrt:strtox.obj
 0001:00042603       _strtol                    10043603 f   libucrt:strtox.obj
 0001:00042637       _strtoll                   10043637 f   libucrt:strtox.obj
 0001:0004266b       _strtoul                   1004366b f   libucrt:strtox.obj
 0001:0004269f       _strtoull                  1004369f f   libucrt:strtox.obj
 0001:000426d3       _strtoumax                 100436d3 f   libucrt:strtox.obj
 0001:00042707       _wcstoimax                 10043707 f   libucrt:strtox.obj
 0001:0004273b       _wcstol                    1004373b f   libucrt:strtox.obj
 0001:0004276f       _wcstoll                   1004376f f   libucrt:strtox.obj
 0001:000427a3       _wcstoul                   100437a3 f   libucrt:strtox.obj
 0001:000427d7       _wcstoull                  100437d7 f   libucrt:strtox.obj
 0001:0004280b       _wcstoumax                 1004380b f   libucrt:strtox.obj
 0001:0004283f       __mbtowc_l                 1004383f f   libucrt:mbtowc.obj
 0001:000429d1       _mbtowc                    100439d1 f   libucrt:mbtowc.obj
 0001:000429f1       __wctomb_l                 100439f1 f   libucrt:wctomb.obj
 0001:00042a56       __wctomb_s_l               10043a56 f   libucrt:wctomb.obj
 0001:00042c07       _wctomb                    10043c07 f   libucrt:wctomb.obj
 0001:00042c45       _wctomb_s                  10043c45 f   libucrt:wctomb.obj
 0001:0004365d       ??1?$__crt_simd_cleanup_guard@$00@@QAE@XZ 1004465d f i libucrt:strnlen.obj
 0001:00043661       ??1?$__crt_simd_cleanup_guard@$0A@@@QAE@XZ 10044661 f i libucrt:strnlen.obj
 0001:00043664       ?compare_equals@?$__crt_simd_traits@$00E@@SA?AT__m256i@@T2@0@Z 10044664 f i libucrt:strnlen.obj
 0001:00043669       ?compare_equals@?$__crt_simd_traits@$00G@@SA?AT__m256i@@T2@0@Z 10044669 f i libucrt:strnlen.obj
 0001:0004366e       ?compare_equals@?$__crt_simd_traits@$0A@E@@SA?AT__m128i@@T2@0@Z 1004466e f i libucrt:strnlen.obj
 0001:00043673       ?compare_equals@?$__crt_simd_traits@$0A@G@@SA?AT__m128i@@T2@0@Z 10044673 f i libucrt:strnlen.obj
 0001:00043678       ?compute_byte_mask@?$__crt_simd_pack_traits@$00@@SAHT__m256i@@@Z 10044678 f i libucrt:strnlen.obj
 0001:0004367d       ?compute_byte_mask@?$__crt_simd_pack_traits@$0A@@@SAHT__m128i@@@Z 1004467d f i libucrt:strnlen.obj
 0001:00043682       ?get_zero_pack@?$__crt_simd_pack_traits@$00@@SA?AT__m256i@@XZ 10044682 f i libucrt:strnlen.obj
 0001:00043687       ?get_zero_pack@?$__crt_simd_pack_traits@$0A@@@SA?AT__m128i@@XZ 10044687 f i libucrt:strnlen.obj
 0001:0004368b       _strnlen                   1004468b f   libucrt:strnlen.obj
 0001:000437f5       _wcslen                    100447f5 f   libucrt:strnlen.obj
 0001:00043967       _wcsnlen                   10044967 f   libucrt:strnlen.obj
 0001:00043b83       ??$?RU__acrt_ptd@@@__crt_internal_free_policy@@QBEXQBU__acrt_ptd@@@Z 10044b83 f i libucrt:per_thread_data.obj
 0001:00043f21       ??0?$__crt_unique_heap_ptr@U__acrt_ptd@@U__crt_internal_free_policy@@@@QAE@QAU__acrt_ptd@@@Z 10044f21 f i libucrt:per_thread_data.obj
 0001:00043f35       ??0__crt_scoped_get_last_error_reset@@QAE@XZ 10044f35 f i libucrt:per_thread_data.obj
 0001:00043f4a       ??1?$__crt_unique_heap_ptr@U__acrt_ptd@@U__crt_internal_free_policy@@@@QAE@XZ 10044f4a f i libucrt:per_thread_data.obj
 0001:00043f60       ??1__crt_scoped_get_last_error_reset@@QAE@XZ 10044f60 f i libucrt:per_thread_data.obj
 0001:00043f6b       ??B?$__crt_unique_heap_ptr@U__acrt_ptd@@U__crt_internal_free_policy@@@@QBE_NXZ 10044f6b f i libucrt:per_thread_data.obj
 0001:00044106       ?dangerous_get_state_array@?$dual_state_global@PAU__crt_locale_data@@@__crt_state_management@@QAEPAPAU__crt_locale_data@@XZ 10045106 f i libucrt:per_thread_data.obj
 0001:00044237       ?detach@?$__crt_unique_heap_ptr@U__acrt_ptd@@U__crt_internal_free_policy@@@@QAEPAU__acrt_ptd@@XZ 10045237 f i libucrt:per_thread_data.obj
 0001:0004423d       ?get@?$__crt_unique_heap_ptr@U__acrt_ptd@@U__crt_internal_free_policy@@@@QBEPAU__acrt_ptd@@XZ 1004523d f i libucrt:per_thread_data.obj
 0001:00044240       ?get_current_state_index@__crt_state_management@@YAIABV__crt_scoped_get_last_error_reset@@@Z 10045240 f i libucrt:per_thread_data.obj
 0001:000443c1       ?is_valid@?$__crt_unique_heap_ptr@U__acrt_ptd@@U__crt_internal_free_policy@@@@QBE_NXZ 100453c1 f i libucrt:per_thread_data.obj
 0001:000443c8       ?release@?$__crt_unique_heap_ptr@U__acrt_ptd@@U__crt_internal_free_policy@@@@QAEXXZ 100453c8 f i libucrt:per_thread_data.obj
 0001:00044457       ?value@?$dual_state_global@PAU__crt_locale_data@@@__crt_state_management@@QAEAAPAU__crt_locale_data@@XZ 10045457 f i libucrt:per_thread_data.obj
 0001:0004445a       ___acrt_freeptd            1004545a f   libucrt:per_thread_data.obj
 0001:00044491       ___acrt_getptd             10045491 f   libucrt:per_thread_data.obj
 0001:0004457d       ___acrt_getptd_head        1004557d f   libucrt:per_thread_data.obj
 0001:0004463d       ___acrt_getptd_noexit      1004563d f   libucrt:per_thread_data.obj
 0001:0004471f       ___acrt_initialize_ptd     1004571f f   libucrt:per_thread_data.obj
 0001:00044756       ___acrt_uninitialize_ptd   10045756 f   libucrt:per_thread_data.obj
 0001:00044776       ___threadhandle            10045776 f   libucrt:per_thread_data.obj
 0001:0004477c       ___threadid                1004577c f   libucrt:per_thread_data.obj
 0001:00044782       ?value@?$dual_state_global@PAU__crt_multibyte_data@@@__crt_state_management@@QAEAAPAU__crt_multibyte_data@@XZ 10045782 f i libucrt:locale_update.obj
 0001:00044785       ___acrt_update_locale_info 10045785 f   libucrt:locale_update.obj
 0001:000447bd       ___acrt_update_multibyte_info 100457bd f   libucrt:locale_update.obj
 0001:000447f5       ?__acrt_fp_classify@@YA?AW4__acrt_fp_class@@ABN@Z 100457f5 f i libucrt:cvt.obj
 0001:0004486f       ?__acrt_fp_is_negative@@YA_NABN@Z 1004586f f i libucrt:cvt.obj
 0001:0004526f       ?strrchr@@YAPADQADH@Z      1004626f f i libucrt:cvt.obj
 0001:0004527c       ___acrt_fp_format          1004627c f   libucrt:cvt.obj
 0001:00045441       __fputwc_nolock            10046441 f   libucrt:fputwc.obj
 0001:000455b4       __fputwchar                100465b4 f   libucrt:fputwc.obj
 0001:000455d4       __putwc_nolock             100465d4 f   libucrt:fputwc.obj
 0001:000455e1       _fputwc                    100465e1 f   libucrt:fputwc.obj
 0001:0004567e       _putwc                     1004667e f   libucrt:fputwc.obj
 0001:0004568b       _putwchar                  1004668b f   libucrt:fputwc.obj
 0001:00045698       ?lowio_handle@__crt_stdio_stream@@QBEHXZ 10046698 f i libucrt:fileno.obj
 0001:0004569f       __fileno                   1004669f f   libucrt:fileno.obj
 0001:000456cf       __fputc_nolock             100466cf f   libucrt:fputc.obj
 0001:00045702       __fputchar                 10046702 f   libucrt:fputc.obj
 0001:00045722       __putc_nolock              10046722 f   libucrt:fputc.obj
 0001:0004572f       _fputc                     1004672f f   libucrt:fputc.obj
 0001:0004587b       _putc                      1004687b f   libucrt:fputc.obj
 0001:00045888       _putchar                   10046888 f   libucrt:fputc.obj
 0001:00045895       __get_printf_count_output  10046895 f   libucrt:printf_count_output.obj
 0001:000458af       __set_printf_count_output  100468af f   libucrt:printf_count_output.obj
 0001:000458e3       ?has_temporary_buffer@__crt_stdio_stream@@QBE_NXZ 100468e3 f i libucrt:_sftbuf.obj
 0001:000458f2       ___acrt_stdio_begin_temporary_buffering_nolock 100468f2 f   libucrt:_sftbuf.obj
 0001:000459d1       ___acrt_stdio_end_temporary_buffering_nolock 100469d1 f   libucrt:_sftbuf.obj
 0001:00045a1c       ??$?RU__crt_locale_data@@@__crt_internal_free_policy@@QBEXQBU__crt_locale_data@@@Z 10046a1c f i libucrt:wsetlocale.obj
 0001:00045a32       ??$?RU__crt_locale_pointers@@@__crt_internal_free_policy@@QBEXQBU__crt_locale_pointers@@@Z 10046a32 f i libucrt:wsetlocale.obj
 0001:00045a48       ??$?RU__crt_multibyte_data@@@__crt_internal_free_policy@@QBEXQBU__crt_multibyte_data@@@Z 10046a48 f i libucrt:wsetlocale.obj
 0001:00045ed2       ??0?$__crt_unique_heap_ptr@U__crt_locale_data@@U__crt_internal_free_policy@@@@QAE@QAU__crt_locale_data@@@Z 10046ed2 f i libucrt:wsetlocale.obj
 0001:00045ee6       ??0?$__crt_unique_heap_ptr@U__crt_locale_pointers@@U__crt_internal_free_policy@@@@QAE@QAU__crt_locale_pointers@@@Z 10046ee6 f i libucrt:wsetlocale.obj
 0001:00045efa       ??0?$__crt_unique_heap_ptr@U__crt_multibyte_data@@U__crt_internal_free_policy@@@@QAE@QAU__crt_multibyte_data@@@Z 10046efa f i libucrt:wsetlocale.obj
 0001:00045f0e       ??0_expandlocale_locale_name_cache@@QAE@QA_WIQAU__crt_qualified_locale_data@@@Z 10046f0e f i libucrt:wsetlocale.obj
 0001:00045f6a       ??1?$__crt_unique_heap_ptr@U__crt_locale_data@@U__crt_internal_free_policy@@@@QAE@XZ 10046f6a f i libucrt:wsetlocale.obj
 0001:00045f80       ??1?$__crt_unique_heap_ptr@U__crt_locale_pointers@@U__crt_internal_free_policy@@@@QAE@XZ 10046f80 f i libucrt:wsetlocale.obj
 0001:00045f96       ??1?$__crt_unique_heap_ptr@U__crt_multibyte_data@@U__crt_internal_free_policy@@@@QAE@XZ 10046f96 f i libucrt:wsetlocale.obj
 0001:00045fac       ??1_expandlocale_locale_name_cache@@QAE@XZ 10046fac f i libucrt:wsetlocale.obj
 0001:00045fe8       ??B?$__crt_unique_heap_ptr@U__crt_locale_data@@U__crt_internal_free_policy@@@@QBE_NXZ 10046fe8 f i libucrt:wsetlocale.obj
 0001:00045fef       ??B?$__crt_unique_heap_ptr@U__crt_locale_pointers@@U__crt_internal_free_policy@@@@QBE_NXZ 10046fef f i libucrt:wsetlocale.obj
 0001:00045ff6       ??B?$__crt_unique_heap_ptr@U__crt_multibyte_data@@U__crt_internal_free_policy@@@@QBE_NXZ 10046ff6 f i libucrt:wsetlocale.obj
 0001:00046297       ?commit_locale_name@_expandlocale_locale_name_cache@@QAEXQB_WI@Z 10047297 f i libucrt:wsetlocale.obj
 0001:000462ec       ?commit_locale_name_cache_already_updated@_expandlocale_locale_name_cache@@QAEXQB_WI@Z 100472ec f i libucrt:wsetlocale.obj
 0001:0004632e       ?detach@?$__crt_unique_heap_ptr@U__crt_locale_data@@U__crt_internal_free_policy@@@@QAEPAU__crt_locale_data@@XZ 1004732e f i libucrt:wsetlocale.obj
 0001:00046334       ?detach@?$__crt_unique_heap_ptr@U__crt_locale_pointers@@U__crt_internal_free_policy@@@@QAEPAU__crt_locale_pointers@@XZ 10047334 f i libucrt:wsetlocale.obj
 0001:0004633a       ?detach@?$__crt_unique_heap_ptr@U__crt_multibyte_data@@U__crt_internal_free_policy@@@@QAEPAU__crt_multibyte_data@@XZ 1004733a f i libucrt:wsetlocale.obj
 0001:00046340       ?get@?$__crt_unique_heap_ptr@U__crt_locale_data@@U__crt_internal_free_policy@@@@QBEPAU__crt_locale_data@@XZ 10047340 f i libucrt:wsetlocale.obj
 0001:00046343       ?get@?$__crt_unique_heap_ptr@U__crt_locale_pointers@@U__crt_internal_free_policy@@@@QBEPAU__crt_locale_pointers@@XZ 10047343 f i libucrt:wsetlocale.obj
 0001:00046346       ?get@?$__crt_unique_heap_ptr@U__crt_multibyte_data@@U__crt_internal_free_policy@@@@QBEPAU__crt_multibyte_data@@XZ 10047346 f i libucrt:wsetlocale.obj
 0001:00046349       ?is_valid@?$__crt_unique_heap_ptr@U__crt_locale_data@@U__crt_internal_free_policy@@@@QBE_NXZ 10047349 f i libucrt:wsetlocale.obj
 0001:00046350       ?is_valid@?$__crt_unique_heap_ptr@U__crt_locale_pointers@@U__crt_internal_free_policy@@@@QBE_NXZ 10047350 f i libucrt:wsetlocale.obj
 0001:00046357       ?is_valid@?$__crt_unique_heap_ptr@U__crt_multibyte_data@@U__crt_internal_free_policy@@@@QBE_NXZ 10047357 f i libucrt:wsetlocale.obj
 0001:0004635e       ?release@?$__crt_unique_heap_ptr@U__crt_locale_data@@U__crt_internal_free_policy@@@@QAEXXZ 1004735e f i libucrt:wsetlocale.obj
 0001:00046374       ?release@?$__crt_unique_heap_ptr@U__crt_locale_pointers@@U__crt_internal_free_policy@@@@QAEXXZ 10047374 f i libucrt:wsetlocale.obj
 0001:0004638a       ?release@?$__crt_unique_heap_ptr@U__crt_multibyte_data@@U__crt_internal_free_policy@@@@QAEXXZ 1004738a f i libucrt:wsetlocale.obj
 0001:000463a0       ___acrt_copy_locale_name   100473a0 f   libucrt:wsetlocale.obj
 0001:00046418       ___acrt_set_locale_changed 10047418 f   libucrt:wsetlocale.obj
 0001:00046425       ___acrt_uninitialize_locale 10047425 f   libucrt:wsetlocale.obj
 0001:00046455       ___ascii_tolower           10047455 f i libucrt:wsetlocale.obj
 0001:00046471       ___ascii_towlower          10047471 f i libucrt:wsetlocale.obj
 0001:0004648d       ___lc_lctowcs              1004748d f   libucrt:wsetlocale.obj
 0001:00046519       ___lc_wcstolc              10047519 f   libucrt:wsetlocale.obj
 0001:000466bd       __configthreadlocale       100476bd f   libucrt:wsetlocale.obj
 0001:00046771       __create_locale            10047771 f   libucrt:wsetlocale.obj
 0001:00046ca5       __free_locale              10047ca5 f   libucrt:wsetlocale.obj
 0001:00046d97       __get_current_locale       10047d97 f   libucrt:wsetlocale.obj
 0001:00046e58       __wcreate_locale           10047e58 f   libucrt:wsetlocale.obj
 0001:00046fa0       __wcscats                  10047fa0 f   libucrt:wsetlocale.obj
 0001:00046ff1       __wsetlocale               10047ff1 f   libucrt:wsetlocale.obj
 0001:000480d3       ___p___mb_cur_max          100490d3 f   libucrt:nlsdata.obj
 0001:00048101       __realloc_base             10049101 f   libucrt:realloc_base.obj
 0001:00048184       ___acrt_initialize_locks   10049184 f   libucrt:locks.obj
 0001:000481d5       ___acrt_lock               100491d5 f   libucrt:locks.obj
 0001:000481f1       ___acrt_uninitialize_locks 100491f1 f   libucrt:locks.obj
 0001:0004822e       ___acrt_unlock             1004922e f   libucrt:locks.obj
 0001:0004824a       __lock_locales             1004924a f   libucrt:locks.obj
 0001:0004825b       __unlock_locales           1004925b f   libucrt:locks.obj
 0001:00048470       ___acrt_get_begin_thread_init_policy 10049470 f   libucrt:win_policies.obj
 0001:000484c5       ___acrt_get_developer_information_policy 100494c5 f   libucrt:win_policies.obj
 0001:0004851a       ___acrt_get_process_end_policy 1004951a f   libucrt:win_policies.obj
 0001:00048557       ___acrt_get_windowing_model_policy 10049557 f   libucrt:win_policies.obj
 0001:000487c9       __close                    100497c9 f   libucrt:close.obj
 0001:00048879       __close_nolock             10049879 f   libucrt:close.obj
 0001:0004893c       ??$?RU__crt_stdio_stream_data@@@__crt_internal_free_policy@@QBEXQBU__crt_stdio_stream_data@@@Z 1004993c f i libucrt:stream.obj
 0001:00048952       ??0?$__crt_unique_heap_ptr@U__crt_stdio_stream_data@@U__crt_internal_free_policy@@@@QAE@QAU__crt_stdio_stream_data@@@Z 10049952 f i libucrt:stream.obj
 0001:00048966       ??0__crt_stdio_stream@@QAE@XZ 10049966 f i libucrt:stream.obj
 0001:0004896c       ??1?$__crt_unique_heap_ptr@U__crt_stdio_stream_data@@U__crt_internal_free_policy@@@@QAE@XZ 1004996c f i libucrt:stream.obj
 0001:00048982       ?__acrt_stdio_allocate_stream@@YA?AV__crt_stdio_stream@@XZ 10049982 f   libucrt:stream.obj
 0001:00048a05       ?__acrt_stdio_free_stream@@YAXV__crt_stdio_stream@@@Z 10049a05 f   libucrt:stream.obj
 0001:00048a4e       ?deallocate@__crt_stdio_stream@@QAEXXZ 10049a4e f i libucrt:stream.obj
 0001:00048a5a       ?detach@?$__crt_unique_heap_ptr@U__crt_stdio_stream_data@@U__crt_internal_free_policy@@@@QAEPAU__crt_stdio_stream_data@@XZ 10049a5a f i libucrt:stream.obj
 0001:00048b52       ?lock@__crt_stdio_stream@@QBEXXZ 10049b52 f i libucrt:stream.obj
 0001:00048b5d       ?release@?$__crt_unique_heap_ptr@U__crt_stdio_stream_data@@U__crt_internal_free_policy@@@@QAEXXZ 10049b5d f i libucrt:stream.obj
 0001:00048b73       ?try_allocate@__crt_stdio_stream@@QAE_NXZ 10049b73 f i libucrt:stream.obj
 0001:00048b9b       ??$__acrt_stdio_parse_mode@D@@YA?AU__acrt_stdio_stream_mode@@QBD@Z 10049b9b f i libucrt:openfile.obj
 0001:00048e4f       ??$__acrt_stdio_parse_mode@_W@@YA?AU__acrt_stdio_stream_mode@@QB_W@Z 10049e4f f i libucrt:openfile.obj
 0001:0004929a       ??$tcsncmp@AAPBDAAY02$$CBDI@?$__crt_char_traits@D@@SAHAAPBDAAY02$$CBD$$QAI@Z 1004a29a f i libucrt:openfile.obj
 0001:000492bd       ??$tcsncmp@AAPB_WAAY02$$CB_WI@?$__crt_char_traits@_W@@SAHAAPB_WAAY02$$CB_W$$QAI@Z 1004a2bd f i libucrt:openfile.obj
 0001:000492e0       ??$tcsnicmp@AAPBDAAY04$$CBDI@?$__crt_char_traits@D@@SAHAAPBDAAY04$$CBD$$QAI@Z 1004a2e0 f i libucrt:openfile.obj
 0001:00049303       ??$tcsnicmp@AAPBDAAY06$$CBDI@?$__crt_char_traits@D@@SAHAAPBDAAY06$$CBD$$QAI@Z 1004a303 f i libucrt:openfile.obj
 0001:00049326       ??$tcsnicmp@AAPBDAAY07$$CBDI@?$__crt_char_traits@D@@SAHAAPBDAAY07$$CBD$$QAI@Z 1004a326 f i libucrt:openfile.obj
 0001:00049349       ??$tcsnicmp@AAPB_WAAY04$$CB_WI@?$__crt_char_traits@_W@@SAHAAPB_WAAY04$$CB_W$$QAI@Z 1004a349 f i libucrt:openfile.obj
 0001:0004936c       ??$tcsnicmp@AAPB_WAAY06$$CB_WI@?$__crt_char_traits@_W@@SAHAAPB_WAAY06$$CB_W$$QAI@Z 1004a36c f i libucrt:openfile.obj
 0001:0004938f       ??$tcsnicmp@AAPB_WAAY07$$CB_WI@?$__crt_char_traits@_W@@SAHAAPB_WAAY07$$CB_W$$QAI@Z 1004a38f f i libucrt:openfile.obj
 0001:000493b2       ??$tsopen_s@PAHABQBDABHABHH@?$__crt_char_traits@D@@SAH$$QAPAHABQBDABH2$$QAH@Z 1004a3b2 f i libucrt:openfile.obj
 0001:000493e4       ??$tsopen_s@PAHABQB_WABHABHH@?$__crt_char_traits@_W@@SAH$$QAPAHABQB_WABH2$$QAH@Z 1004a3e4 f i libucrt:openfile.obj
 0001:00049416       ?__acrt_stdio_parse_mode_D@@YA_NAAU__acrt_stdio_stream_mode@@@Z 1004a416 f i libucrt:openfile.obj
 0001:00049437       ?__acrt_stdio_parse_mode_N@@YA_NAAU__acrt_stdio_stream_mode@@@Z 1004a437 f i libucrt:openfile.obj
 0001:0004944d       ?__acrt_stdio_parse_mode_R@@YA_NAAU__acrt_stdio_stream_mode@@AA_N@Z 1004a44d f i libucrt:openfile.obj
 0001:00049472       ?__acrt_stdio_parse_mode_S@@YA_NAAU__acrt_stdio_stream_mode@@AA_N@Z 1004a472 f i libucrt:openfile.obj
 0001:00049497       ?__acrt_stdio_parse_mode_T@@YA_NAAU__acrt_stdio_stream_mode@@@Z 1004a497 f i libucrt:openfile.obj
 0001:000494bd       ?__acrt_stdio_parse_mode_b@@YA_NAAU__acrt_stdio_stream_mode@@@Z 1004a4bd f i libucrt:openfile.obj
 0001:000494e5       ?__acrt_stdio_parse_mode_c@@YA_NAAU__acrt_stdio_stream_mode@@AA_N@Z 1004a4e5 f i libucrt:openfile.obj
 0001:0004950f       ?__acrt_stdio_parse_mode_n@@YA_NAAU__acrt_stdio_stream_mode@@AA_N@Z 1004a50f f i libucrt:openfile.obj
 0001:00049539       ?__acrt_stdio_parse_mode_plus@@YA_NAAU__acrt_stdio_stream_mode@@AA_N@Z 1004a539 f i libucrt:openfile.obj
 0001:0004957c       ?__acrt_stdio_parse_mode_t@@YA_NAAU__acrt_stdio_stream_mode@@@Z 1004a57c f i libucrt:openfile.obj
 0001:000495a4       ?__acrt_stdio_parse_mode_x@@YA_NAAU__acrt_stdio_stream_mode@@@Z 1004a5a4 f i libucrt:openfile.obj
 0001:000495cc       __openfile                 1004a5cc f   libucrt:openfile.obj
 0001:000495d9       __wopenfile                1004a5d9 f   libucrt:openfile.obj
 0001:00049ca5       __read                     1004aca5 f   libucrt:read.obj
 0001:00049dfe       __read_nolock              1004adfe f   libucrt:read.obj
 0001:0004a29a       __utf8_no_of_trailbytes    1004b29a f i libucrt:read.obj
 0001:0004a7bc       ___acrt_stdio_refill_and_read_narrow_nolock 1004b7bc f   libucrt:_filbuf.obj
 0001:0004a7c9       ___acrt_stdio_refill_and_read_wide_nolock 1004b7c9 f   libucrt:_filbuf.obj
 0001:0004b18d       __write                    1004c18d f   libucrt:write.obj
 0001:0004b2bb       __write_nolock             1004c2bb f   libucrt:write.obj
 0001:0004ba74       ___acrt_stdio_flush_and_write_narrow_nolock 1004ca74 f   libucrt:_flsbuf.obj
 0001:0004ba81       ___acrt_stdio_flush_and_write_wide_nolock 1004ca81 f   libucrt:_flsbuf.obj
 0001:0004bb10       ___acrt_MultiByteToWideChar 1004cb10 f   libucrt:multibytetowidechar.obj
 0001:0004bbab       __wremove                  1004cbab f   libucrt:wunlink.obj
 0001:0004bbdd       __wunlink                  1004cbdd f   libucrt:wunlink.obj
 0001:0004c05c       __lseek                    1004d05c f   libucrt:lseek.obj
 0001:0004c069       __lseek_nolock             1004d069 f   libucrt:lseek.obj
 0001:0004c076       __lseeki64                 1004d076 f   libucrt:lseek.obj
 0001:0004c097       __lseeki64_nolock          1004d097 f   libucrt:lseek.obj
 0001:0004c0b8       __chgsign                  1004d0b8 f   libucrt:ieeemisc.obj
 0001:0004c0ea       __chgsignf                 1004d0ea f   libucrt:ieeemisc.obj
 0001:0004c113       __copysign                 1004d113 f   libucrt:ieeemisc.obj
 0001:0004c13e       __copysignf                1004d13e f   libucrt:ieeemisc.obj
 0001:0004c161       __finite                   1004d161 f   libucrt:ieeemisc.obj
 0001:0004c181       __fpclass                  1004d181 f   libucrt:ieeemisc.obj
 0001:0004c24e       __isnan                    1004d24e f   libucrt:ieeemisc.obj
 0001:0004c291       __logb                     1004d291 f   libucrt:ieeemisc.obj
 0001:0004c393       __nextafter                1004d393 f   libucrt:ieeemisc.obj
 0001:0004c3b9       __scalb                    1004d3b9 f   libucrt:ieeemisc.obj
 0001:0004c3d9       __add_exp                  1004d3d9 f   libucrt:util.obj
 0001:0004c413       __decomp                   1004d413 f   libucrt:util.obj
 0001:0004c519       __get_exp                  1004d519 f   libucrt:util.obj
 0001:0004c537       __set_bexp                 1004d537 f   libucrt:util.obj
 0001:0004c567       __set_exp                  1004d567 f   libucrt:util.obj
 0001:0004c59f       __sptype                   1004d59f f   libucrt:util.obj
 0001:0004c614       ___clrfp_sse2              1004d614 f   libucrt:fpctrl.obj
 0001:0004c63d       ___ctrlfp_sse2             1004d63d f   libucrt:fpctrl.obj
 0001:0004c686       ___fclrf_sse2              1004d686 f   libucrt:fpctrl.obj
 0001:0004c6aa       ___get_fpsr_sse2           1004d6aa f   libucrt:fpctrl.obj
 0001:0004c6cd       ___set_fpsr_sse2           1004d6cd f   libucrt:fpctrl.obj
 0001:0004c76d       ___set_statfp_sse2         1004d76d f   libucrt:fpctrl.obj
 0001:0004c78e       ___statfp_sse2             1004d78e f   libucrt:fpctrl.obj
 0001:0004c7a8       __clrfp                    1004d7a8 f   libucrt:fpctrl.obj
 0001:0004c7bd       __ctrlfp                   1004d7bd f   libucrt:fpctrl.obj
 0001:0004c7f1       __set_statfp               1004d7f1 f   libucrt:fpctrl.obj
 0001:0004c860       __statfp                   1004d860 f   libucrt:fpctrl.obj
 0001:0004c880       __cintrindisp2             1004d880 f   libucrt:87cdisp.obj
 0001:0004c8d0       __cintrindisp1             1004d8d0 f   libucrt:87cdisp.obj
 0001:0004c919       __ctrandisp2               1004d919 f   libucrt:87cdisp.obj
 0001:0004caa8       __ctrandisp1               1004daa8 f   libucrt:87cdisp.obj
 0001:0004cadb       __fload                    1004dadb f   libucrt:87cdisp.obj
 0001:0004cbc0       __trandisp1                1004dbc0 f   libucrt:87disp.obj
 0001:0004cc35       __trandisp2                1004dc35 f   libucrt:87disp.obj
 0001:0004cccf       __rttospopde               1004dccf     libucrt:87disp.obj
 0001:0004ccd4       __rttospop                 1004dcd4     libucrt:87disp.obj
 0001:0004cce0       __rtnospop                 1004dce0 f   libucrt:87disp.obj
 0001:0004ccf0       __rttosnpop                1004dcf0 f   libucrt:87disp.obj
 0001:0004ccf1       __rtnospopde               1004dcf1     libucrt:87disp.obj
 0001:0004ccf8       __rtzeropop                1004dcf8     libucrt:87disp.obj
 0001:0004ccfa       __rtzeronpop               1004dcfa     libucrt:87disp.obj
 0001:0004cd00       __rtzerospop               1004dd00 f   libucrt:87disp.obj
 0001:0004cd0d       __rtonepop                 1004dd0d     libucrt:87disp.obj
 0001:0004cd10       __rtonenpop                1004dd10 f   libucrt:87disp.obj
 0001:0004cd20       __tosnan1                  1004dd20 f   libucrt:87disp.obj
 0001:0004cd50       __nosnan2                  1004dd50 f   libucrt:87disp.obj
 0001:0004cd60       __tosnan2                  1004dd60 f   libucrt:87disp.obj
 0001:0004cd90       __nan2                     1004dd90 f   libucrt:87disp.obj
 0001:0004cdd0       __rtindfpop                1004ddd0 f   libucrt:87disp.obj
 0001:0004cdd2       __rtindfnpop               1004ddd2     libucrt:87disp.obj
 0001:0004cde3       __rttosnpopde              1004dde3     libucrt:87disp.obj
 0001:0004cdf0       __rtatan2inf               1004ddf0 f   libucrt:87disp.obj
 0001:0004ce0d       __rtchsifneg               1004de0d     libucrt:87disp.obj
 0001:0004ceb0       _cos                       1004deb0 f   libucrt:cos.obj
 0001:0004cf10       _sin                       1004df10 f   libucrt:sin.obj
 0001:0004cf63       ??$__crt_fast_decode_pointer@P6AHPAU_exception@@@Z@@YAP6AHPAU_exception@@@ZQ6AH0@Z@Z 1004df63 f i libucrt:matherr.obj
 0001:0004cf7e       ??$__crt_fast_encode_pointer@P6AHPAU_exception@@@Z@@YAP6AHPAU_exception@@@ZQ6AH0@Z@Z 1004df7e f i libucrt:matherr.obj
 0001:0004cfa4       ?initialize@?$dual_state_global@P6AHPAU_exception@@@Z@__crt_state_management@@QAEXQ6AHPAU_exception@@@Z@Z 1004dfa4 f i libucrt:matherr.obj
 0001:0004cfd3       ?value@?$dual_state_global@P6AHPAU_exception@@@Z@__crt_state_management@@QAEAAP6AHPAU_exception@@@ZXZ 1004dfd3 f i libucrt:matherr.obj
 0001:0004cfd6       ___acrt_has_user_matherr   1004dfd6 f   libucrt:matherr.obj
 0001:0004cff4       ___acrt_initialize_user_matherr 1004dff4 f   libucrt:matherr.obj
 0001:0004d006       ___acrt_invoke_user_matherr 1004e006 f   libucrt:matherr.obj
 0001:0004d044       ___setusermatherr          1004e044 f   libucrt:matherr.obj
 0001:0004d27a       ??$__acrt_wcs_to_mbs_cp@U__crt_win32_buffer_internal_dynamic_resizing@@@@YAHQB_WAAV?$__crt_win32_buffer@DU__crt_win32_buffer_internal_dynamic_resizing@@@@I@Z 1004e27a f i libucrt:argv_wildcards.obj
 0001:0004de32       ??$tcslen@ABQBD@?$__crt_char_traits@D@@SAIABQBD@Z 1004ee32 f i libucrt:argv_wildcards.obj
 0001:0004de50       ??$tcslen@ABQB_W@?$__crt_char_traits@_W@@SAIABQB_W@Z 1004ee50 f i libucrt:argv_wildcards.obj
 0001:0004de75       ??$tcsncpy_s@AAPADIAAPADABI@?$__crt_char_traits@D@@SAHAAPAD$$QAI0ABI@Z 1004ee75 f i libucrt:argv_wildcards.obj
 0001:0004dea0       ??$tcsncpy_s@AAPA_WIAAPA_WABI@?$__crt_char_traits@_W@@SAHAAPA_W$$QAI0ABI@Z 1004eea0 f i libucrt:argv_wildcards.obj
 0001:0004decb       ??$tcsncpy_s@PADABIABQBDABI@?$__crt_char_traits@D@@SAH$$QAPADABIABQBD1@Z 1004eecb f i libucrt:argv_wildcards.obj
 0001:0004def6       ??$tcsncpy_s@PADIABQBDABI@?$__crt_char_traits@D@@SAH$$QAPAD$$QAIABQBDABI@Z 1004eef6 f i libucrt:argv_wildcards.obj
 0001:0004df21       ??$tcsncpy_s@PA_WABIABQB_WABI@?$__crt_char_traits@_W@@SAH$$QAPA_WABIABQB_W1@Z 1004ef21 f i libucrt:argv_wildcards.obj
 0001:0004df4c       ??$tcsncpy_s@PA_WIABQB_WABI@?$__crt_char_traits@_W@@SAH$$QAPA_W$$QAIABQB_WABI@Z 1004ef4c f i libucrt:argv_wildcards.obj
 0001:0004df77       ??$tcspbrk@AAPADAAY02$$CBD@?$__crt_char_traits@D@@SAPADAAPADAAY02$$CBD@Z 1004ef77 f i libucrt:argv_wildcards.obj
 0001:0004df92       ??$tcspbrk@AAPA_WAAY02$$CB_W@?$__crt_char_traits@_W@@SAPA_WAAPA_WAAY02$$CB_W@Z 1004ef92 f i libucrt:argv_wildcards.obj
 0001:0004dfad       ??0?$__crt_unique_handle_t@U__crt_findfile_traits@@@@QAE@QAX@Z 1004efad f i libucrt:argv_wildcards.obj
 0001:0004dfc1       ??0?$__crt_win32_buffer@DU__crt_win32_buffer_internal_dynamic_resizing@@@@QAE@XZ 1004efc1 f i libucrt:argv_wildcards.obj
 0001:0004dffc       ??1?$__crt_unique_handle_t@U__crt_findfile_traits@@@@QAE@XZ 1004effc f i libucrt:argv_wildcards.obj
 0001:0004e018       ??1?$__crt_win32_buffer@DU__crt_win32_buffer_internal_dynamic_resizing@@@@QAE@XZ 1004f018 f i libucrt:argv_wildcards.obj
 0001:0004e177       ?_deallocate@?$__crt_win32_buffer@DU__crt_win32_buffer_internal_dynamic_resizing@@@@AAEXXZ 1004f177 f i libucrt:argv_wildcards.obj
 0001:0004e197       ?allocate@?$__crt_win32_buffer@DU__crt_win32_buffer_internal_dynamic_resizing@@@@QAEHI@Z 1004f197 f i libucrt:argv_wildcards.obj
 0001:0004e26c       ?capacity@?$__crt_win32_buffer@DU__crt_win32_buffer_internal_dynamic_resizing@@@@QBEIXZ 1004f26c f i libucrt:argv_wildcards.obj
 0001:0004e270       ?close@?$__crt_unique_handle_t@U__crt_findfile_traits@@@@QAEXXZ 1004f270 f i libucrt:argv_wildcards.obj
 0001:0004e28c       ?close@__crt_findfile_traits@@SA_NPAX@Z 1004f28c f i libucrt:argv_wildcards.obj
 0001:0004e2a6       ?data@?$__crt_win32_buffer@DU__crt_win32_buffer_internal_dynamic_resizing@@@@QAEPADXZ 1004f2a6 f i libucrt:argv_wildcards.obj
 0001:0004e2aa       ?debug_info@?$__crt_win32_buffer@DU__crt_win32_buffer_internal_dynamic_resizing@@@@QBEABV__crt_win32_buffer_empty_debug_info@@XZ 1004f2aa f i libucrt:argv_wildcards.obj
 0001:0004e405       ?get@?$__crt_unique_handle_t@U__crt_findfile_traits@@@@QBEPAXXZ 1004f405 f i libucrt:argv_wildcards.obj
 0001:0004e447       ?get_invalid_value@__crt_findfile_traits@@SAPAXXZ 1004f447 f i libucrt:argv_wildcards.obj
 0001:0004e4a7       ?set_to_nullptr@?$__crt_win32_buffer@DU__crt_win32_buffer_internal_dynamic_resizing@@@@QAEXXZ 1004f4a7 f i libucrt:argv_wildcards.obj
 0001:0004e4c3       ?size@?$__crt_win32_buffer@DU__crt_win32_buffer_internal_dynamic_resizing@@@@QAEXI@Z 1004f4c3 f i libucrt:argv_wildcards.obj
 0001:0004e4eb       ?strpbrk@@YAPADQADQBD@Z    1004f4eb f i libucrt:argv_wildcards.obj
 0001:0004e4f8       ?wcspbrk@@YAPA_WPA_WPB_W@Z 1004f4f8 f i libucrt:argv_wildcards.obj
 0001:0004e505       ___acrt_expand_narrow_argv_wildcards 1004f505 f   libucrt:argv_wildcards.obj
 0001:0004e512       ___acrt_expand_wide_argv_wildcards 1004f512 f   libucrt:argv_wildcards.obj
 0001:0004e617       ??$__acrt_wcs_to_mbs_cp@U__crt_win32_buffer_no_resizing@@@@YAHQB_WAAV?$__crt_win32_buffer@DU__crt_win32_buffer_no_resizing@@@@I@Z 1004f617 f i libucrt:getmodulefilenamea.obj
 0001:0004e63b       ??0?$__crt_win32_buffer@DU__crt_win32_buffer_no_resizing@@@@QAE@QADI@Z 1004f63b f i libucrt:getmodulefilenamea.obj
 0001:0004e668       ??1?$__crt_win32_buffer@DU__crt_win32_buffer_no_resizing@@@@QAE@XZ 1004f668 f i libucrt:getmodulefilenamea.obj
 0001:0004e6a2       ?_deallocate@?$__crt_win32_buffer@DU__crt_win32_buffer_no_resizing@@@@AAEXXZ 1004f6a2 f i libucrt:getmodulefilenamea.obj
 0001:0004e6af       ?allocate@?$__crt_win32_buffer@DU__crt_win32_buffer_no_resizing@@@@QAEHI@Z 1004f6af f i libucrt:getmodulefilenamea.obj
 0001:0004e6df       ?allocate@__crt_win32_buffer_no_resizing@@SAHQAPAXIABV__crt_win32_buffer_empty_debug_info@@@Z 1004f6df f i libucrt:getmodulefilenamea.obj
 0001:0004e6ef       ?capacity@?$__crt_win32_buffer@DU__crt_win32_buffer_no_resizing@@@@QBEIXZ 1004f6ef f i libucrt:getmodulefilenamea.obj
 0001:0004e6f3       ?data@?$__crt_win32_buffer@DU__crt_win32_buffer_no_resizing@@@@QAEPADXZ 1004f6f3 f i libucrt:getmodulefilenamea.obj
 0001:0004e6f7       ?deallocate@__crt_win32_buffer_no_resizing@@SAXQAXABV__crt_win32_buffer_empty_debug_info@@@Z 1004f6f7 f i libucrt:getmodulefilenamea.obj
 0001:0004e6fa       ?debug_info@?$__crt_win32_buffer@DU__crt_win32_buffer_no_resizing@@@@QBEABV__crt_win32_buffer_empty_debug_info@@XZ 1004f6fa f i libucrt:getmodulefilenamea.obj
 0001:0004e6fd       ?set_to_nullptr@?$__crt_win32_buffer@DU__crt_win32_buffer_no_resizing@@@@QAEXXZ 1004f6fd f i libucrt:getmodulefilenamea.obj
 0001:0004e716       ?size@?$__crt_win32_buffer@DU__crt_win32_buffer_no_resizing@@@@QAEXI@Z 1004f716 f i libucrt:getmodulefilenamea.obj
 0001:0004e728       ?size@?$__crt_win32_buffer@DU__crt_win32_buffer_no_resizing@@@@QBEIXZ 1004f728 f i libucrt:getmodulefilenamea.obj
 0001:0004e72c       ___acrt_GetModuleFileNameA 1004f72c f   libucrt:getmodulefilenamea.obj
 0001:0004e884       ??$initialize_from_array@$$BY10BAA@E@?$dual_state_global@PAE@__crt_state_management@@QAAXAAY10BAA@E@Z 1004f884 f i libucrt:mbctype.obj
 0001:0004e896       ??$initialize_from_array@$$BY10BAB@E@?$dual_state_global@PAE@__crt_state_management@@QAAXAAY10BAB@E@Z 1004f896 f i libucrt:mbctype.obj
 0001:0004e9f5       ?dangerous_get_state_array@?$dual_state_global@PAE@__crt_state_management@@QAEPAPAEXZ 1004f9f5 f i libucrt:mbctype.obj
 0001:0004e9f8       ?dangerous_get_state_array@?$dual_state_global@PAU__crt_multibyte_data@@@__crt_state_management@@QAEPAPAU__crt_multibyte_data@@XZ 1004f9f8 f i libucrt:mbctype.obj
 0001:0004ea88       ?initialize@?$dual_state_global@PAU__crt_multibyte_data@@@__crt_state_management@@QAEXQAU__crt_multibyte_data@@@Z 1004fa88 f i libucrt:mbctype.obj
 0001:0004ef3d       ?value@?$dual_state_global@PAE@__crt_state_management@@QAEAAPAEXZ 1004ff3d f i libucrt:mbctype.obj
 0001:0004ef40       ___acrt_initialize_multibyte 1004ff40 f   libucrt:mbctype.obj
 0001:0004ef9a       ___acrt_update_thread_multibyte_data 1004ff9a f   libucrt:mbctype.obj
 0001:0004efb1       ___p__mbcasemap            1004ffb1 f   libucrt:mbctype.obj
 0001:0004efb7       ___p__mbctype              1004ffb7 f   libucrt:mbctype.obj
 0001:0004efbd       __getmbcp                  1004ffbd f   libucrt:mbctype.obj
 0001:0004effe       __setmbcp                  1004fffe f   libucrt:mbctype.obj
 0001:0004f024       __setmbcp_nolock           10050024 f   libucrt:mbctype.obj
 0001:0004f3a0       __ismbbalnum               100503a0 f   libucrt:ismbbyte.obj
 0001:0004f3c1       __ismbbalnum_l             100503c1 f   libucrt:ismbbyte.obj
 0001:0004f3e4       __ismbbalpha               100503e4 f   libucrt:ismbbyte.obj
 0001:0004f405       __ismbbalpha_l             10050405 f   libucrt:ismbbyte.obj
 0001:0004f428       __ismbbblank               10050428 f   libucrt:ismbbyte.obj
 0001:0004f453       __ismbbblank_l             10050453 f   libucrt:ismbbyte.obj
 0001:0004f480       __ismbbgraph               10050480 f   libucrt:ismbbyte.obj
 0001:0004f4a1       __ismbbgraph_l             100504a1 f   libucrt:ismbbyte.obj
 0001:0004f4c4       __ismbbkalnum              100504c4 f   libucrt:ismbbyte.obj
 0001:0004f4e2       __ismbbkalnum_l            100504e2 f   libucrt:ismbbyte.obj
 0001:0004f501       __ismbbkana                10050501 f   libucrt:ismbbyte.obj
 0001:0004f518       __ismbbkana_l              10050518 f   libucrt:ismbbyte.obj
 0001:0004f57a       __ismbbkprint              1005057a f   libucrt:ismbbyte.obj
 0001:0004f598       __ismbbkprint_l            10050598 f   libucrt:ismbbyte.obj
 0001:0004f5b7       __ismbbkpunct              100505b7 f   libucrt:ismbbyte.obj
 0001:0004f5d5       __ismbbkpunct_l            100505d5 f   libucrt:ismbbyte.obj
 0001:0004f5f4       __ismbblead                100505f4 f   libucrt:ismbbyte.obj
 0001:0004f612       __ismbblead_l              10050612 f   libucrt:ismbbyte.obj
 0001:0004f631       __ismbbprint               10050631 f   libucrt:ismbbyte.obj
 0001:0004f652       __ismbbprint_l             10050652 f   libucrt:ismbbyte.obj
 0001:0004f675       __ismbbpunct               10050675 f   libucrt:ismbbyte.obj
 0001:0004f693       __ismbbpunct_l             10050693 f   libucrt:ismbbyte.obj
 0001:0004f6b2       __ismbbtrail               100506b2 f   libucrt:ismbbyte.obj
 0001:0004f6d0       __ismbbtrail_l             100506d0 f   libucrt:ismbbyte.obj
 0001:0004f6ef       ___acrt_initialize_command_line 100506ef f   libucrt:argv_data.obj
 0001:0004f70e       ___acrt_uninitialize_command_line 1005070e f   libucrt:argv_data.obj
 0001:0004f711       ___p___argc                10050711 f   libucrt:argv_data.obj
 0001:0004f717       ___p___argv                10050717 f   libucrt:argv_data.obj
 0001:0004f71d       ___p___wargv               1005071d f   libucrt:argv_data.obj
 0001:0004f723       ___p__acmdln               10050723 f   libucrt:argv_data.obj
 0001:0004f729       ___p__pgmptr               10050729 f   libucrt:argv_data.obj
 0001:0004f72f       ___p__wcmdln               1005072f f   libucrt:argv_data.obj
 0001:0004f735       ___p__wpgmptr              10050735 f   libucrt:argv_data.obj
 0001:0004f73b       __get_pgmptr               1005073b f   libucrt:argv_data.obj
 0001:0004f778       __get_wpgmptr              10050778 f   libucrt:argv_data.obj
 0001:0004f82d       _wcscpy_s                  1005082d f   libucrt:wcscpy_s.obj
 0001:0004f928       ___acrt_WideCharToMultiByte 10050928 f   libucrt:widechartomultibyte.obj
 0001:0004faba       ___dcrt_get_narrow_environment_from_os 10050aba f   libucrt:get_environment_from_os.obj
 0001:0004fb5f       ___dcrt_get_wide_environment_from_os 10050b5f f   libucrt:get_environment_from_os.obj
 0001:00050458       ??$get_or_create_environment_nolock@$$V@?$__crt_char_traits@D@@SAPAPADXZ 10051458 f i libucrt:setenv.obj
 0001:0005045d       ??$get_or_create_environment_nolock@$$V@?$__crt_char_traits@_W@@SAPAPA_WXZ 1005145d f i libucrt:setenv.obj
 0001:00050462       ??$set_environment_variable@ABQADQAD@?$__crt_char_traits@D@@SAHABQAD$$QBQAD@Z 10051462 f i libucrt:setenv.obj
 0001:00050480       ??$set_environment_variable@ABQA_WQA_W@?$__crt_char_traits@_W@@SAHABQA_W$$QBQA_W@Z 10051480 f i libucrt:setenv.obj
 0001:0005049c       ??$tcschr@ABQADD@?$__crt_char_traits@D@@SAPADABQAD$$QAD@Z 1005149c f i libucrt:setenv.obj
 0001:000504bc       ??$tcschr@ABQA_WD@?$__crt_char_traits@_W@@SAPA_WABQA_W$$QAD@Z 100514bc f i libucrt:setenv.obj
 0001:000504e1       ??$tcscpy_s@AAPADABIAAPAD@?$__crt_char_traits@D@@SAHAAPADABI0@Z 100514e1 f i libucrt:setenv.obj
 0001:00050506       ??$tcscpy_s@AAPA_WABIAAPA_W@?$__crt_char_traits@_W@@SAHAAPA_WABI0@Z 10051506 f i libucrt:setenv.obj
 0001:0005052b       ??$tcscpy_s@ABQADABIABQAD@?$__crt_char_traits@D@@SAHABQADABI0@Z 1005152b f i libucrt:setenv.obj
 0001:00050550       ??$tcscpy_s@ABQA_WABIABQA_W@?$__crt_char_traits@_W@@SAHABQA_WABI0@Z 10051550 f i libucrt:setenv.obj
 0001:00050575       ??$tcslen@ABQAD@?$__crt_char_traits@D@@SAIABQAD@Z 10051575 f i libucrt:setenv.obj
 0001:00050593       ??$tcslen@ABQA_W@?$__crt_char_traits@_W@@SAIABQA_W@Z 10051593 f i libucrt:setenv.obj
 0001:000505b8       ??$tcsnicoll@ABQBDAAPADABI@?$__crt_char_traits@D@@SAHABQBDAAPADABI@Z 100515b8 f i libucrt:setenv.obj
 0001:000505dd       ??$tcsnicoll@ABQB_WAAPA_WABI@?$__crt_char_traits@_W@@SAHABQB_WAAPA_WABI@Z 100515dd f i libucrt:setenv.obj
 0001:00050626       ?strchr@@YAPADQADH@Z       10051626 f i libucrt:setenv.obj
 0001:00050633       ?wcschr@@YAPA_WPA_W_W@Z    10051633 f i libucrt:setenv.obj
 0001:00050640       ___dcrt_set_variable_in_narrow_environment_nolock 10051640 f   libucrt:setenv.obj
 0001:0005064d       ___dcrt_set_variable_in_wide_environment_nolock 1005164d f   libucrt:setenv.obj
 0001:0005065a       __recalloc                 1005165a f   libucrt:recalloc.obj
 0001:00050667       __recalloc_base            10051667 f   libucrt:recalloc.obj
 0001:000506ef       ___acrt_getheap            100516ef f   libucrt:heap_handle.obj
 0001:000506f5       ___acrt_initialize_heap    100516f5 f   libucrt:heap_handle.obj
 0001:0005070a       ___acrt_uninitialize_heap  1005170a f   libucrt:heap_handle.obj
 0001:00050716       __get_heap_handle          10051716 f   libucrt:heap_handle.obj
 0001:0005071c       ___acrt_execute_initializers 1005171c f   libucrt:shared_initialization.obj
 0001:0005079e       ___acrt_execute_uninitializers 1005179e f   libucrt:shared_initialization.obj
 0001:000507db       ??$?B$$A6AHI@Z@__crt_fast_encoded_nullptr_t@@QBEP6AHI@ZXZ 100517db f i libucrt:new_handler.obj
 0001:000507e1       ??$__crt_fast_decode_pointer@P6AHI@Z@@YAP6AHI@ZQ6AHI@Z@Z 100517e1 f i libucrt:new_handler.obj
 0001:000507fc       ??$__crt_fast_encode_pointer@P6AHI@Z@@YAP6AHI@ZQ6AHI@Z@Z 100517fc f i libucrt:new_handler.obj
 0001:00050822       ?_set_new_handler@@YAP6AHI@ZH@Z 10051822 f   libucrt:new_handler.obj
 0001:00050832       ?initialize@?$dual_state_global@P6AHI@Z@__crt_state_management@@QAEXQ6AHI@Z@Z 10051832 f i libucrt:new_handler.obj
 0001:00050861       ?value@?$dual_state_global@P6AHI@Z@__crt_state_management@@QAEAAP6AHI@ZXZ 10051861 f i libucrt:new_handler.obj
 0001:00050864       ___acrt_initialize_new_handler 10051864 f   libucrt:new_handler.obj
 0001:00050876       __callnewh                 10051876 f   libucrt:new_handler.obj
 0001:000508ae       __query_new_handler        100518ae f   libucrt:new_handler.obj
 0001:00050921       __set_new_handler          10051921 f   libucrt:new_handler.obj
 0001:000509a5       ??$?B$$A6AXH@Z@__crt_fast_encoded_nullptr_t@@QBEP6AXH@ZXZ 100519a5 f i libucrt:signal.obj
 0001:00050a57       ??$__crt_fast_decode_pointer@P6AXH@Z@@YAP6AXH@ZQ6AXH@Z@Z 10051a57 f i libucrt:signal.obj
 0001:00050a72       ??$__crt_fast_encode_pointer@P6AXH@Z@@YAP6AXH@ZQ6AXH@Z@Z 10051a72 f i libucrt:signal.obj
 0001:00050c17       ?initialize@?$dual_state_global@P6AXH@Z@__crt_state_management@@QAEXQ6AXH@Z@Z 10051c17 f i libucrt:signal.obj
 0001:00050cf5       ?value@?$dual_state_global@P6AXH@Z@__crt_state_management@@QAEAAP6AXH@ZXZ 10051cf5 f i libucrt:signal.obj
 0001:00050cf8       ___acrt_get_sigabrt_handler 10051cf8 f   libucrt:signal.obj
 0001:00050d28       ___acrt_initialize_signal_handlers 10051d28 f   libucrt:signal.obj
 0001:00050d4d       ___fpecode                 10051d4d f   libucrt:signal.obj
 0001:00050d58       ___pxcptinfoptrs           10051d58 f   libucrt:signal.obj
 0001:00050d63       _raise                     10051d63 f   libucrt:signal.obj
 0001:00050fdc       _signal                    10051fdc f   libucrt:signal.obj
 0001:0005120a       ___pctype_func             1005220a f   libucrt:ctype.obj
 0001:00051237       ___pwctype_func            10052237 f   libucrt:ctype.obj
 0001:0005123d       __iswctype_l               1005223d f   libucrt:iswctype.obj
 0001:00051256       _iswctype                  10052256 f   libucrt:iswctype.obj
 0001:000512d9       __isctype                  100522d9 f   libucrt:isctype.obj
 0001:00051318       __isctype_l                10052318 f   libucrt:isctype.obj
 0001:00051415       __isleadbyte_fast_internal 10052415 f i libucrt:isctype.obj
 0001:0005143a       ?value@?$dual_state_global@J@__crt_state_management@@QAEAAJXZ 1005243a f i libucrt:new_mode.obj
 0001:0005143d       __query_new_mode           1005243d f   libucrt:new_mode.obj
 0001:00051444       __set_new_mode             10052444 f   libucrt:new_mode.obj
 0001:00051526       ___acrt_DownlevelLCIDToLocaleName 10052526 f   libucrt:lcidtoname_downlevel.obj
 0001:000515fa       ___acrt_DownlevelLocaleNameToLCID 100525fa f   libucrt:lcidtoname_downlevel.obj
 0001:000517ea       __commit                   100527ea f   libucrt:commit.obj
 0001:00051886       ??$?RU__crt_lowio_handle_data@@@__crt_internal_free_policy@@QBEXQBU__crt_lowio_handle_data@@@Z 10052886 f i libucrt:osfinfo.obj
 0001:0005189c       ??0?$__crt_unique_heap_ptr@U__crt_lowio_handle_data@@U__crt_internal_free_policy@@@@QAE@QAU__crt_lowio_handle_data@@@Z 1005289c f i libucrt:osfinfo.obj
 0001:000518b0       ??1?$__crt_unique_heap_ptr@U__crt_lowio_handle_data@@U__crt_internal_free_policy@@@@QAE@XZ 100528b0 f i libucrt:osfinfo.obj
 0001:000518c6       ??B?$__crt_unique_heap_ptr@U__crt_lowio_handle_data@@U__crt_internal_free_policy@@@@QBE_NXZ 100528c6 f i libucrt:osfinfo.obj
 0001:000518cd       ?detach@?$__crt_unique_heap_ptr@U__crt_lowio_handle_data@@U__crt_internal_free_policy@@@@QAEPAU__crt_lowio_handle_data@@XZ 100528cd f i libucrt:osfinfo.obj
 0001:000518d3       ?get@?$__crt_unique_heap_ptr@U__crt_lowio_handle_data@@U__crt_internal_free_policy@@@@QBEPAU__crt_lowio_handle_data@@XZ 100528d3 f i libucrt:osfinfo.obj
 0001:000518d6       ?is_valid@?$__crt_unique_heap_ptr@U__crt_lowio_handle_data@@U__crt_internal_free_policy@@@@QBE_NXZ 100528d6 f i libucrt:osfinfo.obj
 0001:000518dd       ?release@?$__crt_unique_heap_ptr@U__crt_lowio_handle_data@@U__crt_internal_free_policy@@@@QAEXXZ 100528dd f i libucrt:osfinfo.obj
 0001:000518f3       ___acrt_lowio_create_handle_array 100528f3 f   libucrt:osfinfo.obj
 0001:0005198c       ___acrt_lowio_destroy_handle_array 1005298c f   libucrt:osfinfo.obj
 0001:000519ce       ___acrt_lowio_ensure_fh_exists 100529ce f   libucrt:osfinfo.obj
 0001:00051a93       ___acrt_lowio_lock_fh      10052a93 f   libucrt:osfinfo.obj
 0001:00051abe       ___acrt_lowio_set_os_handle 10052abe f   libucrt:osfinfo.obj
 0001:00051b74       ___acrt_lowio_unlock_fh    10052b74 f   libucrt:osfinfo.obj
 0001:00051b9f       __alloc_osfhnd             10052b9f f   libucrt:osfinfo.obj
 0001:00051cf6       __free_osfhnd              10052cf6 f   libucrt:osfinfo.obj
 0001:00051dab       __get_osfhandle            10052dab f   libucrt:osfinfo.obj
 0001:00051e2f       __open_osfhandle           10052e2f f   libucrt:osfinfo.obj
 0001:00051f8a       ___iswcsym                 10052f8a f i libucrt:_wctype.obj
 0001:00051fb9       ___iswcsymf                10052fb9 f i libucrt:_wctype.obj
 0001:00051fe8       __isleadbyte_l             10052fe8 f i libucrt:_wctype.obj
 0001:00052030       __iswalnum_l               10053030 f i libucrt:_wctype.obj
 0001:0005204b       __iswalpha_l               1005304b f i libucrt:_wctype.obj
 0001:00052066       __iswblank_l               10053066 f i libucrt:_wctype.obj
 0001:0005208a       __iswcntrl_l               1005308a f i libucrt:_wctype.obj
 0001:000520a1       __iswcsym_l                100530a1 f i libucrt:_wctype.obj
 0001:000520d0       __iswcsymf_l               100530d0 f i libucrt:_wctype.obj
 0001:000520ff       __iswdigit_l               100530ff f i libucrt:_wctype.obj
 0001:00052116       __iswgraph_l               10053116 f i libucrt:_wctype.obj
 0001:00052131       __iswlower_l               10053131 f i libucrt:_wctype.obj
 0001:00052148       __iswprint_l               10053148 f i libucrt:_wctype.obj
 0001:00052163       __iswpunct_l               10053163 f i libucrt:_wctype.obj
 0001:0005217a       __iswspace_l               1005317a f i libucrt:_wctype.obj
 0001:00052191       __iswupper_l               10053191 f i libucrt:_wctype.obj
 0001:000521a8       __iswxdigit_l              100531a8 f i libucrt:_wctype.obj
 0001:000521c3       _isleadbyte                100531c3 f i libucrt:_wctype.obj
 0001:000521da       _iswalnum                  100531da f i libucrt:_wctype.obj
 0001:000521f5       _iswalpha                  100531f5 f i libucrt:_wctype.obj
 0001:00052210       _iswascii                  10053210 f i libucrt:_wctype.obj
 0001:00052229       _iswblank                  10053229 f i libucrt:_wctype.obj
 0001:0005224d       _iswcntrl                  1005324d f i libucrt:_wctype.obj
 0001:00052264       _iswdigit                  10053264 f i libucrt:_wctype.obj
 0001:0005227b       _iswgraph                  1005327b f i libucrt:_wctype.obj
 0001:00052296       _iswlower                  10053296 f i libucrt:_wctype.obj
 0001:000522ad       _iswprint                  100532ad f i libucrt:_wctype.obj
 0001:000522c8       _iswpunct                  100532c8 f i libucrt:_wctype.obj
 0001:000522df       _iswspace                  100532df f i libucrt:_wctype.obj
 0001:000522f6       _iswupper                  100532f6 f i libucrt:_wctype.obj
 0001:0005230d       _iswxdigit                 1005330d f i libucrt:_wctype.obj
 0001:0005235f       ?__mbrtowc_utf8@__crt_mbstring@@YAIPA_WPBDIPAU_Mbstatet@@@Z 1005335f f   libucrt:mbrtowc.obj
 0001:000523af       ?__mbsrtowcs_utf8@__crt_mbstring@@YAIPA_WPAPBDIPAU_Mbstatet@@@Z 100533af f   libucrt:mbrtowc.obj
 0001:000528c4       _btowc                     100538c4 f   libucrt:mbrtowc.obj
 0001:00052932       _mbrlen                    10053932 f   libucrt:mbrtowc.obj
 0001:00052970       _mbrtowc                   10053970 f   libucrt:mbrtowc.obj
 0001:000529d5       _mbsrtowcs                 100539d5 f   libucrt:mbrtowc.obj
 0001:000529e2       _mbsrtowcs_s               100539e2 f   libucrt:mbrtowc.obj
 0001:00052aad       ??$?RG@__crt_internal_free_policy@@QBEXQBG@Z 10053aad f i libucrt:initctype.obj
 0001:00052ac3       ??$?RJ@__crt_internal_free_policy@@QBEXQBJ@Z 10053ac3 f i libucrt:initctype.obj
 0001:00052ad9       ??0?$__crt_unique_heap_ptr@GU__crt_internal_free_policy@@@@QAE@QAG@Z 10053ad9 f i libucrt:initctype.obj
 0001:00052aed       ??0?$__crt_unique_heap_ptr@JU__crt_internal_free_policy@@@@QAE@QAJ@Z 10053aed f i libucrt:initctype.obj
 0001:00052b01       ??1?$__crt_unique_heap_ptr@GU__crt_internal_free_policy@@@@QAE@XZ 10053b01 f i libucrt:initctype.obj
 0001:00052b17       ??1?$__crt_unique_heap_ptr@JU__crt_internal_free_policy@@@@QAE@XZ 10053b17 f i libucrt:initctype.obj
 0001:00052b2d       ?detach@?$__crt_unique_heap_ptr@GU__crt_internal_free_policy@@@@QAEPAGXZ 10053b2d f i libucrt:initctype.obj
 0001:00052b33       ?detach@?$__crt_unique_heap_ptr@JU__crt_internal_free_policy@@@@QAEPAJXZ 10053b33 f i libucrt:initctype.obj
 0001:00052b39       ?release@?$__crt_unique_heap_ptr@GU__crt_internal_free_policy@@@@QAEXXZ 10053b39 f i libucrt:initctype.obj
 0001:00052b4f       ?release@?$__crt_unique_heap_ptr@JU__crt_internal_free_policy@@@@QAEXXZ 10053b4f f i libucrt:initctype.obj
 0001:00052b65       ____lc_codepage_func       10053b65 f   libucrt:initctype.obj
 0001:00052b93       ____lc_collate_cp_func     10053b93 f   libucrt:initctype.obj
 0001:00052bc1       ____lc_locale_name_func    10053bc1 f   libucrt:initctype.obj
 0001:00052bf1       ____mb_cur_max_func        10053bf1 f   libucrt:initctype.obj
 0001:00052c1f       ____mb_cur_max_l_func      10053c1f f   libucrt:initctype.obj
 0001:00052c3e       ___acrt_locale_initialize_ctype 10053c3e f   libucrt:initctype.obj
 0001:000531b3       ?__c32rtomb_utf8@__crt_mbstring@@YAIPAD_UPAU_Mbstatet@@@Z 100541b3 f   libucrt:c32rtomb.obj
 0001:00053288       ?reset_and_return@__crt_mbstring@@YAIIPAU_Mbstatet@@@Z 10054288 f i libucrt:c32rtomb.obj
 0001:000532a1       ?return_illegal_sequence@__crt_mbstring@@YAIPAU_Mbstatet@@@Z 100542a1 f i libucrt:c32rtomb.obj
 0001:000532c7       _c32rtomb                  100542c7 f   libucrt:c32rtomb.obj
 0001:000532d4       ___acrt_add_locale_ref     100542d4 f   libucrt:locale_refcounting.obj
 0001:00053370       ___acrt_free_locale        10054370 f   libucrt:locale_refcounting.obj
 0001:0005350a       ___acrt_locale_add_lc_time_reference 1005450a f   libucrt:locale_refcounting.obj
 0001:0005353d       ___acrt_locale_free_lc_time_if_unreferenced 1005453d f   libucrt:locale_refcounting.obj
 0001:0005357a       ___acrt_locale_release_lc_time_reference 1005457a f   libucrt:locale_refcounting.obj
 0001:000535ad       ___acrt_release_locale_ref 100545ad f   libucrt:locale_refcounting.obj
 0001:0005364e       ___acrt_update_thread_locale_data 1005464e f   libucrt:locale_refcounting.obj
 0001:000536ef       __updatetlocinfoEx_nolock  100546ef f   libucrt:locale_refcounting.obj
 0001:00053753       ___acrt_fp_strflt_to_string 10054753 f   libucrt:_fptostr.obj
 0001:00054ea0       ??0big_integer@__crt_strtox@@QAE@ABU01@@Z 10055ea0 f i libucrt:cfout.obj
 0001:00054ee0       ??0big_integer@__crt_strtox@@QAE@XZ 10055ee0 f i libucrt:cfout.obj
 0001:00054f40       ??4big_integer@__crt_strtox@@QAEAAU01@ABU01@@Z 10055f40 f i libucrt:cfout.obj
 0001:00054f80       ??8__crt_strtox@@YA_NABUbig_integer@0@0@Z 10055f80 f i libucrt:cfout.obj
 0001:00054fd0       ??9__crt_strtox@@YA_NABUbig_integer@0@0@Z 10055fd0 f i libucrt:cfout.obj
 0001:00055020       ?add_carry@__crt_strtox@@YAIAAIII@Z 10056020 f i libucrt:cfout.obj
 0001:00055050       ?add_multiply_carry@__crt_strtox@@YAIAAIIII@Z 10056050 f i libucrt:cfout.obj
 0001:00055080       ?bit_scan_reverse@__crt_strtox@@YAII@Z 10056080 f i libucrt:cfout.obj
 0001:000550b0       ?count_sequential_high_zeroes@__crt_strtox@@YAII@Z 100560b0 f i libucrt:cfout.obj
 0001:000550e0       ?divide@__crt_strtox@@YA_KAAUbig_integer@1@ABU21@@Z 100560e0 f i libucrt:cfout.obj
 0001:000556a0       ?is_zero@__crt_strtox@@YA_NABUbig_integer@1@@Z 100566a0 f i libucrt:cfout.obj
 0001:000556c0       ?make_big_integer@__crt_strtox@@YA?AUbig_integer@1@_K@Z 100566c0 f i libucrt:cfout.obj
 0001:000556f0       ?make_big_integer_power_of_two@__crt_strtox@@YA?AUbig_integer@1@I@Z 100566f0 f i libucrt:cfout.obj
 0001:00055750       ?multiply@__crt_strtox@@YA_NAAUbig_integer@1@ABU21@@Z 10056750 f i libucrt:cfout.obj
 0001:00055b60       ?multiply@__crt_strtox@@YA_NAAUbig_integer@1@I@Z 10056b60 f i libucrt:cfout.obj
 0001:00055c60       ?multiply_64_32@__crt_strtox@@YA_K_KI@Z 10056c60 f i libucrt:cfout.obj
 0001:00055c80       ?multiply_by_power_of_ten@__crt_strtox@@YA_NAAUbig_integer@1@I@Z 10056c80 f i libucrt:cfout.obj
 0001:000562f0       ?multiply_core@__crt_strtox@@YAIQAIII@Z 100572f0 f i libucrt:cfout.obj
 0001:00056340       ?shift_left@__crt_strtox@@YA_NAAUbig_integer@1@I@Z 10057340 f i libucrt:cfout.obj
 0001:000564eb       ___acrt_fltout             100574eb f   libucrt:cfout.obj
 0001:00057da8       __isatty                   10058da8 f   libucrt:isatty.obj
 0001:00057e13       ??$?RUlconv@@@__crt_internal_free_policy@@QBEXQBUlconv@@@Z 10058e13 f i libucrt:initmon.obj
 0001:00057e29       ??0?$__crt_unique_heap_ptr@Ulconv@@U__crt_internal_free_policy@@@@QAE@QAUlconv@@@Z 10058e29 f i libucrt:initmon.obj
 0001:00057e3d       ??1?$__crt_unique_heap_ptr@Ulconv@@U__crt_internal_free_policy@@@@QAE@XZ 10058e3d f i libucrt:initmon.obj
 0001:00057e53       ?detach@?$__crt_unique_heap_ptr@Ulconv@@U__crt_internal_free_policy@@@@QAEPAUlconv@@XZ 10058e53 f i libucrt:initmon.obj
 0001:00057e59       ?release@?$__crt_unique_heap_ptr@Ulconv@@U__crt_internal_free_policy@@@@QAEXXZ 10058e59 f i libucrt:initmon.obj
 0001:00057e6f       ___acrt_locale_free_monetary 10058e6f f   libucrt:initmon.obj
 0001:00057fac       ___acrt_locale_initialize_monetary 10058fac f   libucrt:initmon.obj
 0001:00058496       ___acrt_locale_free_numeric 10059496 f   libucrt:initnum.obj
 0001:00058519       ___acrt_locale_initialize_numeric 10059519 f   libucrt:initnum.obj
 0001:000587f1       ??$?RU__crt_lc_time_data@@@__crt_internal_free_policy@@QBEXQBU__crt_lc_time_data@@@Z 100597f1 f i libucrt:inittime.obj
 0001:00058891       ??0?$__crt_unique_heap_ptr@U__crt_lc_time_data@@U__crt_internal_free_policy@@@@QAE@QAU__crt_lc_time_data@@@Z 10059891 f i libucrt:inittime.obj
 0001:000588a5       ??1?$__crt_unique_heap_ptr@U__crt_lc_time_data@@U__crt_internal_free_policy@@@@QAE@XZ 100598a5 f i libucrt:inittime.obj
 0001:000588bb       ??B?$__crt_unique_heap_ptr@U__crt_lc_time_data@@U__crt_internal_free_policy@@@@QBE_NXZ 100598bb f i libucrt:inittime.obj
 0001:000588c2       ?detach@?$__crt_unique_heap_ptr@U__crt_lc_time_data@@U__crt_internal_free_policy@@@@QAEPAU__crt_lc_time_data@@XZ 100598c2 f i libucrt:inittime.obj
 0001:0005890e       ?get@?$__crt_unique_heap_ptr@U__crt_lc_time_data@@U__crt_internal_free_policy@@@@QBEPAU__crt_lc_time_data@@XZ 1005990e f i libucrt:inittime.obj
 0001:00058ca5       ?is_valid@?$__crt_unique_heap_ptr@U__crt_lc_time_data@@U__crt_internal_free_policy@@@@QBE_NXZ 10059ca5 f i libucrt:inittime.obj
 0001:00058cac       ?release@?$__crt_unique_heap_ptr@U__crt_lc_time_data@@U__crt_internal_free_policy@@@@QAEXXZ 10059cac f i libucrt:inittime.obj
 0001:00058cc2       ___acrt_locale_free_time   10059cc2 f   libucrt:inittime.obj
 0001:00058ddf       ___acrt_locale_initialize_time 10059ddf f   libucrt:inittime.obj
 0001:00058f06       _wcscat_s                  10059f06 f   libucrt:wcscat_s.obj
 0001:000590b8       _wcsncat_s                 1005a0b8 f   libucrt:wcsncat_s.obj
 0001:000591c2       _wcsncpy_s                 1005a1c2 f   libucrt:wcsncpy_s.obj
 0001:000591cf       _wcscspn                   1005a1cf f   libucrt:wcscspn.obj
 0001:0005923e       _wcspbrk                   1005a23e f   libucrt:wcspbrk.obj
 0001:0005929f       ??0?$__crt_scoped_stack_ptr@_W@@QAE@U?$__crt_scoped_stack_ptr_tag@_W@@@Z 1005a29f f i libucrt:getstringtypea.obj
 0001:000592b3       ??0?$__crt_scoped_stack_ptr_tag@_W@@QAE@QA_W@Z 1005a2b3 f i libucrt:getstringtypea.obj
 0001:000592c7       ??1?$__crt_scoped_stack_ptr@_W@@QAE@XZ 1005a2c7 f i libucrt:getstringtypea.obj
 0001:000592d2       ?get@?$__crt_scoped_stack_ptr@_W@@QBEPA_WXZ 1005a2d2 f i libucrt:getstringtypea.obj
 0001:000592d5       __MallocaComputeSize       1005a2d5 f i libucrt:getstringtypea.obj
 0001:000592ec       __MarkAllocaS              1005a2ec f i libucrt:getstringtypea.obj
 0001:00059307       ___acrt_GetStringTypeA     1005a307 f   libucrt:getstringtypea.obj
 0001:0005944a       __freea_crt                1005a44a f i libucrt:getstringtypea.obj
 0001:00059d81       ___acrt_get_qualified_locale 1005ad81 f   libucrt:get_qualified_locale.obj
 0001:0005a959       ___acrt_get_qualified_locale_downlevel 1005b959 f   libucrt:getqloc_downlevel.obj
 0001:0005abcb       _localeconv                1005bbcb f   libucrt:localeconv.obj
 0001:0005abfd       ___ascii_wcsnicmp          1005bbfd f   libucrt:wcsnicmp.obj
 0001:0005ac5f       __towlower_fast_internal   1005bc5f f i libucrt:wcsnicmp.obj
 0001:0005ac94       __towlower_internal        1005bc94 f i libucrt:wcsnicmp.obj
 0001:0005ace2       __wcsnicmp                 1005bce2 f   libucrt:wcsnicmp.obj
 0001:0005ad41       __wcsnicmp_l               1005bd41 f   libucrt:wcsnicmp.obj
 0001:0005ae48       __strnicmp                 1005be48 f   libucrt:strnicmp.obj
 0001:0005aed0       __strnicmp_l               1005bed0 f   libucrt:strnicmp.obj
 0001:0005b44d       ??$tsopen_nolock@PAHABQAHABQBDABHABHABHABH@?$__crt_char_traits@D@@SAH$$QAPAHABQAHABQBDABH333@Z 1005c44d f i libucrt:open.obj
 0001:0005b48b       ??$tsopen_nolock@PAHABQAHABQB_WABHABHABHABH@?$__crt_char_traits@_W@@SAH$$QAPAHABQAHABQB_WABH333@Z 1005c48b f i libucrt:open.obj
 0001:0005b4c9       ??$tsopen_nolock@PAHPAHABQBDABHHABHH@?$__crt_char_traits@D@@SAH$$QAPAH0ABQBDABH$$QAH23@Z 1005c4c9 f i libucrt:open.obj
 0001:0005b507       ??$tsopen_nolock@PAHPAHABQB_WABHHABHH@?$__crt_char_traits@_W@@SAH$$QAPAH0ABQB_WABH$$QAH23@Z 1005c507 f i libucrt:open.obj
 0001:0005bce1       __open                     1005cce1 f   libucrt:open.obj
 0001:0005bcff       __sopen                    1005ccff f   libucrt:open.obj
 0001:0005bd3e       __sopen_dispatch           1005cd3e f   libucrt:open.obj
 0001:0005bd4b       __sopen_nolock             1005cd4b f   libucrt:open.obj
 0001:0005bdd4       __sopen_s                  1005cdd4 f   libucrt:open.obj
 0001:0005bdfc       __wopen                    1005cdfc f   libucrt:open.obj
 0001:0005be1a       __wsopen                   1005ce1a f   libucrt:open.obj
 0001:0005be59       __wsopen_dispatch          1005ce59 f   libucrt:open.obj
 0001:0005be66       __wsopen_nolock            1005ce66 f   libucrt:open.obj
 0001:0005c25a       __wsopen_s                 1005d25a f   libucrt:open.obj
 0001:0005c282       ___p__commode              1005d282 f   libucrt:ncommode.obj
 0001:0005c288       ___acrt_stdio_allocate_buffer_nolock 1005d288 f   libucrt:_getbuf.obj
 0001:0005c40e       __putwch                   1005d40e f   libucrt:putwch.obj
 0001:0005c446       __putwch_nolock            1005d446 f   libucrt:putwch.obj
 0001:0005c484       _nextafter                 1005d484 f   libucrt:nextafter.obj
 0001:0005c4aa       ___setfflag                1005d4aa f   libucrt:fp_flags.obj
 0001:0005c4c4       __87except                 1005d4c4 f   libucrt:87except.obj
 0001:0005c610       ___acrt_initialize_sse2    1005d610 f   libucrt:mathfcns.obj
 0001:0005c624       __set_SSE2_enable          1005d624 f   libucrt:mathfcns.obj
 0001:0005c650       __CIcos                    1005d650 f   libucrt:cos_impl.obj
 0001:0005c68b       __CIcos_default            1005d68b f   libucrt:cos_impl.obj
 0001:0005c69f       __cos_default              1005d69f     libucrt:cos_impl.obj
 0001:0005c770       __CIcos_pentium4           1005d770 f   libucrt:cos_pentium4.obj
 0001:0005c788       __cos_pentium4             1005d788     libucrt:cos_pentium4.obj
 0001:0005c990       __CIsin                    1005d990 f   libucrt:sin_impl.obj
 0001:0005c9cb       __CIsin_default            1005d9cb f   libucrt:sin_impl.obj
 0001:0005c9df       __sin_default              1005d9df     libucrt:sin_impl.obj
 0001:0005cab0       __CIsin_pentium4           1005dab0 f   libucrt:sin_pentium4.obj
 0001:0005cac8       __sin_pentium4             1005dac8     libucrt:sin_pentium4.obj
 0001:0005cde0       _qsort                     1005dde0 f   libucrt:qsort.obj
 0001:0005d414       _strncpy_s                 1005e414 f   libucrt:strncpy_s.obj
 0001:0005d430       _strpbrk                   1005e430 f   libucrt:strpbrk.obj
 0001:0005d480       __mbsdec                   1005e480 f   libucrt:mbsdec.obj
 0001:0005d49c       __mbsdec_l                 1005e49c f   libucrt:mbsdec.obj
 0001:0005d54c       ??B?$__crt_scoped_stack_ptr@_W@@QBE_NXZ 1005e54c f i libucrt:lcmapstringa.obj
 0001:0005d7b7       ___acrt_LCMapStringA       1005e7b7 f   libucrt:lcmapstringa.obj
 0001:0005d824       __wcsnicoll                1005e824 f   libucrt:wcsnicol.obj
 0001:0005d8ac       __wcsnicoll_l              1005e8ac f   libucrt:wcsnicol.obj
 0001:0005d99c       __strnicoll                1005e99c f   libucrt:strnicol.obj
 0001:0005d9cf       __strnicoll_l              1005e9cf f   libucrt:strnicol.obj
 0001:0005dbd0       ___acrt_SetEnvironmentVariableA 1005ebd0 f   libucrt:setenvironmentvariablea.obj
 0001:0005dc8a       __msize                    1005ec8a f   libucrt:msize.obj
 0001:0005dc97       __msize_base               1005ec97 f   libucrt:msize.obj
 0001:0005dcd6       ___acrt_GetStringTypeW     1005ecd6 f   libucrt:getstringtypew.obj
 0001:0005ddb9       ___acrt_report_runtime_error 1005edb9 f   libucrt:report_runtime_error.obj
 0001:0005df13       __query_app_type           1005ef13 f   libucrt:report_runtime_error.obj
 0001:0005df19       __set_app_type             1005ef19 f   libucrt:report_runtime_error.obj
 0001:0005df2b       ?__mbrtoc32_utf8@__crt_mbstring@@YAIPA_UPBDIPAU_Mbstatet@@@Z 1005ef2b f   libucrt:mbrtoc32.obj
 0001:0005e13b       _mbrtoc32                  1005f13b f   libucrt:mbrtoc32.obj
 0001:0005e25e       ___acrt_GetLocaleInfoA     1005f25e f   libucrt:getlocaleinfoa.obj
 0001:0005e47a       _fegetenv                  1005f47a f   libucrt:fegetenv.obj
 0001:0005e49e       _fesetenv                  1005f49e f   libucrt:fesetenv.obj
 0001:0005e4fb       _feholdexcept              1005f4fb f   libucrt:feholdexcept.obj
 0001:0005e560       __CIlog10                  1005f560 f   libucrt:log10_impl.obj
 0001:0005e59b       __CIlog10_default          1005f59b f   libucrt:log10_impl.obj
 0001:0005e5af       __log10_default            1005f5af     libucrt:log10_impl.obj
 0001:0005e6c0       _ceil                      1005f6c0 f   libucrt:ceil_pentium4.obj
 0001:0005e700       __ceil_pentium4            1005f700 f   libucrt:ceil_pentium4.obj
 0001:0005ee11       __i64toa                   1005fe11 f   libucrt:xtoa.obj
 0001:0005ee62       __i64toa_s                 1005fe62 f   libucrt:xtoa.obj
 0001:0005eeb0       __i64tow                   1005feb0 f   libucrt:xtoa.obj
 0001:0005ef01       __i64tow_s                 1005ff01 f   libucrt:xtoa.obj
 0001:0005ef4f       __itoa                     1005ff4f f   libucrt:xtoa.obj
 0001:0005ef91       __itoa_s                   1005ff91 f   libucrt:xtoa.obj
 0001:0005efd0       __itow                     1005ffd0 f   libucrt:xtoa.obj
 0001:0005f012       __itow_s                   10060012 f   libucrt:xtoa.obj
 0001:0005f051       __ltoa                     10060051 f   libucrt:xtoa.obj
 0001:0005f093       __ltoa_s                   10060093 f   libucrt:xtoa.obj
 0001:0005f0d2       __ltow                     100600d2 f   libucrt:xtoa.obj
 0001:0005f114       __ltow_s                   10060114 f   libucrt:xtoa.obj
 0001:0005f153       __ui64toa                  10060153 f   libucrt:xtoa.obj
 0001:0005f17d       __ui64toa_s                1006017d f   libucrt:xtoa.obj
 0001:0005f1a5       __ui64tow                  100601a5 f   libucrt:xtoa.obj
 0001:0005f1cf       __ui64tow_s                100601cf f   libucrt:xtoa.obj
 0001:0005f1f7       __ultoa                    100601f7 f   libucrt:xtoa.obj
 0001:0005f21d       __ultoa_s                  1006021d f   libucrt:xtoa.obj
 0001:0005f241       __ultow                    10060241 f   libucrt:xtoa.obj
 0001:0005f267       __ultow_s                  10060267 f   libucrt:xtoa.obj
 0001:0005f28b       ___ascii_wcsicmp           1006028b f   libucrt:wcsicmp.obj
 0001:0005f2d7       __wcsicmp                  100602d7 f   libucrt:wcsicmp.obj
 0001:0005f332       __wcsicmp_l                10060332 f   libucrt:wcsicmp.obj
 0001:0005f418       __towlower_l               10060418 f   libucrt:towlower.obj
 0001:0005f4e2       _towlower                  100604e2 f   libucrt:towlower.obj
 0001:0005f500       ___ascii_strnicmp          10060500 f   libucrt:_strnicm.obj
 0001:0005f579       ??$__crt_interlocked_read@H@@YAHPDH@Z 10060579 f i libucrt:setmode.obj
 0001:0005f589       ?value@?$dual_state_global@H@__crt_state_management@@QAEAAHXZ 10060589 f i libucrt:setmode.obj
 0001:0005f58c       __get_fmode                1006058c f   libucrt:setmode.obj
 0001:0005f5c4       __set_fmode                100605c4 f   libucrt:setmode.obj
 0001:0005f610       __setmode                  10060610 f   libucrt:setmode.obj
 0001:0005f765       __setmode_nolock           10060765 f   libucrt:setmode.obj
 0001:0005f993       ??0__crt_seek_guard@@QAE@H_J@Z 10060993 f i libucrt:chsize.obj
 0001:0005f9f3       ??1__crt_seek_guard@@QAE@XZ 100609f3 f i libucrt:chsize.obj
 0001:0005fa73       __chsize                   10060a73 f   libucrt:chsize.obj
 0001:0005fa96       __chsize_nolock            10060a96 f   libucrt:chsize.obj
 0001:0005fc62       __chsize_s                 10060c62 f   libucrt:chsize.obj
 0001:0005fd37       __umask                    10060d37 f   libucrt:umask.obj
 0001:0005fd62       __umask_s                  10060d62 f   libucrt:umask.obj
 0001:0005fe85       ___dcrt_lowio_ensure_console_output_initialized 10060e85 f   libucrt:initcon.obj
 0001:0005feab       ___dcrt_terminate_console_output 10060eab f   libucrt:initcon.obj
 0001:0005fec7       ___dcrt_write_console      10060ec7 f   libucrt:initcon.obj
 0001:0005ff31       _nexttoward                10060f31 f   libucrt:nexttoward.obj
 0001:000600e0       __twoToTOS                 100610e0 f   libucrt:common.obj
 0001:000600f5       __load_CW                  100610f5 f   libucrt:common.obj
 0001:0006010c       __convertTOStoQNaN         1006110c f   libucrt:common.obj
 0001:00060125       __fload_withFB             10061125 f   libucrt:common.obj
 0001:00060168       __checkTOS_withFB          10061168 f   libucrt:common.obj
 0001:0006017e       __fast_exit                1006117e f   libucrt:common.obj
 0001:0006018b       __math_exit                1006118b f   libucrt:common.obj
 0001:000601b5       __check_overflow_exit      100611b5 f   libucrt:common.obj
 0001:000601c9       __check_range_exit         100611c9 f   libucrt:common.obj
 0001:000602d0       __startTwoArgErrorHandling 100612d0 f   libucrt:genexcep.obj
 0001:000602e7       __startOneArgErrorHandling 100612e7 f   libucrt:genexcep.obj
 0001:00060337       ___strncnt                 10061337 f   libucrt:strncnt.obj
 0001:0006035a       ___acrt_CompareStringW     1006135a f   libucrt:comparestringw.obj
 0001:00060705       ___acrt_CompareStringA     10061705 f   libucrt:comparestringa.obj
 0001:0006075c       __set_error_mode           1006175c f   libucrt:set_error_mode.obj
 0001:000608e3       ??$message_box@$$TABQBDABQBDK@?$__crt_char_traits@D@@SAH$$QA$$TABQBD1$$QAK@Z 100618e3 f i libucrt:crtmbox.obj
 0001:0006090b       ??$message_box@$$TABQB_WABQB_WK@?$__crt_char_traits@_W@@SAH$$QA$$TABQB_W1$$QAK@Z 1006190b f i libucrt:crtmbox.obj
 0001:00060933       ??$message_box@PAUHWND__@@ABQBDABQBDABI@?$__crt_char_traits@D@@SAH$$QAPAUHWND__@@ABQBD1ABI@Z 10061933 f i libucrt:crtmbox.obj
 0001:0006095b       ??$message_box@PAUHWND__@@ABQB_WABQB_WABI@?$__crt_char_traits@_W@@SAH$$QAPAUHWND__@@ABQB_W1ABI@Z 1006195b f i libucrt:crtmbox.obj
 0001:00060983       ??$output_debug_string@ABQBD@?$__crt_char_traits@D@@SAXABQBD@Z 10061983 f i libucrt:crtmbox.obj
 0001:00060998       ??$output_debug_string@ABQB_W@?$__crt_char_traits@_W@@SAXABQB_W@Z 10061998 f i libucrt:crtmbox.obj
 0001:000609ae       ___acrt_show_narrow_message_box 100619ae f   libucrt:crtmbox.obj
 0001:000609bb       ___acrt_show_wide_message_box 100619bb f   libucrt:crtmbox.obj
 0001:000609c8       ??$__acrt_fenv_shift_bits@W4__acrt_fenv_abstract_control@@@@YA?AW4__acrt_fenv_abstract_control@@W40@0I@Z 100619c8 f i libucrt:_fenvutils.obj
 0001:000609de       ??$__acrt_fenv_shift_bits@W4__acrt_fenv_abstract_status@@@@YA?AW4__acrt_fenv_abstract_status@@W40@0I@Z 100619de f i libucrt:_fenvutils.obj
 0001:000609f4       ??$__acrt_fenv_translate_bit@W4__acrt_fenv_abstract_control@@W4__acrt_fenv_machine_sse_control@@@@YA?AW4__acrt_fenv_abstract_control@@W4__acrt_fenv_machine_sse_control@@0W40@1@Z 100619f4 f i libucrt:_fenvutils.obj
 0001:00060a12       ??$__acrt_fenv_translate_bit@W4__acrt_fenv_abstract_control@@W4__acrt_fenv_machine_x87_control@@@@YA?AW4__acrt_fenv_abstract_control@@W4__acrt_fenv_machine_x87_control@@0W40@1@Z 10061a12 f i libucrt:_fenvutils.obj
 0001:00060a30       ??$__acrt_fenv_translate_bit@W4__acrt_fenv_abstract_status@@W4__acrt_fenv_machine_sse_status@@@@YA?AW4__acrt_fenv_abstract_status@@W4__acrt_fenv_machine_sse_status@@0W40@1@Z 10061a30 f i libucrt:_fenvutils.obj
 0001:00060a4a       ??$__acrt_fenv_translate_bit@W4__acrt_fenv_abstract_status@@W4__acrt_fenv_machine_x87_status@@@@YA?AW4__acrt_fenv_abstract_status@@W4__acrt_fenv_machine_x87_status@@0W40@1@Z 10061a4a f i libucrt:_fenvutils.obj
 0001:00060a64       ??$__acrt_fenv_translate_bit@W4__acrt_fenv_machine_sse_control@@W4__acrt_fenv_abstract_control@@@@YA?AW4__acrt_fenv_machine_sse_control@@W4__acrt_fenv_abstract_control@@0W40@1@Z 10061a64 f i libucrt:_fenvutils.obj
 0001:00060a80       ??$__acrt_fenv_translate_bit@W4__acrt_fenv_machine_sse_status@@W4__acrt_fenv_abstract_status@@@@YA?AW4__acrt_fenv_machine_sse_status@@W4__acrt_fenv_abstract_status@@0W40@1@Z 10061a80 f i libucrt:_fenvutils.obj
 0001:00060a9a       ??$__acrt_fenv_translate_bit@W4__acrt_fenv_machine_x87_control@@W4__acrt_fenv_abstract_control@@@@YA?AW4__acrt_fenv_machine_x87_control@@W4__acrt_fenv_abstract_control@@0W40@1@Z 10061a9a f i libucrt:_fenvutils.obj
 0001:00060ab6       ??$__acrt_fenv_translate_bit@W4__acrt_fenv_machine_x87_status@@W4__acrt_fenv_abstract_status@@@@YA?AW4__acrt_fenv_machine_x87_status@@W4__acrt_fenv_abstract_status@@0W40@1@Z 10061ab6 f i libucrt:_fenvutils.obj
 0001:00060ad0       ??$__acrt_fenv_unshift_bits@W4__acrt_fenv_abstract_control@@@@YA?AW4__acrt_fenv_abstract_control@@W40@0I@Z 10061ad0 f i libucrt:_fenvutils.obj
 0001:00060ae6       ??$__acrt_fenv_unshift_bits@W4__acrt_fenv_abstract_status@@@@YA?AW4__acrt_fenv_abstract_status@@W40@0I@Z 10061ae6 f i libucrt:_fenvutils.obj
 0001:000610af       ??I@YA?AW4__acrt_fenv_abstract_control@@W40@0@Z 100620af f i libucrt:_fenvutils.obj
 0001:000610bf       ??I@YA?AW4__acrt_fenv_abstract_status@@W40@0@Z 100620bf f i libucrt:_fenvutils.obj
 0001:000610cf       ??I@YA?AW4__acrt_fenv_machine_sse_control@@W40@0@Z 100620cf f i libucrt:_fenvutils.obj
 0001:000610df       ??I@YA?AW4__acrt_fenv_machine_sse_status@@W40@0@Z 100620df f i libucrt:_fenvutils.obj
 0001:000610ef       ??I@YA?AW4__acrt_fenv_machine_x87_control@@W40@0@Z 100620ef f i libucrt:_fenvutils.obj
 0001:000610ff       ??I@YA?AW4__acrt_fenv_machine_x87_status@@W40@0@Z 100620ff f i libucrt:_fenvutils.obj
 0001:0006110f       ??U@YA?AW4__acrt_fenv_abstract_control@@W40@0@Z 1006210f f i libucrt:_fenvutils.obj
 0001:0006111f       ??U@YA?AW4__acrt_fenv_abstract_status@@W40@0@Z 1006211f f i libucrt:_fenvutils.obj
 0001:0006112f       ??U@YA?AW4__acrt_fenv_machine_sse_control@@W40@0@Z 1006212f f i libucrt:_fenvutils.obj
 0001:0006113f       ??U@YA?AW4__acrt_fenv_machine_x87_control@@W40@0@Z 1006213f f i libucrt:_fenvutils.obj
 0001:0006114f       ??_5@YAAAW4__acrt_fenv_abstract_control@@AAW40@W40@@Z 1006214f f i libucrt:_fenvutils.obj
 0001:00061161       ??_5@YAAAW4__acrt_fenv_abstract_status@@AAW40@W40@@Z 10062161 f i libucrt:_fenvutils.obj
 0001:00061173       ??_5@YAAAW4__acrt_fenv_machine_sse_control@@AAW40@W40@@Z 10062173 f i libucrt:_fenvutils.obj
 0001:00061188       ??_5@YAAAW4__acrt_fenv_machine_sse_status@@AAW40@W40@@Z 10062188 f i libucrt:_fenvutils.obj
 0001:0006119a       ??_5@YAAAW4__acrt_fenv_machine_x87_control@@AAW40@W40@@Z 1006219a f i libucrt:_fenvutils.obj
 0001:000611af       ??_5@YAAAW4__acrt_fenv_machine_x87_status@@AAW40@W40@@Z 100621af f i libucrt:_fenvutils.obj
 0001:000611c1       ?__acrt_fenv_shift_abstract_sse_control@@YA?AW4__acrt_fenv_abstract_control@@W41@@Z 100621c1 f i libucrt:_fenvutils.obj
 0001:000611e5       ?__acrt_fenv_shift_abstract_sse_status@@YA?AW4__acrt_fenv_abstract_status@@W41@@Z 100621e5 f i libucrt:_fenvutils.obj
 0001:000611f9       ?__acrt_fenv_shift_abstract_x87_control@@YA?AW4__acrt_fenv_abstract_control@@W41@@Z 100621f9 f i libucrt:_fenvutils.obj
 0001:0006121d       ?__acrt_fenv_shift_abstract_x87_status@@YA?AW4__acrt_fenv_abstract_status@@W41@@Z 1006221d f i libucrt:_fenvutils.obj
 0001:00061231       ?__acrt_fenv_unshift_abstract_sse_control@@YA?AW4__acrt_fenv_abstract_control@@W41@@Z 10062231 f i libucrt:_fenvutils.obj
 0001:00061257       ?__acrt_fenv_unshift_abstract_sse_status@@YA?AW4__acrt_fenv_abstract_status@@W41@@Z 10062257 f i libucrt:_fenvutils.obj
 0001:0006126b       ?__acrt_fenv_unshift_abstract_x87_control@@YA?AW4__acrt_fenv_abstract_control@@W41@@Z 1006226b f i libucrt:_fenvutils.obj
 0001:00061291       ?__acrt_fenv_unshift_abstract_x87_status@@YA?AW4__acrt_fenv_abstract_status@@W41@@Z 10062291 f i libucrt:_fenvutils.obj
 0001:00061943       ___acrt_fenv_expand_round_control 10062943 f   libucrt:_fenvutils.obj
 0001:00061986       ___acrt_fenv_get_common_round_control 10062986 f   libucrt:_fenvutils.obj
 0001:000619b0       ___acrt_fenv_get_control   100629b0 f   libucrt:_fenvutils.obj
 0001:00061a50       ___acrt_fenv_get_fp_status_word_from_exception_mask 10062a50 f   libucrt:_fenvutils.obj
 0001:00061a70       ___acrt_fenv_get_status    10062a70 f   libucrt:_fenvutils.obj
 0001:00061b56       ___acrt_fenv_set_control   10062b56 f   libucrt:_fenvutils.obj
 0001:00061bd8       ___acrt_fenv_set_status    10062bd8 f   libucrt:_fenvutils.obj
 0001:00061e9e       ___control87_2             10062e9e f   libucrt:ieee87.obj
 0001:0006245c       ___fpreset_sse2            1006345c f   libucrt:ieee87.obj
 0001:000626a5       __clearfp                  100636a5 f   libucrt:ieee87.obj
 0001:000627ba       __control87                100637ba f   libucrt:ieee87.obj
 0001:00062b7b       __controlfp                10063b7b f   libucrt:ieee87.obj
 0001:00062b9b       __fpreset                  10063b9b f   libucrt:ieee87.obj
 0001:00062c9e       __set_controlfp            10063c9e f   libucrt:ieee87.obj
 0001:00062d2d       __statusfp                 10063d2d f   libucrt:ieee87.obj
 0001:00062dee       __statusfp2                10063dee f   libucrt:ieee87.obj
 0001:00062e70       __CIlog10_pentium4         10063e70 f   libucrt:log10_pentium4.obj
 0001:00062e88       __log10_pentium4           10063e88     libucrt:log10_pentium4.obj
 0001:000631d0       __fFEXP                    100641d0 f   libucrt:87tran.obj
 0001:00063227       __rtinfpopse               10064227     libucrt:87tran.obj
 0001:00063229       __rtinfnpopse              10064229     libucrt:87tran.obj
 0001:00063239       __fFLN                     10064239     libucrt:87tran.obj
 0001:000632ee       __rtinfpop                 100642ee     libucrt:87tran.obj
 0001:000632f0       __rtinfnpop                100642f0     libucrt:87tran.obj
 0001:00063300       __rtforexpinf              10064300 f   libucrt:87tran.obj
 0001:0006330d       __ffexpm1                  1006430d     libucrt:87tran.obj
 0001:00063437       ___libm_error_support      10064437 f   libucrt:libm_error.obj
 0001:000636a8       ___libm_setusermatherr     100646a8 f   libucrt:libm_error.obj
 0001:000636d8       __ceil_default             100646d8 f   libucrt:ceil.obj
 0001:000637ba       ___acrt_LCMapStringW       100647ba f   libucrt:lcmapstringw.obj
 0001:00063807       ___p__fmode                10064807 f   libucrt:txtmode.obj
 0001:000638a3       __d_int                    100648a3 f   libucrt:_test.obj
 0001:000639ea       __dtest                    100649ea f   libucrt:_test.obj
 0001:00063a67       __fd_int                   10064a67 f   libucrt:_test.obj
 0001:00063b67       __fdtest                   10064b67 f   libucrt:_test.obj
 0001:00063bc8       __fperrraise               10064bc8 f   libucrt:_test.obj
 0001:00063bf1       __ld_int                   10064bf1 f   libucrt:_test.obj
 0001:00063bfe       __ldtest                   10064bfe f   libucrt:_test.obj
 0001:00063c0b       ___acrt_OutputDebugStringA@4 10064c0b f   libucrt:outputdebugstringa.obj
 0001:00063c95       __controlfp_s              10064c95 f   libucrt:contrlfp.obj
 0001:00063d0b       __d_inttype                10064d0b f   libucrt:powhlp.obj
 0001:00063d8d       __powhlp                   10064d8d f   libucrt:powhlp.obj
 0001:00063f02       __frnd                     10064f02 f   libucrt:frnd.obj
 0001:00063f1b       ??_4@YAAAW4__acrt_fenv_abstract_status@@AAW40@W40@@Z 10064f1b f i libucrt:fegetexceptflag.obj
 0001:00063f2d       _fegetexceptflag           10064f2d f   libucrt:fegetexceptflag.obj
 0001:00063f6a       ??S@YA?AW4__acrt_fenv_abstract_status@@W40@@Z 10064f6a f i libucrt:fesetexceptflag.obj
 0001:00063f79       _fesetexceptflag           10064f79 f   libucrt:fesetexceptflag.obj
 0001:000641f3       __mbstowcs_l               100651f3 f   libucrt:mbstowcs.obj
 0001:00064200       __mbstowcs_s_l             10065200 f   libucrt:mbstowcs.obj
 0001:00064318       _mbstowcs                  10065318 f   libucrt:mbstowcs.obj
 0001:0006434c       _mbstowcs_s                1006534c f   libucrt:mbstowcs.obj
 0001:00064374       _fetestexcept              10065374 f   libucrt:fetestexcept.obj
 0001:000643a0       __FindPESection            100653a0 f   LIBCMT:pesect.obj
 0001:00064400       __IsNonwritableInCurrentImage 10065400 f   LIBCMT:pesect.obj
 0001:000644f0       __ValidateImageBase        100654f0 f   LIBCMT:pesect.obj
 0001:0006452f       ??1type_info@@UAE@XZ       1006552f f   LIBCMT:std_type_info_static.obj
 0001:00064536       ??_Etype_info@@UAEPAXI@Z   10065536 f i LIBCMT:std_type_info_static.obj
 0001:00064536       ??_Gtype_info@@UAEPAXI@Z   10065536 f i LIBCMT:std_type_info_static.obj
 0001:00064561       __EH_epilog3               10065561 f   LIBCMT:ehprolg3.obj
 0001:0006457b       __EH_epilog3_GS            1006557b f   LIBCMT:ehprolg3.obj
 0001:00064590       __EH_epilog3_catch_GS      10065590 f   LIBCMT:ehprolg3.obj
 0001:000645a5       __EH_prolog3               100655a5 f   LIBCMT:ehprolg3.obj
 0001:000645e6       __EH_prolog3_GS            100655e6 f   LIBCMT:ehprolg3.obj
 0001:0006462a       __EH_prolog3_catch         1006562a f   LIBCMT:ehprolg3.obj
 0001:0006466e       __EH_prolog3_catch_GS      1006566e f   LIBCMT:ehprolg3.obj
 0001:000646c0       __aulldvrm                 100656c0 f   LIBCMT:ulldvrm.obj
 0001:0006477a       ??3@YAXPAXI@Z              1006577a f   LIBCMT:delete_scalar_size.obj
 0001:00064790       __allmul                   10065790 f   LIBCMT:llmul.obj
 0001:000647e0       __alldvrm                  100657e0 f   LIBCMT:lldvrm.obj
 0001:00064900       __aullshr                  10065900 f   LIBCMT:ullshr.obj
 0001:00064930       __alloca_probe             10065930 f   LIBCMT:chkstk.obj
 0001:00064930       __chkstk                   10065930 f   LIBCMT:chkstk.obj
 0001:00064970       __allshl                   10065970 f   LIBCMT:llshl.obj
 0001:000649a0       __ftol2_sse_excpt          100659a0     LIBCMT:ftol2.obj
 0001:000649a0       __ftol2_sse                100659a0     LIBCMT:ftol2.obj
 0001:000649a0       __ftoi2                    100659a0 f   LIBCMT:ftol2.obj
 0001:00064a20       __ftoui2                   10065a20 f   LIBCMT:ftol2.obj
 0001:00064ad0       __ftol2                    10065ad0 f   LIBCMT:ftol2.obj
 0001:00064b80       __ftoul2                   10065b80 f   LIBCMT:ftol2.obj
 0001:00064ce0       __alloca_probe_16          10065ce0 f   LIBCMT:alloca16.obj
 0001:00064cf6       __alloca_probe_8           10065cf6     LIBCMT:alloca16.obj
 0001:00064d17       __initialize_default_precision 10065d17 f   LIBCMT:default_precision.obj
 0001:00064d40       ??3@YAXPAX@Z               10065d40 f   LIBCMT:delete_scalar.obj
 0001:00064d45       _InterlockedPushEntrySList@8 10065d45 f   kernel32:KERNEL32.dll
 0001:00064d4b       _InterlockedFlushSList@4   10065d4b f   kernel32:KERNEL32.dll
 0001:00064d51       _RtlUnwind@16              10065d51 f   kernel32:KERNEL32.dll
 0001:00064d57       _GetLastError@0            10065d57 f   kernel32:KERNEL32.dll
 0001:00064d5d       _SetLastError@4            10065d5d f   kernel32:KERNEL32.dll
 0001:00064d63       _EnterCriticalSection@4    10065d63 f   kernel32:KERNEL32.dll
 0001:00064d69       _LeaveCriticalSection@4    10065d69 f   kernel32:KERNEL32.dll
 0001:00064d6f       _DeleteCriticalSection@4   10065d6f f   kernel32:KERNEL32.dll
 0001:00064d75       _InitializeCriticalSectionAndSpinCount@8 10065d75 f   kernel32:KERNEL32.dll
 0001:00064d7b       _TlsAlloc@0                10065d7b f   kernel32:KERNEL32.dll
 0001:00064d81       _TlsGetValue@4             10065d81 f   kernel32:KERNEL32.dll
 0001:00064d87       _TlsSetValue@8             10065d87 f   kernel32:KERNEL32.dll
 0001:00064d8d       _TlsFree@4                 10065d8d f   kernel32:KERNEL32.dll
 0001:00064d93       _FreeLibrary@4             10065d93 f   kernel32:KERNEL32.dll
 0001:00064d99       _LoadLibraryExW@12         10065d99 f   kernel32:KERNEL32.dll
 0001:00064d9f       _EncodePointer@4           10065d9f f   kernel32:KERNEL32.dll
 0001:00064da5       _RaiseException@16         10065da5 f   kernel32:KERNEL32.dll
 0001:00064dab       _ExitProcess@4             10065dab f   kernel32:KERNEL32.dll
 0001:00064db1       _GetModuleHandleExW@12     10065db1 f   kernel32:KERNEL32.dll
 0001:00064db7       _GetModuleFileNameW@12     10065db7 f   kernel32:KERNEL32.dll
 0001:00064dbd       _HeapAlloc@12              10065dbd f   kernel32:KERNEL32.dll
 0001:00064dc3       _HeapFree@12               10065dc3 f   kernel32:KERNEL32.dll
 0001:00064dc9       _GetDateFormatW@24         10065dc9 f   kernel32:KERNEL32.dll
 0001:00064dcf       _GetTimeFormatW@24         10065dcf f   kernel32:KERNEL32.dll
 0001:00064dd5       _CompareStringW@24         10065dd5 f   kernel32:KERNEL32.dll
 0001:00064ddb       _LCMapStringW@24           10065ddb f   kernel32:KERNEL32.dll
 0001:00064de1       _GetLocaleInfoW@16         10065de1 f   kernel32:KERNEL32.dll
 0001:00064de7       _IsValidLocale@8           10065de7 f   kernel32:KERNEL32.dll
 0001:00064ded       _GetUserDefaultLCID@0      10065ded f   kernel32:KERNEL32.dll
 0001:00064df3       _EnumSystemLocalesW@8      10065df3 f   kernel32:KERNEL32.dll
 0001:00064df9       _GetStdHandle@4            10065df9 f   kernel32:KERNEL32.dll
 0001:00064dff       _GetFileType@4             10065dff f   kernel32:KERNEL32.dll
 0001:00064e05       _GetCurrentThread@0        10065e05 f   kernel32:KERNEL32.dll
 0001:00064e0b       _HeapReAlloc@16            10065e0b f   kernel32:KERNEL32.dll
 0001:00064e11       _CloseHandle@4             10065e11 f   kernel32:KERNEL32.dll
 0001:00064e17       _ReadFile@20               10065e17 f   kernel32:KERNEL32.dll
 0001:00064e1d       _GetConsoleMode@8          10065e1d f   kernel32:KERNEL32.dll
 0001:00064e23       _ReadConsoleW@20           10065e23 f   kernel32:KERNEL32.dll
 0001:00064e29       _WriteFile@20              10065e29 f   kernel32:KERNEL32.dll
 0001:00064e2f       _GetConsoleCP@0            10065e2f f   kernel32:KERNEL32.dll
 0001:00064e35       _GetFileSizeEx@8           10065e35 f   kernel32:KERNEL32.dll
 0001:00064e3b       _SetFilePointerEx@20       10065e3b f   kernel32:KERNEL32.dll
 0001:00064e41       _MultiByteToWideChar@24    10065e41 f   kernel32:KERNEL32.dll
 0001:00064e47       _DeleteFileW@4             10065e47 f   kernel32:KERNEL32.dll
 0001:00064e4d       _FindClose@4               10065e4d f   kernel32:KERNEL32.dll
 0001:00064e53       _FindFirstFileExW@24       10065e53 f   kernel32:KERNEL32.dll
 0001:00064e59       _FindNextFileW@8           10065e59 f   kernel32:KERNEL32.dll
 0001:00064e5f       _IsValidCodePage@4         10065e5f f   kernel32:KERNEL32.dll
 0001:00064e65       _GetACP@0                  10065e65 f   kernel32:KERNEL32.dll
 0001:00064e6b       _GetOEMCP@0                10065e6b f   kernel32:KERNEL32.dll
 0001:00064e71       _GetCPInfo@8               10065e71 f   kernel32:KERNEL32.dll
 0001:00064e77       _GetCommandLineA@0         10065e77 f   kernel32:KERNEL32.dll
 0001:00064e7d       _GetCommandLineW@0         10065e7d f   kernel32:KERNEL32.dll
 0001:00064e83       _WideCharToMultiByte@32    10065e83 f   kernel32:KERNEL32.dll
 0001:00064e89       _GetEnvironmentStringsW@0  10065e89 f   kernel32:KERNEL32.dll
 0001:00064e8f       _FreeEnvironmentStringsW@4 10065e8f f   kernel32:KERNEL32.dll
 0001:00064e95       _SetEnvironmentVariableW@8 10065e95 f   kernel32:KERNEL32.dll
 0001:00064e9b       _GetProcessHeap@0          10065e9b f   kernel32:KERNEL32.dll
 0001:00064ea1       _SetConsoleCtrlHandler@8   10065ea1 f   kernel32:KERNEL32.dll
 0001:00064ea7       _FlushFileBuffers@4        10065ea7 f   kernel32:KERNEL32.dll
 0001:00064ead       _SetStdHandle@8            10065ead f   kernel32:KERNEL32.dll
 0001:00064eb3       _GetStringTypeW@16         10065eb3 f   kernel32:KERNEL32.dll
 0001:00064eb9       _CreateFileW@28            10065eb9 f   kernel32:KERNEL32.dll
 0001:00064ebf       _HeapSize@12               10065ebf f   kernel32:KERNEL32.dll
 0001:00064ec5       _SetEndOfFile@4            10065ec5 f   kernel32:KERNEL32.dll
 0001:00064ecb       _WriteConsoleW@20          10065ecb f   kernel32:KERNEL32.dll
 0001:00064ed1       _OutputDebugStringW@4      10065ed1 f   kernel32:KERNEL32.dll
 0001:00064ed7       _DecodePointer@4           10065ed7 f   kernel32:KERNEL32.dll
 0001:00064ee0       _strrchr                   10065ee0 f   libvcruntime:strrchr.obj
 0001:00065195       _memcmp                    10066195 f   libvcruntime:memcmp.obj
 0001:00067639       _wcschr                    10068639 f   libvcruntime:wcschr.obj
 0001:00067731       __filter_x86_sse2_floating_point_exception_default 10068731 f   LIBCMT:x86_exception_filter.obj
 0001:00067731       __filter_x86_sse2_floating_point_exception 10068731 f   LIBCMT:x86_exception_filter.obj
 0002:00000000       ___xc_a                    1006d000     LIBCMT:initializers.obj
 0002:00000104       ___xc_z                    1006d104     LIBCMT:initializers.obj
 0002:00000208       ___xi_a                    1006d208     LIBCMT:initializers.obj
 0002:0000030c       ___acrt_stdio_initializer  1006d30c     libucrt:stdio_initializer.obj
 0002:00000310       ___acrt_multibyte_initializer 1006d310     libucrt:multibyte_initializer.obj
 0002:00000314       ___acrt_tran_sse2_initializer 1006d314     libucrt:sse2_initializer.obj
 0002:0000041c       ___xi_z                    1006d41c     LIBCMT:initializers.obj
 0002:00000520       ___xp_a                    1006d520     LIBCMT:initializers.obj
 0002:00000624       ___acrt_locale_terminator  1006d624     libucrt:locale_initializer.obj
 0002:00000628       ___dcrt_console_output_terminator 1006d628     libucrt:console_output_initializer.obj
 0002:00000730       ___acrt_stdio_terminator   1006d730     libucrt:stdio_initializer.obj
 0002:00000834       ___xp_z                    1006d834     LIBCMT:initializers.obj
 0002:00000938       ___xt_a                    1006d938     LIBCMT:initializers.obj
 0002:00000a3c       ___xt_z                    1006da3c     LIBCMT:initializers.obj
 0002:00000b40       ??_C@_08BICNCILO@Ethernet@ 1006db40     xpctarget.obj
 0002:00000b4c       _ptsetfilename             1006db4c     xpctarget.obj
 0002:00000b50       _xmlfile                   1006db50     xpctarget.obj
 0002:00000b58       ??_C@_04JPIIEGBP@6?412@    1006db58     xpctarget.obj
 0002:00000b60       ??_C@_01DNKMNLPK@?$HM@     1006db60     xpctarget.obj
 0002:00000b68       __real@3fb999999999999a    1006db68     xpctarget.obj
 0002:00000b78       __real@408f400000000000    1006db78     xpctarget.obj
 0002:00000b88       _Ethernet_BIOMAP           1006db88     appmappingData.obj
 0002:00000c00       _Ethernet_LBLMAP           1006dc00     appmappingData.obj
 0002:00000c78       _Ethernet_SIDMAP           1006dc78     appmappingData.obj
 0002:00000cf0       _Ethernet_SBIO             1006dcf0     appmappingData.obj
 0002:00000d18       _Ethernet_SLBL             1006dd18     appmappingData.obj
 0002:00000d40       _Ethernet_PTIDSMAP         1006dd40     appmappingData.obj
 0002:00000e68       _Ethernet_PTNAMESMAP       1006de68     appmappingData.obj
 0002:00000f90       _Ethernet_SPTMAP           1006df90     appmappingData.obj
 0002:00001024       _Ethernet_dtmap            1006e024     appmappingData.obj
 0002:00001058       _appInfo                   1006e058     appmappingData.obj
 0002:000011a9       ??_C@_00CNPNBAHC@@         1006e1a9     appmappingData.obj
 0002:000011b0       __real@3cb0000000000000    1006e1b0     rt_matrx.obj
 0002:000011c0       __real@3fe0000000000000    1006e1c0     rt_matrx.obj
 0002:000011d0       __real@3ff0000000000000    1006e1d0     rt_matrx.obj
 0002:00001a40       ??_C@_0DJ@FHKINPLE@Unexpected?5itemKind?5?$DN?5DATA_ITEM@ 1006ea40     rt_logging.obj
 0002:00001a84       ??_C@_0DA@IEHFPFCJ@Unexpected?5itemKind?$DN?$CFd?5in?5rt_Pr@ 1006ea84     rt_logging.obj
 0002:00001ac0       ??_C@_0DA@IFLHJPBO@Unexpected?5itemKind?$DN?$CFd?5in?5rt_Pr@ 1006eac0     rt_logging.obj
 0002:00001afc       ??_C@_0DA@IAPIIJJL@Unexpected?5itemKind?$DN?$CFd?5in?5rt_Pr@ 1006eafc     rt_logging.obj
 0002:00001b38       ??_C@_0BE@LCIGPJIG@MATLAB?55?40?5MAT?9file@ 1006eb38     rt_logging.obj
 0002:00001b50       ??_C@_0FB@PCJEAJIB@?$CK?$CK?$CK?5Log?5variable?5?$CFs?5has?5wrapped@ 1006eb50     rt_logging.obj
 0002:00001bb8       ??_C@_0MG@NKMLMOGF@?$CK?$CK?$CK?5To?5avoid?5wrapping?0?5explicit@ 1006ebb8     rt_logging.obj
 0002:00001ca8       ??_C@_0N@IPAEOLLP@_rtw_tmw?4tmw@ 1006eca8     rt_logging.obj
 0002:00001cb8       ??_C@_04HDOCAJNK@?$CFs?$CFs@ 1006ecb8     rt_logging.obj
 0002:00001cc0       ??_C@_03ELIABIOC@w?$CLb@   1006ecc0     rt_logging.obj
 0002:00001cc4       ??_C@_0BF@JPILDDFA@?$CK?$CK?$CK?5Error?5opening?5?$CFs@ 1006ecc4     rt_logging.obj
 0002:00001ce0       ??_C@_0BK@EEMDELA@unable?5to?5open?5data?5file?6@ 1006ece0     rt_logging.obj
 0002:00001d00       ??_C@_04CGFJFPFD@none@     1006ed00     rt_logging.obj
 0002:00001d08       ??_C@_0EE@LCGFPNON@?$CK?$CK?$CK?5Error?5creating?5signals?5stru@ 1006ed08     rt_logging.obj
 0002:00001d5c       ??_C@_0CE@NHECEDMK@?$CK?$CK?$CK?5Error?5creating?5log?5variable@ 1006ed5c     rt_logging.obj
 0002:00001d88       ??_C@_0DB@IOCGKAGH@?$CK?$CK?$CK?5Errors?5occurred?5when?5starti@ 1006ed88     rt_logging.obj
 0002:00001dc4       ??_C@_0BO@BBLOGEBK@?$CK?$CK?$CK?5Memory?5allocation?5error?4?6@ 1006edc4     rt_logging.obj
 0002:00001de8       ??_C@_0N@LGFBAGEL@?5?$CIreal?5part?$CJ@ 1006ede8     rt_logging.obj
 0002:00001df8       ??_C@_0KH@CGNMHNFE@?5?5?5?5varName?5?5?5?5?5?5?5?5?5?5?$DN?5?$CFs?$CFs?6?5?5?5@ 1006edf8     rt_logging.obj
 0002:00001ec0       ??_C@_0LE@OALKKEFM@?5?5?5?5varName?5?5?5?5?5?5?5?5?5?5?$DN?5?$CFs?5?$CIcomp@ 1006eec0     rt_logging.obj
 0002:00001f98       ??_C@_0KF@JDDLEOKO@?5?5?5?5varName?5?5?5?5?5?5?5?5?5?5?$DN?5?$CFs?6?5?5?5?5n@ 1006ef98     rt_logging.obj
 0002:00002060       ??_C@_0CH@CBMJDKEA@Could?5not?5allocate?5memory?5for?5l@ 1006f060     rt_logging.obj
 0002:00002090       ??_C@_04IBEKCEIE@?$CFs?4?6@ 1006f090     rt_logging.obj
 0002:00002098       ??_C@_0DP@HPDMIOFM@?$CK?$CK?$CK?5Using?5a?5default?5buffer?5of?5s@ 1006f098     rt_logging.obj
 0002:000020e8       ??_C@_0KE@JEFOLKNF@?6?$CK?$CK?$CK?5Memory?5required?5to?5log?5var@ 1006f0e8     rt_logging.obj
 0002:000021b0       ??_C@_0JP@DKLMHCBI@?$CK?$CK?$CK?5Details?3?6?5?5?5?5?5?5?5varName?5?5?5?5@ 1006f1b0     rt_logging.obj
 0002:00002270       ??_C@_0CM@CAMILBED@?$CK?$CK?$CK?5Error?5allocating?5memory?5for@ 1006f270     rt_logging.obj
 0002:000022a4       ??_C@_0DF@BBCNMOPM@?$CK?$CK?$CK?5Error?5allocating?5memory?5for@ 1006f2a4     rt_logging.obj
 0002:000022e8       ??_C@_0JP@DBCLPCCI@?$CK?$CK?$CK?5Details?3?6?5?5?5?5?5?5?5varName?5?5?5?5@ 1006f2e8     rt_logging.obj
 0002:000023a8       ??_C@_0FK@DPGAOBGA@?$CK?$CK?$CK?5Error?5allocating?5memory?5for@ 1006f3a8     rt_logging.obj
 0002:00002414       ??_C@_0BI@GGDNPHLJ@?$CK?$CK?$CK?5Error?5writing?5to?5?$CFs@ 1006f414     rt_logging.obj
 0002:00002430       ??_C@_0CB@IBGJGELG@?$CK?$CK?$CK?5Error?5writing?5?$CFs?5due?5to?3?5?$CFs@ 1006f430     rt_logging.obj
 0002:00002458       ??_C@_0CN@FLMCHCPB@?$CK?$CK?$CK?5Error?5writing?5log?5variable?5@ 1006f458     rt_logging.obj
 0002:00002490       ??_C@_0DH@GAJCNOJP@?$CK?$CK?$CK?5Error?5writing?5structure?5log@ 1006f490     rt_logging.obj
 0002:000024d4       ??_C@_0BD@POEALECL@?$CK?$CK?5created?5?$CFs?5?$CK?$CK?6?6@ 1006f4d4     rt_logging.obj
 0002:000024f0       __real@4020000000000000    1006f4f0     rt_logging.obj
 0002:00002500       __real@41dfffffffc00000    1006f500     rt_logging.obj
 0002:00002510       __real@41efffffffe00000    1006f510     rt_logging.obj
 0002:00002520       __real@4330000000000000    1006f520     rt_logging.obj
 0002:00002530       __real@8000000000000000    1006f530     rt_logging.obj
 0002:00002540       __real@bfbf9add3afd2773    1006f540     rt_logging.obj
 0002:00002550       __real@bff0000000000000    1006f550     rt_logging.obj
 0002:00002560       __real@c000000000000000    1006f560     rt_logging.obj
 0002:00002570       __xmm@20202020202020202020202020202020 1006f570     rt_logging.obj
 0002:00002590       __xmm@41f00000000000000000000000000000 1006f590     rt_logging.obj
 0002:000025a4       _Ethernet_M                1006f5a4     Ethernet.obj
 0002:000025a8       ??_C@_0BC@OJJPBDHH@FixedStepDiscrete@ 1006f5a8     Ethernet.obj
 0002:000025c0       ??_C@_04EPKDLPPB@tout@     1006f5c0     Ethernet.obj
 0002:000025c8       ??_C@_03HBFGMJOD@rt_@      1006f5c8     Ethernet.obj
 0002:000025cc       ??_C@_0O@IGJILCBD@UDP?5Configure@ 1006f5cc     Ethernet.obj
 0002:000025dc       ??_C@_0CA@OKENJFMB@Ethernet?1Ethernet?1UDP?5Configure@ 1006f5dc     Ethernet.obj
 0002:00002604       ??_C@_09NDBPCEMO@UDP?5Send1@ 1006f604     Ethernet.obj
 0002:00002610       ??_C@_0BM@NOFKEFCO@Ethernet?1Ethernet?1UDP?5Send1@ 1006f610     Ethernet.obj
 0002:00002638       __real@3f50624dd2f1a9fc    1006f638     Ethernet.obj
 0002:00002648       __real@402c000000000000    1006f648     Ethernet.obj
 0002:00002658       __real@40f0000000000000    1006f658     Ethernet.obj
 0002:00002668       __real@41f0000000000000    1006f668     Ethernet.obj
 0002:00002680       __xmm@00000000000000003f50624dd2f1a9fc 1006f680     Ethernet.obj
 0002:000026a0       __xmm@000000630000000a0000000d00000001 1006f6a0     Ethernet.obj
 0002:000026c0       __xmm@80000000000000008000000000000000 1006f6c0     Ethernet.obj
 0002:00002d1c       ??_C@_0BO@BOBJFBGE@Ethernet?1Data?5Type?5Conversion@ 1006fd1c     Ethernet_capi.obj
 0002:00002d40       ??_C@_0BP@IMJMLLKC@Ethernet?1Data?5Type?5Conversion1@ 1006fd40     Ethernet_capi.obj
 0002:00002d68       ??_C@_0BI@MDHFGBHG@Ethernet?1Byte?5Packing?52@ 1006fd68     Ethernet_capi.obj
 0002:00002d84       ??_C@_0BI@KHBJKEHC@Ethernet?1Byte?5Packing?56@ 1006fd84     Ethernet_capi.obj
 0002:00002da0       ??_C@_0BI@LOACJFDD@Ethernet?1Byte?5Packing?57@ 1006fda0     Ethernet_capi.obj
 0002:00002dbc       ??_C@_0BE@JLEHNDCD@Ethernet?1Sine?5Wave1@ 1006fdbc     Ethernet_capi.obj
 0002:00002dd4       ??_C@_0BE@PPCLBGCH@Ethernet?1Sine?5Wave5@ 1006fdd4     Ethernet_capi.obj
 0002:00002dec       ??_C@_0BE@NEAGEFOE@Ethernet?1Sine?5Wave6@ 1006fdec     Ethernet_capi.obj
 0002:00002e04       ??_C@_0BA@NGOAKFFO@Ethernet?1Width1@ 1006fe04     Ethernet_capi.obj
 0002:00002e18       ??_C@_0BH@OMHJFAPO@Ethernet?1UDP?5Configure@ 1006fe18     Ethernet_capi.obj
 0002:00002e34       ??_C@_02KKFPAPOP@P1@       1006fe34     Ethernet_capi.obj
 0002:00002e38       ??_C@_02IBHCFMCM@P2@       1006fe38     Ethernet_capi.obj
 0002:00002e3c       ??_C@_02JIGJGNGN@P3@       1006fe3c     Ethernet_capi.obj
 0002:00002e40       ??_C@_02MODDMKOL@P5@       1006fe40     Ethernet_capi.obj
 0002:00002e44       ??_C@_02HLJNLEKG@P8@       1006fe44     Ethernet_capi.obj
 0002:00002e48       ??_C@_02GCIGIFOH@P9@       1006fe48     Ethernet_capi.obj
 0002:00002e4c       ??_C@_03OPFJJGBF@P10@      1006fe4c     Ethernet_capi.obj
 0002:00002e50       ??_C@_03PGECKHFE@P11@      1006fe50     Ethernet_capi.obj
 0002:00002e54       ??_C@_03NNGPPEJH@P12@      1006fe54     Ethernet_capi.obj
 0002:00002e58       ??_C@_0BD@EFFKPGEJ@Ethernet?1UDP?5Send1@ 1006fe58     Ethernet_capi.obj
 0002:00002e70       ??_C@_02NHCIPLKK@P4@       1006fe70     Ethernet_capi.obj
 0002:00002e74       ??_C@_02OFBOJJCI@P6@       1006fe74     Ethernet_capi.obj
 0002:00002e78       ??_C@_09IHLJOMI@Amplitude@ 1006fe78     Ethernet_capi.obj
 0002:00002e84       ??_C@_04BAMHDAGA@Bias@     1006fe84     Ethernet_capi.obj
 0002:00002e8c       ??_C@_09OGDICNME@Frequency@ 1006fe8c     Ethernet_capi.obj
 0002:00002e98       ??_C@_04HKKJCGFH@SinH@     1006fe98     Ethernet_capi.obj
 0002:00002ea0       ??_C@_04CLNMNOCK@CosH@     1006fea0     Ethernet_capi.obj
 0002:00002ea8       ??_C@_06EAKBABMB@SinPhi@   1006fea8     Ethernet_capi.obj
 0002:00002eb0       ??_C@_06GJFGCNCB@CosPhi@   1006feb0     Ethernet_capi.obj
 0002:00002eb8       ??_C@_03JBIPMCLC@int@      1006feb8     Ethernet_capi.obj
 0002:00002ebc       ??_C@_07BLNHOAMI@int32_T@  1006febc     Ethernet_capi.obj
 0002:00002ec8       ??_C@_05BFKKPKCG@short@    1006fec8     Ethernet_capi.obj
 0002:00002ed0       ??_C@_07OOHFCEPP@int16_T@  1006fed0     Ethernet_capi.obj
 0002:00002edc       ??_C@_0O@PPAIJIHF@unsigned?5char@ 1006fedc     Ethernet_capi.obj
 0002:00002eec       ??_C@_07NCEHLPOC@uint8_T@  1006feec     Ethernet_capi.obj
 0002:00002ef8       ??_C@_06BNJCAIGJ@double@   1006fef8     Ethernet_capi.obj
 0002:00002f00       ??_C@_06CNMIJIPB@real_T@   1006ff00     Ethernet_capi.obj
 0002:00002f08       ??_C@_05KNFBNCOH@float@    1006ff08     Ethernet_capi.obj
 0002:00002f10       ??_C@_0DL@PGGFBBLM@Error?3?5task?5ID?5?$CFd?5is?5out?5of?5ran@ 1006ff10     Ethernet_xcp_TET.obj
 0002:00002f58       __real@3e112e0be826d695    1006ff58     Ethernet_xcp_TET.obj
 0002:00002f68       __real@3f847ae147ae147b    1006ff68     Ethernet_xcp_TET.obj
 0002:00002f78       __real@3fefae147ae147ae    1006ff78     Ethernet_xcp_TET.obj
 0002:00002f84       __real@7f800000            1006ff84     rtGetInf.obj
 0002:00002f88       __real@ff800000            1006ff88     rtGetInf.obj
 0002:00002f8c       __real@ffc00000            1006ff8c     rtGetNaN.obj
 0002:00002f90       _serialfifoground          1006ff90     xpc_datatype_ground.obj
 0002:00002f9c       _bcmsg1553ground           1006ff9c     xpc_datatype_ground.obj
 0002:00002fac       _bcstatground              1006ffac     xpc_datatype_ground.obj
 0002:00002fc4       _bmmsg1553ground           1006ffc4     xpc_datatype_ground.obj
 0002:00003000       ??_C@_0BI@INNPNFJN@Memory?5Allocation?5Error@ 10070000     rtw_modelmap_utils.obj
 0002:0000301c       ??_C@_06JFOKFOED@CSTATE@   1007001c     rtw_modelmap_utils.obj
 0002:00003024       ??_C@_06FAENGAMN@DSTATE@   10070024     rtw_modelmap_utils.obj
 0002:0000302c       ??_C@_0CC@HOBPNJNM@Error?5getting?5board?5configurati@ 1007002c     slrtIPConfig.obj
 0002:00003054       ??_C@_0CB@NBMNJKGH@Error?5?$CFs?5initializing?5interface@ 10070054     slrtIPConfig.obj
 0002:0000307c       ??_C@_0DP@MDFBBNI@Ethernet?5interface?5not?5found?5at@ 1007007c     slrtIPConfig.obj
 0002:000030c8       ??_C@_0DI@FKJBEKGI@Device?5at?5PCI?5Bus?3?$CFd?5Slot?3?$CFd?5Fu@ 100700c8     slrtIPConfig.obj
 0002:0000310c       ??_C@_0DE@CBCIHBDI@Error?5setting?5IP?5address?0?5inter@ 1007010c     slrtIPConfig.obj
 0002:0000314c       ??_C@_0BM@CGPFMAHK@Error?5?$CFd?5setting?5IP?5address@ 1007014c     slrtIPConfig.obj
 0002:00003170       ??_C@_0EK@BBEACNDD@IP?5address?5already?5in?5use?5for?5c@ 10070170     slrtIPConfig.obj
 0002:000031c8       ??_C@_0EH@FMJBALDK@Subnet?5already?5in?5use?5for?5commu@ 100701c8     slrtIPConfig.obj
 0002:00003220       ??_C@_0BI@JGFKGBGL@Invalid?5gateway?5address@ 10070220     slrtIPConfig.obj
 0002:0000323c       ??_C@_0BM@EPGFEMO@Error?5?$CFs?5setting?5IP?5address@ 1007023c     slrtIPConfig.obj
 0002:00003260       ??_C@_0CF@JGOPHNAL@Invalid?5multicast?5IP?5address?5or@ 10070260     slrtIPConfig.obj
 0002:0000328c       ??_C@_0CA@MMGIOPJH@Error?5?$CFs?5adding?5multicast?5route@ 1007028c     slrtIPConfig.obj
 0002:000032b4       ??_C@_0BJ@EOBAMGKI@Error?5closing?5device?3?5?$CFs@ 100702b4     slrtIPConfig.obj
 0002:000032d8       __real@0000000000000000    100702d8     slrtIPConfig.obj
 0002:000032e4       ??_C@_0CJ@GAKAOIGG@Data?5port?5width?5exceeds?5maximum@ 100702e4     slrtUDPSend.obj
 0002:00003318       ??_C@_0BJ@DMMKJICG@UDP?5Initialize?5error?3?5?$CFs@ 10070318     slrtUDPSend.obj
 0002:00003338       ??_C@_0BF@CNHBOFGC@UDP?5Initialize?5error@ 10070338     slrtUDPSend.obj
 0002:00003354       ??_C@_0DI@ICMDLECJ@Route?5to?5?$CFs?5is?5not?5available?0?5n@ 10070354     slrtUDPSend.obj
 0002:00003398       ??_C@_0BJ@JMOBKMKG@Warning?3?5block?5?8?$CFs?8?3?5?$CFs?6@ 10070398     slrtUDPSend.obj
 0002:000033b8       ??_C@_0BD@KCHFJACO@UDP?5send?5error?3?5?$CFs@ 100703b8     slrtUDPSend.obj
 0002:000033d0       ??_C@_0BK@EBKJELMI@maxfunc?5?$DN?5?$CFd?5at?5?$FL?$CFd?0?5?$CFd?$FN?6@ 100703d0     xpcruntime:xpcimports.obj
 0002:000033f0       ??_C@_0CC@DMFKNLL@VendorId?5?$DN?50x?$CFx?0?5DeviceId?5?$DN?50x?$CF@ 100703f0     xpcruntime:xpcimports.obj
 0002:00003418       ??_C@_0DH@OHCBLNMG@Subsystem?5Device?5ID?5?$DN?50x?$CFx?6Subs@ 10070418     xpcruntime:xpcimports.obj
 0002:0000345c       ??_C@_0BD@MMMMEFCM@Class?5Code?5?$DN?50x?$CFx?6@ 1007045c     xpcruntime:xpcimports.obj
 0002:00003474       ??_C@_0BE@OLDDDNHM@InterruptLine?5?$DN?5?$CFd?6@ 10070474     xpcruntime:xpcimports.obj
 0002:0000348c       ??_C@_0CE@IBMFFAPN@bus?5?$DN?5?$CFd?0?5slot?5?$DN?5?$CFd?0?5function?5?$DN@ 1007048c     xpcruntime:xpcimports.obj
 0002:000034b8       ??_C@_0CE@DGLLGDFH@?5?5?5?5Phys?5?5?5Virtual?5?5?5Length?5IO?1@ 100704b8     xpcruntime:xpcimports.obj
 0002:000034e4       ??_C@_0BI@FEOPLEMG@?$CF08x?5?$CF08x?5?$CF08x?5?5?5?5?5?5?$CFc?6@ 100704e4     xpcruntime:xpcimports.obj
 0002:00003500       ??_C@_0BB@BNNCEDPC@rl32eScopeExists@ 10070500     xpcruntime:xpcimports.obj
 0002:00003514       ??_C@_0BM@FJBFEGFG@rl32eScopeExists?5not?5found?6@ 10070514     xpcruntime:xpcimports.obj
 0002:00003538       ??_C@_0O@BNNGKJEA@rl32eDefScope@ 10070538     xpcruntime:xpcimports.obj
 0002:00003548       ??_C@_0BJ@CDNOENKA@rl32eDefScope?5not?5found?6@ 10070548     xpcruntime:xpcimports.obj
 0002:00003568       ??_C@_0P@CKNKILDP@rl32eAddSignal@ 10070568     xpcruntime:xpcimports.obj
 0002:0000357c       ??_C@_0BK@GMJAJBAI@rl32eAddSignal?5not?5found?6@ 1007057c     xpcruntime:xpcimports.obj
 0002:0000359c       ??_C@_0BB@LDMIHGCE@rl32eGetSignalNo@ 1007059c     xpcruntime:xpcimports.obj
 0002:000035b0       ??_C@_0BM@LGAMBAID@rl32eGetSignalNo?5not?5found?6@ 100705b0     xpcruntime:xpcimports.obj
 0002:000035d4       ??_C@_0O@CFDGALBP@rl32eSetScope@ 100705d4     xpcruntime:xpcimports.obj
 0002:000035e4       ??_C@_0BJ@JCLHHIN@rl32eSetScope?5not?5found?6@ 100705e4     xpcruntime:xpcimports.obj
 0002:00003604       ??_C@_0P@IKMCBMHH@xpceFSScopeSet@ 10070604     xpcruntime:xpcimports.obj
 0002:00003618       ??_C@_0BK@JODJPNNH@xpceFSScopeSet?5not?5found?6@ 10070618     xpcruntime:xpcimports.obj
 0002:00003638       ??_C@_0BE@DLACEEJM@rl32eSetTargetScope@ 10070638     xpcruntime:xpcimports.obj
 0002:00003650       ??_C@_0BP@JCHFMKPJ@rl32eSetTargetScope?5not?5found?6@ 10070650     xpcruntime:xpcimports.obj
 0002:00003678       ??_C@_0BJ@LIDLNDHC@rl32eSetTargetScopeSigFt@ 10070678     xpcruntime:xpcimports.obj
 0002:00003698       ??_C@_0CE@JLGHCFHI@rl32eSetTargetScopeSigFt?5not?5fo@ 10070698     xpcruntime:xpcimports.obj
 0002:000036c4       ??_C@_0BI@JAPOIDNG@rl32eRestartAcquisition@ 100706c4     xpcruntime:xpcimports.obj
 0002:000036e0       ??_C@_0CD@LLBEFFBO@rl32eRestartAcquisition?5not?5fou@ 100706e0     xpcruntime:xpcimports.obj
 0002:0000370c       ??_C@_0P@IEIIADJB@xpceScopeAcqOK@ 1007070c     xpcruntime:xpcimports.obj
 0002:00003720       ??_C@_0BK@NJCKNFPN@xpceScopeAcqOK?5not?5found?6@ 10070720     xpcruntime:xpcimports.obj
 0002:00003740       ??_C@_0BA@IJINKAHF@xpceRegisterISR@ 10070740     xpcruntime:xpcimports.obj
 0002:00003754       ??_C@_0BL@NNDLOEJE@xpceRegisterISR?5not?5found?6@ 10070754     xpcruntime:xpcimports.obj
 0002:00003774       ??_C@_0BC@NLBADGKF@xpceDeRegisterISR@ 10070774     xpcruntime:xpcimports.obj
 0002:0000378c       ??_C@_0BN@DCAIKFFD@xpceDeRegisterISR?5not?5found?6@ 1007078c     xpcruntime:xpcimports.obj
 0002:000037b0       ??_C@_07JPMEPILD@xpcInpB@  100707b0     xpcruntime:xpcimports.obj
 0002:000037bc       ??_C@_0BD@PGABEJOL@xpcInpB?5not?5found?6@ 100707bc     xpcruntime:xpcimports.obj
 0002:000037d4       ??_C@_07KIHBBOKH@xpcInpW@  100707d4     xpcruntime:xpcimports.obj
 0002:000037e0       ??_C@_0BD@FPCJFMCC@xpcInpW?5not?5found?6@ 100707e0     xpcruntime:xpcimports.obj
 0002:000037f8       ??_C@_08KDIAJBOP@xpcInpDW@ 100707f8     xpcruntime:xpcimports.obj
 0002:00003804       ??_C@_0BE@PIELDNIL@xpcInpDW?5not?5found?6@ 10070804     xpcruntime:xpcimports.obj
 0002:0000381c       ??_C@_08PJFMOIGO@xpcOutpB@ 1007081c     xpcruntime:xpcimports.obj
 0002:00003828       ??_C@_0BE@HCKNCEKF@xpcOutpB?5not?5found?6@ 10070828     xpcruntime:xpcimports.obj
 0002:00003840       ??_C@_08MOOJAOHK@xpcOutpW@ 10070840     xpcruntime:xpcimports.obj
 0002:0000384c       ??_C@_0BE@NLIFDBGM@xpcOutpW?5not?5found?6@ 1007084c     xpcruntime:xpcimports.obj
 0002:00003864       ??_C@_09FLIEKHJG@xpcOutpDW@ 10070864     xpcruntime:xpcimports.obj
 0002:00003870       ??_C@_0BF@GJKLPNHB@xpcOutpDW?5not?5found?6@ 10070870     xpcruntime:xpcimports.obj
 0002:0000388c       ??_C@_0BH@EHOLELHH@xpcReserveMemoryRegion@ 1007088c     xpcruntime:xpcimports.obj
 0002:000038a8       ??_C@_0CC@KAAAGPI@xpcReserveMemoryRegion?5not?5foun@ 100708a8     xpcruntime:xpcimports.obj
 0002:000038d0       ??_C@_0BA@JGPMHGAF@rl32eShowPCIDev@ 100708d0     xpcruntime:xpcimports.obj
 0002:000038e4       ??_C@_0BL@DDFFLNHI@rl32eShowPCIDev?5not?5found?6@ 100708e4     xpcruntime:xpcimports.obj
 0002:00003904       ??_C@_0BB@KBCOJPFB@rl32eShowPCIInfo@ 10070904     xpcruntime:xpcimports.obj
 0002:00003918       ??_C@_0BM@IFDMAGLO@rl32eShowPCIInfo?5not?5found?6@ 10070918     xpcruntime:xpcimports.obj
 0002:0000393c       ??_C@_0BA@BGPAADB@rl32eGetPCIInfo@ 1007093c     xpcruntime:xpcimports.obj
 0002:00003950       ??_C@_0BL@IGOMLDCK@rl32eGetPCIInfo?5not?5found?6@ 10070950     xpcruntime:xpcimports.obj
 0002:00003970       ??_C@_0BG@NJPFKFDP@rl32eGetPCIInfoAtSlot@ 10070970     xpcruntime:xpcimports.obj
 0002:0000398c       ??_C@_0CB@BBKIPMLA@rl32eGetPCIInfoAtSlot?5not?5found@ 1007098c     xpcruntime:xpcimports.obj
 0002:000039b4       ??_C@_0BH@OKBOPNFG@xpceAssignPCIInterrupt@ 100709b4     xpcruntime:xpcimports.obj
 0002:000039d0       ??_C@_0CC@CDNDNJBJ@xpceAssignPCIInterrupt?5not?5foun@ 100709d0     xpcruntime:xpcimports.obj
 0002:000039f8       ??_C@_0BD@PCKOKHO@xpceGetSignalValue@ 100709f8     xpcruntime:xpcimports.obj
 0002:00003a10       ??_C@_0BO@GCBDJHMB@xpceGetSignalValue?5not?5found?6@ 10070a10     xpcruntime:xpcimports.obj
 0002:00003a34       ??_C@_0BB@BJONJAGA@xpceSetParameter@ 10070a34     xpcruntime:xpcimports.obj
 0002:00003a48       ??_C@_0BM@BJIKDLHA@xpceSetParameter?5not?5found?6@ 10070a48     xpcruntime:xpcimports.obj
 0002:00003a6c       ??_C@_0BB@GNFDFMCM@xpceGetParameter@ 10070a6c     xpcruntime:xpcimports.obj
 0002:00003a80       ??_C@_0BM@POHNKBC@xpceGetParameter?5not?5found?6@ 10070a80     xpcruntime:xpcimports.obj
 0002:00003aa4       ??_C@_0BB@CEIJLFCD@xpceGetParamDims@ 10070aa4     xpcruntime:xpcimports.obj
 0002:00003ab8       ??_C@_0BM@OABDBKAO@xpceGetParamDims?5not?5found?6@ 10070ab8     xpcruntime:xpcimports.obj
 0002:00003adc       ??_C@_0L@OCBLLHBM@xpceGetTET@ 10070adc     xpcruntime:xpcimports.obj
 0002:00003aec       ??_C@_0BG@HNOFBOB@xpceGetTET?5not?5found?6@ 10070aec     xpcruntime:xpcimports.obj
 0002:00003b08       ??_C@_0P@OKGNGAGH@xpcIsModelInit@ 10070b08     xpcruntime:xpcimports.obj
 0002:00003b1c       ??_C@_0BK@DHEMLBIM@xpcIsModelInit?5not?5found?6@ 10070b1c     xpcruntime:xpcimports.obj
 0002:00003b3c       ??_C@_0BH@KJJLCAOJ@xpcAllocPhysicalMemory@ 10070b3c     xpcruntime:xpcimports.obj
 0002:00003b58       ??_C@_0CC@MOJPNHKL@xpcAllocPhysicalMemory?5not?5foun@ 10070b58     xpcruntime:xpcimports.obj
 0002:00003b80       ??_C@_0BG@CBNPGAEL@xpcFreePhysicalMemory@ 10070b80     xpcruntime:xpcimports.obj
 0002:00003b9c       ??_C@_0CB@PKJEBPOG@xpcFreePhysicalMemory?5not?5found@ 10070b9c     xpcruntime:xpcimports.obj
 0002:00003bc4       ??_C@_0BC@JGKNLICL@xpcGetElapsedTime@ 10070bc4     xpcruntime:xpcimports.obj
 0002:00003bdc       ??_C@_0BN@OEOAHCIO@xpcGetElapsedTime?5not?5found?6@ 10070bdc     xpcruntime:xpcimports.obj
 0002:00003c00       ??_C@_0M@ICBLMODA@xpcBusyWait@ 10070c00     xpcruntime:xpcimports.obj
 0002:00003c10       ??_C@_0BH@FBOPECBI@xpcBusyWait?5not?5found?6@ 10070c10     xpcruntime:xpcimports.obj
 0002:00003c2c       ??_C@_0N@LKKJEKKA@TBCreateSpin@ 10070c2c     xpcruntime:xpcimports.obj
 0002:00003c3c       ??_C@_0BI@FHKMLKOE@TBCreateSpin?5not?5found?6@ 10070c3c     xpcruntime:xpcimports.obj
 0002:00003c58       ??_C@_0N@HOAJHNBD@TBDeleteSpin@ 10070c58     xpcruntime:xpcimports.obj
 0002:00003c68       ??_C@_0BI@BKCPAAG@TBDeleteSpin?5not?5found?6@ 10070c68     xpcruntime:xpcimports.obj
 0002:00003c84       ??_C@_0P@DAHDDBJG@TBTakeSpinFast@ 10070c84     xpcruntime:xpcimports.obj
 0002:00003c98       ??_C@_0BK@NKAIBHGB@TBTakeSpinFast?5not?5found?6@ 10070c98     xpcruntime:xpcimports.obj
 0002:00003cb8       ??_C@_0P@FKNAAELA@TBGiveSpinFast@ 10070cb8     xpcruntime:xpcimports.obj
 0002:00003ccc       ??_C@_0BK@KGPJBJND@TBGiveSpinFast?5not?5found?6@ 10070ccc     xpcruntime:xpcimports.obj
 0002:00003cec       ??_C@_0BE@IIGBFDHK@xpceCreateSemaphore@ 10070cec     xpcruntime:xpcimports.obj
 0002:00003d04       ??_C@_0BP@KFBAFFKJ@xpceCreateSemaphore?5not?5found?6@ 10070d04     xpcruntime:xpcimports.obj
 0002:00003d2c       ??_C@_0BC@IFNIONKJ@xpceWaitSemaphore@ 10070d2c     xpcruntime:xpcimports.obj
 0002:00003d44       ??_C@_0BN@NMFAADIO@xpceWaitSemaphore?5not?5found?6@ 10070d44     xpcruntime:xpcimports.obj
 0002:00003d68       ??_C@_0BE@NNDIOBKE@xpceSignalSemaphore@ 10070d68     xpcruntime:xpcimports.obj
 0002:00003d80       ??_C@_0BP@LBANMHJP@xpceSignalSemaphore?5not?5found?6@ 10070d80     xpcruntime:xpcimports.obj
 0002:00003da8       ??_C@_0BE@MEBEKOIM@xpceDeleteSemaphore@ 10070da8     xpcruntime:xpcimports.obj
 0002:00003dc0       ??_C@_0BP@OFNCKOJH@xpceDeleteSemaphore?5not?5found?6@ 10070dc0     xpcruntime:xpcimports.obj
 0002:00003de8       ??_C@_0BD@MFNDMBOF@FindUsbVideoDevice@ 10070de8     xpcruntime:xpcimports.obj
 0002:00003e00       ??_C@_0BO@POKLDHMI@FindUsbVideoDevice?5not?5found?6@ 10070e00     xpcruntime:xpcimports.obj
 0002:00003e24       ??_C@_0BA@PLPAPNAB@GetVideoConfigs@ 10070e24     xpcruntime:xpcimports.obj
 0002:00003e38       ??_C@_0BL@DALDHKHC@GetVideoConfigs?5not?5found?6@ 10070e38     xpcruntime:xpcimports.obj
 0002:00003e58       ??_C@_0L@GBAEMHMH@StartVideo@ 10070e58     xpcruntime:xpcimports.obj
 0002:00003e68       ??_C@_0BG@HDCELEBP@StartVideo?5not?5found?6@ 10070e68     xpcruntime:xpcimports.obj
 0002:00003e84       ??_C@_0BA@FDNPOCLN@ReadFrameBuffer@ 10070e84     xpcruntime:xpcimports.obj
 0002:00003e98       ??_C@_0BL@JHGHPNBI@ReadFrameBuffer?5not?5found?6@ 10070e98     xpcruntime:xpcimports.obj
 0002:00003eb8       ??_C@_09FAHCLKAG@StopVideo@ 10070eb8     xpcruntime:xpcimports.obj
 0002:00003ec4       ??_C@_0BF@NKGKKADL@StopVideo?5not?5found?6@ 10070ec4     xpcruntime:xpcimports.obj
 0002:00003ee0       ??_C@_0O@MCPKDLLL@ConvertUImage@ 10070ee0     xpcruntime:xpcimports.obj
 0002:00003ef0       ??_C@_0BJ@PHJKOAFL@ConvertUImage?5not?5found?6@ 10070ef0     xpcruntime:xpcimports.obj
 0002:00003f10       ??_C@_0BD@NKCBPBJJ@CreateVideoDisplay@ 10070f10     xpcruntime:xpcimports.obj
 0002:00003f28       ??_C@_0BO@HPPLLNFP@CreateVideoDisplay?5not?5found?6@ 10070f28     xpcruntime:xpcimports.obj
 0002:00003f4c       ??_C@_0BE@KJCKGPHA@DestroyVideoDisplay@ 10070f4c     xpcruntime:xpcimports.obj
 0002:00003f64       ??_C@_0BP@FMGLJAIJ@DestroyVideoDisplay?5not?5found?6@ 10070f64     xpcruntime:xpcimports.obj
 0002:00003f8c       ??_C@_0BC@HCMIMIDN@StartVideoDisplay@ 10070f8c     xpcruntime:xpcimports.obj
 0002:00003fa4       ??_C@_0BN@EFIEBGOO@StartVideoDisplay?5not?5found?6@ 10070fa4     xpcruntime:xpcimports.obj
 0002:00003fc8       ??_C@_0BB@JBBLMILG@StopVideoDisplay@ 10070fc8     xpcruntime:xpcimports.obj
 0002:00003fdc       ??_C@_0BM@DBJBPLEL@StopVideoDisplay?5not?5found?6@ 10070fdc     xpcruntime:xpcimports.obj
 0002:00004000       ??_C@_0M@MFJEGMHC@StreamVideo@ 10071000     xpcruntime:xpcimports.obj
 0002:00004010       ??_C@_0BH@OINCDMLA@StreamVideo?5not?5found?6@ 10071010     xpcruntime:xpcimports.obj
 0002:0000402c       ??_C@_0N@IGGLCIGE@xpceaddEvent@ 1007102c     xpcruntime:xpcimports.obj
 0002:0000403c       ??_C@_0BI@NHJNFMKH@xpceaddEvent?5not?5found?6@ 1007103c     xpcruntime:xpcimports.obj
 0002:00004058       ??_C@_0BC@MLJODBHJ@slrtStartProfiler@ 10071058     xpcruntime:xpcimports.obj
 0002:00004070       ??_C@_0BN@HLNCOKA@slrtStartProfiler?5not?5found?6@ 10071070     xpcruntime:xpcimports.obj
 0002:00004094       ??_C@_0BB@ONJONMCD@slrtStopProfiler@ 10071094     xpcruntime:xpcimports.obj
 0002:000040a8       ??_C@_0BM@GAKJEGBA@slrtStopProfiler?5not?5found?6@ 100710a8     xpcruntime:xpcimports.obj
 0002:000040cc       ??_C@_0BF@EILBHBBF@slrtGetProfilerState@ 100710cc     xpcruntime:xpcimports.obj
 0002:000040e8       ??_C@_0CA@EDDFOCLE@slrtGetProfilerState?5not?5found?6@ 100710e8     xpcruntime:xpcimports.obj
 0002:00004110       ??_C@_0BB@HDPOIJAB@xpceDAQPostEvent@ 10071110     xpcruntime:xpcimports.obj
 0002:00004124       ??_C@_0BM@IHANBKGN@xpceDAQPostEvent?5not?5found?6@ 10071124     xpcruntime:xpcimports.obj
 0002:00004148       ??_C@_0BH@MBACMOD@xpceDAQUpdateTimeStamp@ 10071148     xpcruntime:xpcimports.obj
 0002:00004164       ??_C@_0CC@DAKBBINL@xpceDAQUpdateTimeStamp?5not?5foun@ 10071164     xpcruntime:xpcimports.obj
 0002:0000418c       ??_C@_0BD@HLALHPHI@slrtRegisterSignal@ 1007118c     xpcruntime:xpcimports.obj
 0002:000041a4       ??_C@_0BO@BALEBHKF@slrtRegisterSignal?5not?5found?6@ 100711a4     xpcruntime:xpcimports.obj
 0002:000041c8       ??_C@_0O@DKILEOIJ@slrtLogSignal@ 100711c8     xpcruntime:xpcimports.obj
 0002:000041d8       ??_C@_0BJ@FMKKIEDD@slrtLogSignal?5not?5found?6@ 100711d8     xpcruntime:xpcimports.obj
 0002:000041f8       ??_C@_0BG@CCHICKPN@slrteSetStepSizeDelta@ 100711f8     xpcruntime:xpcimports.obj
 0002:00004214       ??_C@_0CB@MKHINEIJ@slrteSetStepSizeDelta?5not?5found@ 10071214     xpcruntime:xpcimports.obj
 0002:0000423c       ??_C@_0BI@CLNBLDKJ@slrteGetCurrentStepSize@ 1007123c     xpcruntime:xpcimports.obj
 0002:00004258       ??_C@_0CD@GIOJPGJA@slrteGetCurrentStepSize?5not?5fou@ 10071258     xpcruntime:xpcimports.obj
 0002:00004284       ??_C@_0BE@FCLCBOC@registerPTPTimeRead@ 10071284     xpcruntime:xpcimports.obj
 0002:0000429c       ??_C@_0BP@LHPKAJIP@registerPTPTimeRead?5not?5found?6@ 1007129c     xpcruntime:xpcimports.obj
 0002:000042c4       ??_C@_0BG@KIGCDDJI@unRegisterPTPTimeRead@ 100712c4     xpcruntime:xpcimports.obj
 0002:000042e0       ??_C@_0CB@MLFFBFCM@unRegisterPTPTimeRead?5not?5found@ 100712e0     xpcruntime:xpcimports.obj
 0002:00004308       ??_C@_0BB@IPMDDBHK@slTestInitialize@ 10071308     xpcruntime:xpcimports.obj
 0002:0000431c       ??_C@_0BM@LAJFCCJH@slTestInitialize?5not?5found?6@ 1007131c     xpcruntime:xpcimports.obj
 0002:00004340       ??_C@_0BF@OOMPMEBC@slTestLogAssessments@ 10071340     xpcruntime:xpcimports.obj
 0002:0000435c       ??_C@_0CA@FGJCEBAG@slTestLogAssessments?5not?5found?6@ 1007135c     xpcruntime:xpcimports.obj
 0002:00004384       ??_C@_0BB@HJHKONHO@slTestEvalOnFail@ 10071384     xpcruntime:xpcimports.obj
 0002:00004398       ??_C@_0BM@JIKCFFNJ@slTestEvalOnFail?5not?5found?6@ 10071398     xpcruntime:xpcimports.obj
 0002:000043bc       ??_C@_0BA@LBHLABFP@slTestTerminate@ 100713bc     xpcruntime:xpcimports.obj
 0002:000043d0       ??_C@_0BL@EMFGKAPA@slTestTerminate?5not?5found?6@ 100713d0     xpcruntime:xpcimports.obj
 0002:000043f0       ??_C@_0BE@JPNPBBEO@slTestRegAssessment@ 100713f0     xpcruntime:xpcimports.obj
 0002:00004408       ??_C@_0BP@FBDEJJJH@slTestRegAssessment?5not?5found?6@ 10071408     xpcruntime:xpcimports.obj
 0002:00004430       ??_C@_0O@NCLGDNIB@slrteSetupMSI@ 10071430     xpcruntime:xpcimports.obj
 0002:00004440       ??_C@_0BJ@HEFMECLM@slrteSetupMSI?5not?5found?6@ 10071440     xpcruntime:xpcimports.obj
 0002:00004460       ??_C@_0BH@BPOLALHD@slrtGetCRBScratchSpace@ 10071460     xpcruntime:xpcimports.obj
 0002:0000447c       ??_C@_0CC@KCKAJKKJ@slrtGetCRBScratchSpace?5not?5foun@ 1007147c     xpcruntime:xpcimports.obj
 0002:000044a4       ??_C@_0BC@MKFDAKOL@slrtGetSgCRBSpace@ 100714a4     xpcruntime:xpcimports.obj
 0002:000044bc       ??_C@_0BN@JDPHPLHL@slrtGetSgCRBSpace?5not?5found?6@ 100714bc     xpcruntime:xpcimports.obj
 0002:000044e0       ??_C@_0P@EPAPKLIF@slrtfsOpenFile@ 100714e0     xpcruntime:xpcimports.obj
 0002:000044f4       ??_C@_0BK@FIHCBOHG@slrtfsOpenFile?5not?5found?6@ 100714f4     xpcruntime:xpcimports.obj
 0002:00004514       ??_C@_0BA@LILAFDDL@slrtfsCloseFile@ 10071514     xpcruntime:xpcimports.obj
 0002:00004528       ??_C@_0BL@DEGHJFIB@slrtfsCloseFile?5not?5found?6@ 10071528     xpcruntime:xpcimports.obj
 0002:00004548       ??_C@_0BC@OKMJDIEH@slrtfsWriteToFile@ 10071548     xpcruntime:xpcimports.obj
 0002:00004560       ??_C@_0BN@KCFLCLAH@slrtfsWriteToFile?5not?5found?6@ 10071560     xpcruntime:xpcimports.obj
 0002:00004584       ??_C@_0BK@GIPNFFFF@slrtfsGetFileErrorMessage@ 10071584     xpcruntime:xpcimports.obj
 0002:000045a4       ??_C@_0CF@BCBLMKLE@slrtfsGetFileErrorMessage?5not?5f@ 100715a4     xpcruntime:xpcimports.obj
 0002:000045d0       ??_C@_0BD@ICBOKMK@slrtfsGetFileError@ 100715d0     xpcruntime:xpcimports.obj
 0002:000045e8       ??_C@_0BO@FNBANAE@slrtfsGetFileError?5not?5found?6@ 100715e8     xpcruntime:xpcimports.obj
 0002:0000460c       ??_C@_0BE@PPAJMHJP@slrtfsOpenFileAsync@ 1007160c     xpcruntime:xpcimports.obj
 0002:00004624       ??_C@_0BP@HKBMMJOK@slrtfsOpenFileAsync?5not?5found?6@ 10071624     xpcruntime:xpcimports.obj
 0002:0000464c       ??_C@_0BF@IGNDIBPF@slrtfsCloseFileAsync@ 1007164c     xpcruntime:xpcimports.obj
 0002:00004668       ??_C@_0CA@GJPFDBKN@slrtfsCloseFileAsync?5not?5found?6@ 10071668     xpcruntime:xpcimports.obj
 0002:00004690       ??_C@_0BE@IOLEBNB@slrtfsGetFileStatus@ 10071690     xpcruntime:xpcimports.obj
 0002:000046a8       ??_C@_0BP@PEFHDGHL@slrtfsGetFileStatus?5not?5found?6@ 100716a8     xpcruntime:xpcimports.obj
 0002:000046d0       ??_C@_0M@HKIJIMG@slrtfsFread@ 100716d0     xpcruntime:xpcimports.obj
 0002:000046e0       ??_C@_0BH@OOKBGONO@slrtfsFread?5not?5found?6@ 100716e0     xpcruntime:xpcimports.obj
 0002:000046fc       ??_C@_0BE@OGCMPLAP@slrtGetDefaultDrive@ 100716fc     xpcruntime:xpcimports.obj
 0002:00004714       ??_C@_0BP@HKFGLHOE@slrtGetDefaultDrive?5not?5found?6@ 10071714     xpcruntime:xpcimports.obj
 0002:0000473c       ??_C@_0N@NAJIKFFI@slrtLogEvent@ 1007173c     xpcruntime:xpcimports.obj
 0002:0000474c       ??_C@_0BI@NKCEACND@slrtLogEvent?5not?5found?6@ 1007174c     xpcruntime:xpcimports.obj
 0002:00004768       ??_C@_0N@IDKFJOHI@getlasterror@ 10071768     xpcruntime:xpcimports.obj
 0002:00004778       ??_C@_0BI@MIHMCHGL@getlasterror?5not?5found?6@ 10071778     xpcruntime:xpcimports.obj
 0002:00004794       ??_C@_0P@OKHGKJKN@geterrorstring@ 10071794     xpcruntime:xpcimports.obj
 0002:000047a8       ??_C@_0BK@NOHFDMLP@geterrorstring?5not?5found?6@ 100717a8     xpcruntime:xpcimports.obj
 0002:000047c8       ??_C@_0BD@HNFFKMGJ@slrtGetCPUTCelsius@ 100717c8     xpcruntime:xpcimports.obj
 0002:000047e0       ??_C@_0BO@LHBFKLIH@slrtGetCPUTCelsius?5not?5found?6@ 100717e0     xpcruntime:xpcimports.obj
 0002:00004804       ??_C@_0M@OONCNCLM@slrtWarning@ 10071804     xpcruntime:xpcimports.obj
 0002:00004814       ??_C@_0BH@ICKGIEMB@slrtWarning?5not?5found?6@ 10071814     xpcruntime:xpcimports.obj
 0002:00004830       ??_C@_0M@JACEPOPN@registerNIC@ 10071830     xpcruntime:xpcimports.obj
 0002:00004840       ??_C@_0BH@JMDHJIAC@registerNIC?5not?5found?6@ 10071840     xpcruntime:xpcimports.obj
 0002:0000485c       ??_C@_0M@KBKHECFH@NICSetIface@ 1007185c     xpcruntime:xpcimports.obj
 0002:0000486c       ??_C@_0BH@NJAHOBA@NICSetIface?5not?5found?6@ 1007186c     xpcruntime:xpcimports.obj
 0002:00004888       ??_C@_0M@FAILFBCK@NICGetIface@ 10071888     xpcruntime:xpcimports.obj
 0002:00004898       ??_C@_0BH@KDLLDOGM@NICGetIface?5not?5found?6@ 10071898     xpcruntime:xpcimports.obj
 0002:000048b4       ??_C@_0L@JNFPDPO@releaseNIC@ 100718b4     xpcruntime:xpcimports.obj
 0002:000048c4       ??_C@_0BG@EBGJANLA@releaseNIC?5not?5found?6@ 100718c4     xpcruntime:xpcimports.obj
 0002:000048e0       ??_C@_0BC@HLDKJAG@SetIPTASKPriority@ 100718e0     xpcruntime:xpcimports.obj
 0002:000048f8       ??_C@_0BN@OGKMHHAE@SetIPTASKPriority?5not?5found?6@ 100718f8     xpcruntime:xpcimports.obj
 0002:0000491c       ??_C@_0O@LHENMBDD@OpenInterface@ 1007191c     xpcruntime:xpcimports.obj
 0002:0000492c       ??_C@_0BJ@PFGDBKHB@OpenInterface?5not?5found?6@ 1007192c     xpcruntime:xpcimports.obj
 0002:0000494c       ??_C@_0P@IINFELKD@CloseInterface@ 1007194c     xpcruntime:xpcimports.obj
 0002:00004960       ??_C@_0BK@PAPDNDBK@CloseInterface?5not?5found?6@ 10071960     xpcruntime:xpcimports.obj
 0002:00004980       ??_C@_05LEFIAAOI@SetIP@    10071980     xpcruntime:xpcimports.obj
 0002:00004988       ??_C@_0BB@CGLIBAMM@SetIP?5not?5found?6@ 10071988     xpcruntime:xpcimports.obj
 0002:0000499c       ??_C@_0BA@HIJJHHMD@AddGatewayRoute@ 1007199c     xpcruntime:xpcimports.obj
 0002:000049b0       ??_C@_0BL@BFCFMDMN@AddGatewayRoute?5not?5found?6@ 100719b0     xpcruntime:xpcimports.obj
 0002:000049d0       ??_C@_0BC@OGIEOMEH@AddMulticastRoute@ 100719d0     xpcruntime:xpcimports.obj
 0002:000049e8       ??_C@_0BN@IMNDPFCL@AddMulticastRoute?5not?5found?6@ 100719e8     xpcruntime:xpcimports.obj
 0002:00004a0c       ??_C@_0M@PHMABFPI@DeleteRoute@ 10071a0c     xpcruntime:xpcimports.obj
 0002:00004a1c       ??_C@_0BH@JPJGLLID@DeleteRoute?5not?5found?6@ 10071a1c     xpcruntime:xpcimports.obj
 0002:00004a38       ??_C@_0BA@FCDIMKIJ@GetHostTarIPAdd@ 10071a38     xpcruntime:xpcimports.obj
 0002:00004a4c       ??_C@_0BL@MBKDGKBO@GetHostTarIPAdd?5not?5found?6@ 10071a4c     xpcruntime:xpcimports.obj
 0002:00004a6c       ??_C@_0M@HPMIPIBI@GetDCUUsage@ 10071a6c     xpcruntime:xpcimports.obj
 0002:00004a7c       ??_C@_0BH@EBLJKCJC@GetDCUUsage?5not?5found?6@ 10071a7c     xpcruntime:xpcimports.obj
 0002:00004a98       ??_C@_09PCFJFKEK@NICGetMac@ 10071a98     xpcruntime:xpcimports.obj
 0002:00004aa4       ??_C@_0BF@NJBGNKON@NICGetMac?5not?5found?6@ 10071aa4     xpcruntime:xpcimports.obj
 0002:00004ac0       ??_C@_0BC@NMGIOALA@GetHostTarNICInfo@ 10071ac0     xpcruntime:xpcimports.obj
 0002:00004ad8       ??_C@_0BN@POBIFKAA@GetHostTarNICInfo?5not?5found?6@ 10071ad8     xpcruntime:xpcimports.obj
 0002:00004afc       ??_C@_06MPKMECK@accept@    10071afc     xpcruntime:xpcimports.obj
 0002:00004b04       ??_C@_0BC@GBGIEMNO@accept?5not?5found?6@ 10071b04     xpcruntime:xpcimports.obj
 0002:00004b1c       ??_C@_04NPNJNMMP@bind@     10071b1c     xpcruntime:xpcimports.obj
 0002:00004b24       ??_C@_0BA@DAJNENLO@bind?5not?5found?6@ 10071b24     xpcruntime:xpcimports.obj
 0002:00004b38       ??_C@_0L@CKHNIFCM@setsockopt@ 10071b38     xpcruntime:xpcimports.obj
 0002:00004b48       ??_C@_0BG@MFIIOMFE@setsockopt?5not?5found?6@ 10071b48     xpcruntime:xpcimports.obj
 0002:00004b64       ??_C@_0M@ODDJDCDK@closesocket@ 10071b64     xpcruntime:xpcimports.obj
 0002:00004b74       ??_C@_0BH@JHGHMIL@closesocket?5not?5found?6@ 10071b74     xpcruntime:xpcimports.obj
 0002:00004b90       ??_C@_07KAIBNCHO@connect@  10071b90     xpcruntime:xpcimports.obj
 0002:00004b9c       ??_C@_0BD@MKLLMBM@connect?5not?5found?6@ 10071b9c     xpcruntime:xpcimports.obj
 0002:00004bb4       ??_C@_0M@PBPOCKDG@ioctlsocket@ 10071bb4     xpcruntime:xpcimports.obj
 0002:00004bc4       ??_C@_0BH@NFCNHHIH@ioctlsocket?5not?5found?6@ 10071bc4     xpcruntime:xpcimports.obj
 0002:00004be0       ??_C@_06OODDLKLE@listen@   10071be0     xpcruntime:xpcimports.obj
 0002:00004be8       ??_C@_0BC@NHBILEKI@listen?5not?5found?6@ 10071be8     xpcruntime:xpcimports.obj
 0002:00004c00       ??_C@_08HMBBGFHE@recvfrom@ 10071c00     xpcruntime:xpcimports.obj
 0002:00004c0c       ??_C@_0BE@BJAJFFLF@recvfrom?5not?5found?6@ 10071c0c     xpcruntime:xpcimports.obj
 0002:00004c24       ??_C@_06MEPBGKEC@sendto@   10071c24     xpcruntime:xpcimports.obj
 0002:00004c2c       ??_C@_0BC@BHPIMDJO@sendto?5not?5found?6@ 10071c2c     xpcruntime:xpcimports.obj
 0002:00004c44       ??_C@_09JKBDEEOB@inet_addr@ 10071c44     xpcruntime:xpcimports.obj
 0002:00004c50       ??_C@_0BF@HKJPGECN@inet_addr?5not?5found?6@ 10071c50     xpcruntime:xpcimports.obj
 0002:00004c6c       ??_C@_06HBELJPBO@socket@   10071c6c     xpcruntime:xpcimports.obj
 0002:00004c74       ??_C@_0BC@NAGFFJGA@socket?5not?5found?6@ 10071c74     xpcruntime:xpcimports.obj
 0002:00004c8c       ??_C@_09ICJIFGNC@GetSocket@ 10071c8c     xpcruntime:xpcimports.obj
 0002:00004c98       ??_C@_0BF@KDBCKMOJ@GetSocket?5not?5found?6@ 10071c98     xpcruntime:xpcimports.obj
 0002:00004cb4       ??_C@_0P@KJEGJMJI@GetSocketState@ 10071cb4     xpcruntime:xpcimports.obj
 0002:00004cc8       ??_C@_0BK@IALBJHEB@GetSocketState?5not?5found?6@ 10071cc8     xpcruntime:xpcimports.obj
 0002:00004ce8       ??_C@_0L@MEAJHNHB@SocketSend@ 10071ce8     xpcruntime:xpcimports.obj
 0002:00004cf8       ??_C@_0BG@EOCMBFJA@SocketSend?5not?5found?6@ 10071cf8     xpcruntime:xpcimports.obj
 0002:00004d14       ??_C@_0O@PFPCLEMF@SocketReceive@ 10071d14     xpcruntime:xpcimports.obj
 0002:00004d24       ??_C@_0BJ@HIBADDFO@SocketReceive?5not?5found?6@ 10071d24     xpcruntime:xpcimports.obj
 0002:00004d44       ??_C@_0BD@OOGFNAIK@CreateServerSocket@ 10071d44     xpcruntime:xpcimports.obj
 0002:00004d5c       ??_C@_0BO@GKIJHIPH@CreateServerSocket?5not?5found?6@ 10071d5c     xpcruntime:xpcimports.obj
 0002:00004d80       ??_C@_0BB@KGHJGFFO@OpenServerListen@ 10071d80     xpcruntime:xpcimports.obj
 0002:00004d94       ??_C@_0BM@NFMMLIO@OpenServerListen?5not?5found?6@ 10071d94     xpcruntime:xpcimports.obj
 0002:00004db8       ??_C@_0BE@BAJLDJAH@ConnectServerSocket@ 10071db8     xpcruntime:xpcimports.obj
 0002:00004dd0       ??_C@_0BP@KJNODIKE@ConnectServerSocket?5not?5found?6@ 10071dd0     xpcruntime:xpcimports.obj
 0002:00004df8       ??_C@_0BC@PLKKJDIM@CloseServerSocket@ 10071df8     xpcruntime:xpcimports.obj
 0002:00004e10       ??_C@_0BN@KEJEPNMB@CloseServerSocket?5not?5found?6@ 10071e10     xpcruntime:xpcimports.obj
 0002:00004e34       ??_C@_0BC@IHMNIGFJ@ResetServerSocket@ 10071e34     xpcruntime:xpcimports.obj
 0002:00004e4c       ??_C@_0BN@NIOGJLCG@ResetServerSocket?5not?5found?6@ 10071e4c     xpcruntime:xpcimports.obj
 0002:00004e70       ??_C@_0BD@MCLPKCPP@CreateClientSocket@ 10071e70     xpcruntime:xpcimports.obj
 0002:00004e88       ??_C@_0BO@DILAGPFN@CreateClientSocket?5not?5found?6@ 10071e88     xpcruntime:xpcimports.obj
 0002:00004eac       ??_C@_0BB@DAPKNNLG@BindClientSocket@ 10071eac     xpcruntime:xpcimports.obj
 0002:00004ec0       ??_C@_0BM@LLLMMDFN@BindClientSocket?5not?5found?6@ 10071ec0     xpcruntime:xpcimports.obj
 0002:00004ee4       ??_C@_0BE@DMEBELHC@ConnectClientSocket@ 10071ee4     xpcruntime:xpcimports.obj
 0002:00004efc       ??_C@_0BP@PLOHCPAO@ConnectClientSocket?5not?5found?6@ 10071efc     xpcruntime:xpcimports.obj
 0002:00004f24       ??_C@_0BC@NHHAOBPJ@CloseClientSocket@ 10071f24     xpcruntime:xpcimports.obj
 0002:00004f3c       ??_C@_0BN@PGKNOKGL@CloseClientSocket?5not?5found?6@ 10071f3c     xpcruntime:xpcimports.obj
 0002:00004f60       ??_C@_0BC@KLBHPECM@ResetClientSocket@ 10071f60     xpcruntime:xpcimports.obj
 0002:00004f78       ??_C@_0BN@IKNPIMIM@ResetClientSocket?5not?5found?6@ 10071f78     xpcruntime:xpcimports.obj
 0002:00004f9c       ??_C@_0M@IJOPFCCE@UDPOpenSend@ 10071f9c     xpcruntime:xpcimports.obj
 0002:00004fac       ??_C@_0BH@CCHBDPG@UDPOpenSend?5not?5found?6@ 10071fac     xpcruntime:xpcimports.obj
 0002:00004fc8       ??_C@_0P@MEPACHPD@UDPOpenReceive@ 10071fc8     xpcruntime:xpcimports.obj
 0002:00004fdc       ??_C@_0BK@PFMCPKIO@UDPOpenReceive?5not?5found?6@ 10071fdc     xpcruntime:xpcimports.obj
 0002:00004ffc       ??_C@_0BK@BGNLEHGA@UDPAddMulticastMembership@ 10071ffc     xpcruntime:xpcimports.obj
 0002:0000501c       ??_C@_0CF@CAEMAELE@UDPAddMulticastMembership?5not?5f@ 1007201c     xpcruntime:xpcimports.obj
 0002:00005048       ??_C@_0N@NMMOLOEM@UDPCloseSend@ 10072048     xpcruntime:xpcimports.obj
 0002:00005058       ??_C@_0BI@ENKCOCDG@UDPCloseSend?5not?5found?6@ 10072058     xpcruntime:xpcimports.obj
 0002:00005074       ??_C@_0BA@DMJGBBIA@UDPCloseReceive@ 10072074     xpcruntime:xpcimports.obj
 0002:00005088       ??_C@_0BL@PEBIMLNC@UDPCloseReceive?5not?5found?6@ 10072088     xpcruntime:xpcimports.obj
 0002:000050a8       ??_C@_0BI@JGCAAKMN@UDPGetSocketFromAddress@ 100720a8     xpcruntime:xpcimports.obj
 0002:000050c4       ??_C@_0CD@DGHJKHHG@UDPGetSocketFromAddress?5not?5fou@ 100720c4     xpcruntime:xpcimports.obj
 0002:000050f0       ??_C@_0BA@FDNJFNAB@UDPGetSocketNum@ 100720f0     xpcruntime:xpcimports.obj
 0002:00005104       ??_C@_0BL@MOBBLIGC@UDPGetSocketNum?5not?5found?6@ 10072104     xpcruntime:xpcimports.obj
 0002:00005124       ??_C@_0N@LACABHBB@UDPSendToAdd@ 10072124     xpcruntime:xpcimports.obj
 0002:00005134       ??_C@_0BI@NOHFLMID@UDPSendToAdd?5not?5found?6@ 10072134     xpcruntime:xpcimports.obj
 0002:00005150       ??_C@_0BD@FIMKKOMF@UDPReceiveMessages@ 10072150     xpcruntime:xpcimports.obj
 0002:00005168       ??_C@_0BO@OMDNLCOI@UDPReceiveMessages?5not?5found?6@ 10072168     xpcruntime:xpcimports.obj
 0002:0000518c       ??_C@_0P@NPOCJKPL@registerDFTask@ 1007218c     xpcruntime:xpcimports.obj
 0002:000051a0       ??_C@_0BK@JHOOFMMI@registerDFTask?5not?5found?6@ 100721a0     xpcruntime:xpcimports.obj
 0002:000051c0       ??_C@_0BB@ICCLEIPB@deregisterDFTask@ 100721c0     xpcruntime:xpcimports.obj
 0002:000051d4       ??_C@_0BM@PEOCAIDM@deregisterDFTask?5not?5found?6@ 100721d4     xpcruntime:xpcimports.obj
 0002:000051f8       ??_C@_0O@PHHDMOJH@triggerDFTask@ 100721f8     xpcruntime:xpcimports.obj
 0002:00005208       ??_C@_0BJ@IKKCFBJL@triggerDFTask?5not?5found?6@ 10072208     xpcruntime:xpcimports.obj
 0002:00005228       ??_C@_0O@IAHKGBOC@waitForDFTask@ 10072228     xpcruntime:xpcimports.obj
 0002:00005238       ??_C@_0BJ@FHLCNAKE@waitForDFTask?5not?5found?6@ 10072238     xpcruntime:xpcimports.obj
 0002:00005258       ??_C@_0BJ@OHGBPDPO@readFromG29SteeringWheel@ 10072258     xpcruntime:xpcimports.obj
 0002:00005278       ??_C@_0CE@MCLLKLHC@readFromG29SteeringWheel?5not?5fo@ 10072278     xpcruntime:xpcimports.obj
 0002:000052a4       ??_C@_0BK@CEGFMIME@FlushG29SteeringWheelPipe@ 100722a4     xpcruntime:xpcimports.obj
 0002:000052c4       ??_C@_0CF@DBKINAPN@FlushG29SteeringWheelPipe?5not?5f@ 100722c4     xpcruntime:xpcimports.obj
 0002:000052f0       ??_C@_0BJ@NAOGGIIH@startIOWG29SteeringWheel@ 100722f0     xpcruntime:xpcimports.obj
 0002:00005310       ??_C@_0CE@PDKDIDPI@startIOWG29SteeringWheel?5not?5fo@ 10072310     xpcruntime:xpcimports.obj
 0002:0000533c       ??_C@_0BP@MFOLHHD@getG29SteeringWheelKernelState@ 1007233c     xpcruntime:xpcimports.obj
 0002:00005364       ??_C@_0CK@MGKNECAE@getG29SteeringWheelKernelState?5@ 10072364     xpcruntime:xpcimports.obj
 0002:00005398       ??_C@_0BH@HJGMIIBP@configureSteeringWheel@ 10072398     xpcruntime:xpcimports.obj
 0002:000053b4       ??_C@_0CC@OBOMOIOO@configureSteeringWheel?5not?5foun@ 100723b4     xpcruntime:xpcimports.obj
 0002:000053dc       ??_C@_0N@FPLGJCLM@ptpConfigure@ 100723dc     xpcruntime:xpcimports.obj
 0002:000053ec       ??_C@_0BI@HMPIFPA@ptpConfigure?5not?5found?6@ 100723ec     xpcruntime:xpcimports.obj
 0002:00005408       ??_C@_0M@LBOBMHKM@ptpReadTime@ 10072408     xpcruntime:xpcimports.obj
 0002:00005418       ??_C@_0BH@HGGNBHNL@ptpReadTime?5not?5found?6@ 10072418     xpcruntime:xpcimports.obj
 0002:00005434       ??_C@_0L@CEPHDEHE@ptpSetTime@ 10072434     xpcruntime:xpcimports.obj
 0002:00005444       ??_C@_0BG@IADAKINB@ptpSetTime?5not?5found?6@ 10072444     xpcruntime:xpcimports.obj
 0002:00005460       ??_C@_0O@JLNHBNNP@ptpGetTxStamp@ 10072460     xpcruntime:xpcimports.obj
 0002:00005470       ??_C@_0BJ@GMADPLGP@ptpGetTxStamp?5not?5found?6@ 10072470     xpcruntime:xpcimports.obj
 0002:00005490       ??_C@_0O@FNLIBEFI@ptpGetRxStamp@ 10072490     xpcruntime:xpcimports.obj
 0002:000054a0       ??_C@_0BJ@PBNPPAHM@ptpGetRxStamp?5not?5found?6@ 100724a0     xpcruntime:xpcimports.obj
 0002:000054c0       ??_C@_0L@DIEHPIOM@ptpAdjFreq@ 100724c0     xpcruntime:xpcimports.obj
 0002:000054d0       ??_C@_0BG@OCBHLCBG@ptpAdjFreq?5not?5found?6@ 100724d0     xpcruntime:xpcimports.obj
 0002:000054ec       ??_C@_0L@IFMCGKHN@ptpAdjTime@ 100724ec     xpcruntime:xpcimports.obj
 0002:000054fc       ??_C@_0BG@FOOBECCA@ptpAdjTime?5not?5found?6@ 100724fc     xpcruntime:xpcimports.obj
 0002:00005518       ??_C@_0BC@ODGPLINC@ptpGetRxStampAttr@ 10072518     xpcruntime:xpcimports.obj
 0002:00005530       ??_C@_0BN@GEOPJPFN@ptpGetRxStampAttr?5not?5found?6@ 10072530     xpcruntime:xpcimports.obj
 0002:00005554       ??_C@_0O@PNFKKBAH@ptpGetTiminca@ 10072554     xpcruntime:xpcimports.obj
 0002:00005564       ??_C@_0BJ@MMMLNHAC@ptpGetTiminca?5not?5found?6@ 10072564     xpcruntime:xpcimports.obj
 0002:00005584       ??_C@_0N@LLDOJFJK@ptpGetTimAdj@ 10072584     xpcruntime:xpcimports.obj
 0002:00005594       ??_C@_0BI@FBCNFCNB@ptpGetTimAdj?5not?5found?6@ 10072594     xpcruntime:xpcimports.obj
 0002:000055b0       ??_C@_07NCNCDPME@ptpStop@  100725b0     xpcruntime:xpcimports.obj
 0002:000055bc       ??_C@_0BD@NGDJPHIE@ptpStop?5not?5found?6@ 100725bc     xpcruntime:xpcimports.obj
 0002:00005608       __pRawDllMain              10072608     LIBCMT:dll_dllmain.obj
 0002:00005608       __pDefaultRawDllMain       10072608     LIBCMT:dll_dllmain.obj
 0002:0000560c       __pDestructExceptionObject 1007260c     libvcruntime:ehhelpers.obj
 0002:00005a44       ??_C@_08EHJDFFNH@__based?$CI@ 10072a44     libvcruntime:undname.obj
 0002:00005a50       ??_C@_07KOLFKCDI@__cdecl@  10072a50     libvcruntime:undname.obj
 0002:00005a5c       ??_C@_08GHMPAG@__pascal@   10072a5c     libvcruntime:undname.obj
 0002:00005a68       ??_C@_09IFJBGAPI@__stdcall@ 10072a68     libvcruntime:undname.obj
 0002:00005a74       ??_C@_0L@NPHFGOKO@__thiscall@ 10072a74     libvcruntime:undname.obj
 0002:00005a84       ??_C@_0L@JMKHOMEK@__fastcall@ 10072a84     libvcruntime:undname.obj
 0002:00005a94       ??_C@_0N@BCKKPABJ@__vectorcall@ 10072a94     libvcruntime:undname.obj
 0002:00005aa4       ??_C@_09HIJEGCPM@__clrcall@ 10072aa4     libvcruntime:undname.obj
 0002:00005ab0       ??_C@_06GHPCKEAG@__eabi@   10072ab0     libvcruntime:undname.obj
 0002:00005ab8       ??_C@_09IOPIDJLG@__swift_1@ 10072ab8     libvcruntime:undname.obj
 0002:00005ac4       ??_C@_09KFNFGKHF@__swift_2@ 10072ac4     libvcruntime:undname.obj
 0002:00005ad0       ??_C@_07JOMMBBKO@__ptr64@  10072ad0     libvcruntime:undname.obj
 0002:00005adc       ??_C@_0L@PILCLIHE@__restrict@ 10072adc     libvcruntime:undname.obj
 0002:00005aec       ??_C@_0M@GFIIJFMG@__unaligned@ 10072aec     libvcruntime:undname.obj
 0002:00005afc       ??_C@_09DHDLOLLB@restrict?$CI@ 10072afc     libvcruntime:undname.obj
 0002:00005b08       ??_C@_04NIHEBCM@?5new@     10072b08     libvcruntime:undname.obj
 0002:00005b10       ??_C@_07FPCDHGMM@?5delete@ 10072b10     libvcruntime:undname.obj
 0002:00005b1c       ??_C@_01NEMOKFLO@?$DN@     10072b1c     libvcruntime:undname.obj
 0002:00005b20       ??_C@_02GPIOPFAK@?$DO?$DO@ 10072b20     libvcruntime:undname.obj
 0002:00005b24       ??_C@_02FODMEDOG@?$DM?$DM@ 10072b24     libvcruntime:undname.obj
 0002:00005b28       ??_C@_01DCLJPIOD@?$CB@     10072b28     libvcruntime:undname.obj
 0002:00005b2c       ??_C@_02EGOFBIJA@?$DN?$DN@ 10072b2c     libvcruntime:undname.obj
 0002:00005b30       ??_C@_02FDNJECIE@?$CB?$DN@ 10072b30     libvcruntime:undname.obj
 0002:00005b34       ??_C@_02GPECMEKF@?$FL?$FN@ 10072b34     libvcruntime:undname.obj
 0002:00005b38       ??_C@_08LHJFAFGD@operator@ 10072b38     libvcruntime:undname.obj
 0002:00005b44       ??_C@_02HBOOOICD@?9?$DO@   10072b44     libvcruntime:undname.obj
 0002:00005b48       ??_C@_01NBENCBCI@?$CK@     10072b48     libvcruntime:undname.obj
 0002:00005b4c       ??_C@_02ECNGHCIF@?$CL?$CL@ 10072b4c     libvcruntime:undname.obj
 0002:00005b50       ??_C@_02BAABKJLB@?9?9@     10072b50     libvcruntime:undname.obj
 0002:00005b54       ??_C@_01JOAMLHOP@?9@       10072b54     libvcruntime:undname.obj
 0002:00005b58       ??_C@_01MIFGBAGJ@?$CL@     10072b58     libvcruntime:undname.obj
 0002:00005b5c       ??_C@_01HNPIGOCE@?$CG@     10072b5c     libvcruntime:undname.obj
 0002:00005b60       ??_C@_03MNHNFDLC@?9?$DO?$CK@ 10072b60     libvcruntime:undname.obj
 0002:00005b64       ??_C@_01KMDKNFGN@?1@       10072b64     libvcruntime:undname.obj
 0002:00005b68       ??_C@_01FGNFDNOH@?$CF@     10072b68     libvcruntime:undname.obj
 0002:00005b6c       ??_C@_01MNNFJEPP@?$DM@     10072b6c     libvcruntime:undname.obj
 0002:00005b70       ??_C@_02EHCHHCKH@?$DM?$DN@ 10072b70     libvcruntime:undname.obj
 0002:00005b74       ??_C@_01PPODPGHN@?$DO@     10072b74     libvcruntime:undname.obj
 0002:00005b78       ??_C@_02EEKDKGMJ@?$DO?$DN@ 10072b78     libvcruntime:undname.obj
 0002:00005b7c       ??_C@_01IHBHIGKO@?0@       10072b7c     libvcruntime:undname.obj
 0002:00005b80       ??_C@_02HCKGKOFO@?$CI?$CJ@ 10072b80     libvcruntime:undname.obj
 0002:00005b84       ??_C@_01PJKLJHI@?$HO@      10072b84     libvcruntime:undname.obj
 0002:00005b88       ??_C@_01JKBOJNNK@?$FO@     10072b88     libvcruntime:undname.obj
 0002:00005b8c       ??_C@_02PPKAJPJL@?$CG?$CG@ 10072b8c     libvcruntime:undname.obj
 0002:00005b90       ??_C@_02NONPIBCD@?$HM?$HM@ 10072b90     libvcruntime:undname.obj
 0002:00005b94       ??_C@_02FPIMKNGF@?$CK?$DN@ 10072b94     libvcruntime:undname.obj
 0002:00005b98       ??_C@_02FOEOMHFC@?$CL?$DN@ 10072b98     libvcruntime:undname.obj
 0002:00005b9c       ??_C@_02FKMDLLOA@?9?$DN@   10072b9c     libvcruntime:undname.obj
 0002:00005ba0       ??_C@_02FJEHGPIO@?1?$DN@   10072ba0     libvcruntime:undname.obj
 0002:00005ba4       ??_C@_02FENAOKFI@?$CF?$DN@ 10072ba4     libvcruntime:undname.obj
 0002:00005ba8       ??_C@_03IKFCCPFF@?$DO?$DO?$DN@ 10072ba8     libvcruntime:undname.obj
 0002:00005bac       ??_C@_03CDNPDDLA@?$DM?$DM?$DN@ 10072bac     libvcruntime:undname.obj
 0002:00005bb0       ??_C@_02FGJGFEAB@?$CG?$DN@ 10072bb0     libvcruntime:undname.obj
 0002:00005bb4       ??_C@_02DHLNPPGH@?$HM?$DN@ 10072bb4     libvcruntime:undname.obj
 0002:00005bb8       ??_C@_02MHEGNOJ@?$FO?$DN@  10072bb8     libvcruntime:undname.obj
 0002:00005bbc       ??_C@_09IFPLHPGF@?$GAvftable?8@ 10072bbc     libvcruntime:undname.obj
 0002:00005bc8       ??_C@_09BLBHBJP@?$GAvbtable?8@ 10072bc8     libvcruntime:undname.obj
 0002:00005bd4       ??_C@_07FEEIOKP@?$GAvcall?8@ 10072bd4     libvcruntime:undname.obj
 0002:00005be0       ??_C@_08LLFFHHDJ@?$GAtypeof?8@ 10072be0     libvcruntime:undname.obj
 0002:00005bec       ??_C@_0BF@KDPPACIK@?$GAlocal?5static?5guard?8@ 10072bec     libvcruntime:undname.obj
 0002:00005c08       ??_C@_08OBABFOLI@?$GAstring?8@ 10072c08     libvcruntime:undname.obj
 0002:00005c14       ??_C@_0BD@JDLKDPAB@?$GAvbase?5destructor?8@ 10072c14     libvcruntime:undname.obj
 0002:00005c2c       ??_C@_0BN@DEGPLNFK@?$GAvector?5deleting?5destructor?8@ 10072c2c     libvcruntime:undname.obj
 0002:00005c50       ??_C@_0BO@OBMKPJIG@?$GAdefault?5constructor?5closure?8@ 10072c50     libvcruntime:undname.obj
 0002:00005c74       ??_C@_0BN@IMDCHIKM@?$GAscalar?5deleting?5destructor?8@ 10072c74     libvcruntime:undname.obj
 0002:00005c98       ??_C@_0BO@PFGOCPJJ@?$GAvector?5constructor?5iterator?8@ 10072c98     libvcruntime:undname.obj
 0002:00005cbc       ??_C@_0BN@LFPFMEDL@?$GAvector?5destructor?5iterator?8@ 10072cbc     libvcruntime:undname.obj
 0002:00005ce0       ??_C@_0CE@IKBNEHA@?$GAvector?5vbase?5constructor?5itera@ 10072ce0     libvcruntime:undname.obj
 0002:00005d0c       ??_C@_0BL@NILFHHPC@?$GAvirtual?5displacement?5map?8@ 10072d0c     libvcruntime:undname.obj
 0002:00005d2c       ??_C@_0CB@JONCMFFK@?$GAeh?5vector?5constructor?5iterator@ 10072d2c     libvcruntime:undname.obj
 0002:00005d54       ??_C@_0CA@GCEOPDGL@?$GAeh?5vector?5destructor?5iterator?8@ 10072d54     libvcruntime:undname.obj
 0002:00005d7c       ??_C@_0CH@OOJPLCPH@?$GAeh?5vector?5vbase?5constructor?5it@ 10072d7c     libvcruntime:undname.obj
 0002:00005dac       ??_C@_0BL@LLKPOHJI@?$GAcopy?5constructor?5closure?8@ 10072dac     libvcruntime:undname.obj
 0002:00005dcc       ??_C@_0BA@KBCDOMBN@?$GAudt?5returning?8@ 10072dcc     libvcruntime:undname.obj
 0002:00005de0       ??_C@_03KLGMFNMG@?$GAEH@   10072de0     libvcruntime:undname.obj
 0002:00005de4       ??_C@_05KHLCHHI@?$GARTTI@  10072de4     libvcruntime:undname.obj
 0002:00005dec       ??_C@_0BA@KKLDJDLB@?$GAlocal?5vftable?8@ 10072dec     libvcruntime:undname.obj
 0002:00005e00       ??_C@_0CE@IIHCMGGL@?$GAlocal?5vftable?5constructor?5clos@ 10072e00     libvcruntime:undname.obj
 0002:00005e2c       ??_C@_06FHBGPFGH@?5new?$FL?$FN@ 10072e2c     libvcruntime:undname.obj
 0002:00005e34       ??_C@_09LBNFPBCA@?5delete?$FL?$FN@ 10072e34     libvcruntime:undname.obj
 0002:00005e40       ??_C@_0P@HJKNJFNN@?$GAomni?5callsig?8@ 10072e40     libvcruntime:undname.obj
 0002:00005e54       ??_C@_0BL@CNOONJFP@?$GAplacement?5delete?5closure?8@ 10072e54     libvcruntime:undname.obj
 0002:00005e74       ??_C@_0BN@CKNJLHMB@?$GAplacement?5delete?$FL?$FN?5closure?8@ 10072e74     libvcruntime:undname.obj
 0002:00005e98       ??_C@_0CG@CFDHKGGD@?$GAmanaged?5vector?5constructor?5ite@ 10072e98     libvcruntime:undname.obj
 0002:00005ec8       ??_C@_0CF@IMGKMJNO@?$GAmanaged?5vector?5destructor?5iter@ 10072ec8     libvcruntime:undname.obj
 0002:00005ef4       ??_C@_0CG@HLDDJMAG@?$GAeh?5vector?5copy?5constructor?5ite@ 10072ef4     libvcruntime:undname.obj
 0002:00005f24       ??_C@_0CM@FCBBDIGB@?$GAeh?5vector?5vbase?5copy?5construct@ 10072f24     libvcruntime:undname.obj
 0002:00005f58       ??_C@_0BL@CLIPGLGB@?$GAdynamic?5initializer?5for?5?8@ 10072f58     libvcruntime:undname.obj
 0002:00005f78       ??_C@_0CB@PDBIFEP@?$GAdynamic?5atexit?5destructor?5for?5@ 10072f78     libvcruntime:undname.obj
 0002:00005fa0       ??_C@_0CD@CGAJBKEJ@?$GAvector?5copy?5constructor?5iterat@ 10072fa0     libvcruntime:undname.obj
 0002:00005fcc       ??_C@_0CJ@GJELGAMM@?$GAvector?5vbase?5copy?5constructor?5@ 10072fcc     libvcruntime:undname.obj
 0002:00006000       ??_C@_0CL@FGIJHLCE@?$GAmanaged?5vector?5copy?5constructo@ 10073000     libvcruntime:undname.obj
 0002:00006034       ??_C@_0BM@PMGGMLDN@?$GAlocal?5static?5thread?5guard?8@ 10073034     libvcruntime:undname.obj
 0002:00006058       ??_C@_0N@BDNMDMOL@operator?5?$CC?$CC?5@ 10073058     libvcruntime:undname.obj
 0002:00006068       ??_C@_0BC@GGEBGALA@operator?5co_await@ 10073068     libvcruntime:undname.obj
 0002:00006080       ??_C@_0M@GAAIMMOH@operator?$DM?$DN?$DO@ 10073080     libvcruntime:undname.obj
 0002:00006090       ??_C@_0BC@DAFEJGAK@?5Type?5Descriptor?8@ 10073090     libvcruntime:undname.obj
 0002:000060a8       ??_C@_0BM@LDKODKLH@?5Base?5Class?5Descriptor?5at?5?$CI@ 100730a8     libvcruntime:undname.obj
 0002:000060cc       ??_C@_0BD@LGICGFMM@?5Base?5Class?5Array?8@ 100730cc     libvcruntime:undname.obj
 0002:000060e4       ??_C@_0BN@MECKDCOJ@?5Class?5Hierarchy?5Descriptor?8@ 100730e4     libvcruntime:undname.obj
 0002:00006108       ??_C@_0BK@CFCOFLF@?5Complete?5Object?5Locator?8@ 10073108     libvcruntime:undname.obj
 0002:00006128       ??_C@_0BG@JNJLAMPM@?$GAanonymous?5namespace?8@ 10073128     libvcruntime:undname.obj
 0002:00006144       ??_C@_04HEJADOOB@CV?3?5@   10073144     libvcruntime:undname.obj
 0002:0000614c       ??_C@_02MOLJINC@?3?3@      1007314c     libvcruntime:undname.obj
 0002:00006150       ??_C@_0BE@JAEOCHPE@template?9parameter?9@ 10073150     libvcruntime:undname.obj
 0002:00006168       ??_C@_0BF@LNLGBBNL@?$GAtemplate?9parameter?9@ 10073168     libvcruntime:undname.obj
 0002:00006184       ??_C@_0O@KHGCOMHP@generic?9type?9@ 10073184     libvcruntime:undname.obj
 0002:00006194       ??_C@_0P@ODDENDLM@?$GAgeneric?9type?9@ 10073194     libvcruntime:undname.obj
 0002:000061a8       ??_C@_02OHHJMEON@?8?8@     100731a8     libvcruntime:undname.obj
 0002:000061ac       ??_C@_0BN@IBLMMFAP@?$GAnon?9type?9template?9parameter@ 100731ac     libvcruntime:undname.obj
 0002:000061d0       ??_C@_03DLDNIBIK@?$CFlf@   100731d0     libvcruntime:undname.obj
 0002:000061d4       ??_C@_04OFALKAJ@?$DP?$DP_C@ 100731d4     libvcruntime:undname.obj
 0002:000061dc       ??_C@_03KHICJKCI@?4?4?4@   100731dc     libvcruntime:undname.obj
 0002:000061e0       ??_C@_04HIBGFPH@NULL@      100731e0     libvcruntime:undname.obj
 0002:000061e8       ??_C@_02DPKJAMEF@?$CFd@    100731e8     libvcruntime:undname.obj
 0002:000061ec       ??_C@_0BK@IHCCFNEL@?$GAtemplate?9type?9parameter?9@ 100731ec     libvcruntime:undname.obj
 0002:0000620c       ??_C@_0BK@OFCNNNKO@?$GAgeneric?9class?9parameter?9@ 1007320c     libvcruntime:undname.obj
 0002:0000622c       ??_C@_0BL@NGJBLFIL@?$GAgeneric?9method?9parameter?9@ 1007322c     libvcruntime:undname.obj
 0002:0000624c       ??_C@_04GKJNKENE@void@     1007324c     libvcruntime:undname.obj
 0002:00006254       ??_C@_0BE@EODMJLIF@?$GAtemplate?9parameter@ 10073254     libvcruntime:undname.obj
 0002:0000626c       ??_C@_03OPGICMGF@?$HN?8?5@ 1007326c     libvcruntime:undname.obj
 0002:00006270       ??_C@_02IGFCGPIL@?$HN?8@   10073270     libvcruntime:undname.obj
 0002:00006274       ??_C@_0N@CBHHHENL@?$GAvtordispex?$HL@ 10073274     libvcruntime:undname.obj
 0002:00006284       ??_C@_0L@GHPFDFH@?$GAvtordisp?$HL@ 10073284     libvcruntime:undname.obj
 0002:00006294       ??_C@_0L@HNGCOGAE@?$GAadjustor?$HL@ 10073294     libvcruntime:undname.obj
 0002:000062a4       ??_C@_0CB@KJDOOODE@?$GAlocal?5static?5destructor?5helper@ 100732a4     libvcruntime:undname.obj
 0002:000062cc       ??_C@_0DB@ILEFOCIJ@?$GAtemplate?5static?5data?5member?5co@ 100732cc     libvcruntime:undname.obj
 0002:00006308       ??_C@_0DA@HGFJFBBE@?$GAtemplate?5static?5data?5member?5de@ 10073308     libvcruntime:undname.obj
 0002:00006344       ??_C@_07PGOEDBHP@static?5@ 10073344     libvcruntime:undname.obj
 0002:00006350       ??_C@_08NIEOINHE@virtual?5@ 10073350     libvcruntime:undname.obj
 0002:0000635c       ??_C@_09LAPHOOG@private?3?5@ 1007335c     libvcruntime:undname.obj
 0002:00006368       ??_C@_0M@GAIFPFIP@protected?3?5@ 10073368     libvcruntime:undname.obj
 0002:00006378       ??_C@_08GPDDCMKI@public?3?5@ 10073378     libvcruntime:undname.obj
 0002:00006384       ??_C@_08KJLFOPNE@?$FLthunk?$FN?3@ 10073384     libvcruntime:undname.obj
 0002:00006390       ??_C@_0M@DHNBOJMP@extern?5?$CCC?$CC?5@ 10073390     libvcruntime:undname.obj
 0002:000063a0       ??_C@_02KCKGHPCA@?$CJ?5@   100733a0     libvcruntime:undname.obj
 0002:000063a4       ??_C@_05CIHEBHNO@char?5@   100733a4     libvcruntime:undname.obj
 0002:000063ac       ??_C@_06EHJMALKF@short?5@  100733ac     libvcruntime:undname.obj
 0002:000063b4       ??_C@_04LAHKHJMA@int?5@    100733b4     libvcruntime:undname.obj
 0002:000063bc       ??_C@_05CJIMAING@long?5@   100733bc     libvcruntime:undname.obj
 0002:000063c4       ??_C@_09EBBEKKIH@unsigned?5@ 100733c4     libvcruntime:undname.obj
 0002:000063d0       ??_C@_05BEFAKPML@void?5@   100733d0     libvcruntime:undname.obj
 0002:000063d8       ??_C@_09GAIEOBLP@volatile?5@ 100733d8     libvcruntime:undname.obj
 0002:000063e4       ??_C@_08PABEKFH@volatile@  100733e4     libvcruntime:undname.obj
 0002:000063f0       ??_C@_0BA@LKIJLKPP@std?3?3nullptr_t?5@ 100733f0     libvcruntime:undname.obj
 0002:00006404       ??_C@_0P@GCOCNKDM@std?3?3nullptr_t@ 10073404     libvcruntime:undname.obj
 0002:00006418       ??_C@_0L@EGPHHEKN@?$DMellipsis?$DO@ 10073418     libvcruntime:undname.obj
 0002:00006428       ??_C@_04EENFHACM@?0?4?4?4@ 10073428     libvcruntime:undname.obj
 0002:00006430       ??_C@_0M@ELJOJFFH@?0?$DMellipsis?$DO@ 10073430     libvcruntime:undname.obj
 0002:00006440       ??_C@_09DNHFEOJI@?5noexcept@ 10073440     libvcruntime:undname.obj
 0002:0000644c       ??_C@_03PBJBJNON@cpu@      1007344c     libvcruntime:undname.obj
 0002:00006450       ??_C@_03DCBBJBAA@amp@      10073450     libvcruntime:undname.obj
 0002:00006454       ??_C@_02KEGNLNML@?0?5@     10073454     libvcruntime:undname.obj
 0002:00006458       ??_C@_04ENMBGAPA@char@     10073458     libvcruntime:undname.obj
 0002:00006460       ??_C@_04GOKPGOLB@long@     10073460     libvcruntime:undname.obj
 0002:00006468       ??_C@_04DDKJGDCM@bool@     10073468     libvcruntime:undname.obj
 0002:00006470       ??_C@_06EBGKOKIG@__int8@   10073470     libvcruntime:undname.obj
 0002:00006478       ??_C@_07ICFHOGAF@__int16@  10073478     libvcruntime:undname.obj
 0002:00006484       ??_C@_07OFLPPHGP@__int32@  10073484     libvcruntime:undname.obj
 0002:00006490       ??_C@_07LFCOJCAC@__int64@  10073490     libvcruntime:undname.obj
 0002:0000649c       ??_C@_08GAHOLHEO@__int128@ 1007349c     libvcruntime:undname.obj
 0002:000064a8       ??_C@_09EEKGDCPH@?$DMunknown?$DO@ 100734a8     libvcruntime:undname.obj
 0002:000064b4       ??_C@_07CFHGOPCN@char8_t@  100734b4     libvcruntime:undname.obj
 0002:000064c0       ??_C@_08HBIPOFJB@char16_t@ 100734c0     libvcruntime:undname.obj
 0002:000064cc       ??_C@_08IECNCBKG@char32_t@ 100734cc     libvcruntime:undname.obj
 0002:000064d8       ??_C@_07CLGGIAMF@wchar_t@  100734d8     libvcruntime:undname.obj
 0002:000064e4       ??_C@_06GCICPBLB@__w64?5@  100734e4     libvcruntime:undname.obj
 0002:000064ec       ??_C@_07NFANNNEC@UNKNOWN@  100734ec     libvcruntime:undname.obj
 0002:000064f8       ??_C@_07EDHNAJHC@signed?5@ 100734f8     libvcruntime:undname.obj
 0002:00006504       ??_C@_05BNCCCJPP@const@    10073504     libvcruntime:undname.obj
 0002:0000650c       ??_C@_09EFNPDFFP@?5volatile@ 1007350c     libvcruntime:undname.obj
 0002:00006518       ??_C@_0P@GCIFDJCJ@?$GAunknown?5ecsu?8@ 10073518     libvcruntime:undname.obj
 0002:0000652c       ??_C@_06MOJHIBMG@union?5@  1007352c     libvcruntime:undname.obj
 0002:00006534       ??_C@_07DIBCDNGL@struct?5@ 10073534     libvcruntime:undname.obj
 0002:00006540       ??_C@_06LJBABKPM@class?5@  10073540     libvcruntime:undname.obj
 0002:00006548       ??_C@_08KOFANOFK@coclass?5@ 10073548     libvcruntime:undname.obj
 0002:00006554       ??_C@_0N@DLIEFKNA@cointerface?5@ 10073554     libvcruntime:undname.obj
 0002:00006564       ??_C@_05LJGMCFOG@enum?5@   10073564     libvcruntime:undname.obj
 0002:0000656c       ??_C@_06LIJLOJAG@const?5@  1007356c     libvcruntime:undname.obj
 0002:00006574       ??_C@_02KJPKDIBN@?$CG?5@   10073574     libvcruntime:undname.obj
 0002:00006578       ??_C@_03PCKGMOPB@?$CG?$CG?5@ 10073578     libvcruntime:undname.obj
 0002:0000657c       ??_C@_0M@EALIELKG@cli?3?3array?$DM@ 1007357c     libvcruntime:undname.obj
 0002:0000658c       ??_C@_0O@GKABPPIF@cli?3?3pin_ptr?$DM@ 1007358c     libvcruntime:undname.obj
 0002:0000659c       ??_C@_02GOGNNPBN@?$CJ?$FL@ 1007359c     libvcruntime:undname.obj
 0002:000065a0       ??_C@_06EEGAIFAK@?$HLflat?$HN@ 100735a0     libvcruntime:undname.obj
 0002:000065a8       ??_C@_05JIBOFOHK@?$HLfor?5@ 100735a8     libvcruntime:undname.obj
 0002:000065b0       ??_C@_02MDINNEEG@s?5@      100735b0     libvcruntime:undname.obj
 0002:000065b8       ??_7DNameNode@@6B@         100735b8     libvcruntime:undname.obj
 0002:000065d0       ??_7charNode@@6B@          100735d0     libvcruntime:undname.obj
 0002:000065e8       ??_7pcharNode@@6B@         100735e8     libvcruntime:undname.obj
 0002:00006600       ??_7pDNameNode@@6B@        10073600     libvcruntime:undname.obj
 0002:00006618       ??_7DNameStatusNode@@6B@   10073618     libvcruntime:undname.obj
 0002:00006630       ??_7pairNode@@6B@          10073630     libvcruntime:undname.obj
 0002:0000677c       ??_C@_04OKOHEJBO@?5?$DP?$DP?5@ 1007377c     libvcruntime:undname.obj
 0002:00006784       ?nodes@?1??make@DNameStatusNode@@SAPBV2@W4DNameStatus@@@Z@4QBV2@B 10073784     libvcruntime:undname.obj
 0002:000067d0       ??_C@_1DM@KHCHBNEB@?$AAa?$AAp?$AAi?$AA?9?$AAm?$AAs?$AA?9?$AAw?$AAi?$AAn?$AA?9?$AAc?$AAo?$AAr?$AAe@ 100737d0     libvcruntime:winapi_downlevel.obj
 0002:00006818       ??_C@_1DK@LPPGFMPP@?$AAa?$AAp?$AAi?$AA?9?$AAm?$AAs?$AA?9?$AAw?$AAi?$AAn?$AA?9?$AAc?$AAo?$AAr?$AAe@ 10073818     libvcruntime:winapi_downlevel.obj
 0002:00006860       ??_C@_1BC@GDMECMAK@?$AAk?$AAe?$AAr?$AAn?$AAe?$AAl?$AA3?$AA2@ 10073860     libvcruntime:winapi_downlevel.obj
 0002:00006878       ??_C@_1BA@PFFKHIOG@?$AAa?$AAp?$AAi?$AA?9?$AAm?$AAs?$AA?9@ 10073878     libvcruntime:winapi_downlevel.obj
 0002:00006898       ??_C@_08KNHFBNJ@FlsAlloc@  10073898     libvcruntime:winapi_downlevel.obj
 0002:000068b0       ??_C@_07PEJMOBNF@FlsFree@  100738b0     libvcruntime:winapi_downlevel.obj
 0002:000068c8       ??_C@_0M@GDNOONDI@FlsGetValue@ 100738c8     libvcruntime:winapi_downlevel.obj
 0002:000068e4       ??_C@_0M@JCPCPOEF@FlsSetValue@ 100738e4     libvcruntime:winapi_downlevel.obj
 0002:00006900       ??_C@_0BM@HCFOFFN@InitializeCriticalSectionEx@ 10073900     libvcruntime:winapi_downlevel.obj
 0002:00006928       ??_7exception@std@@6B@     10073928     libvcruntime:frame.obj
 0002:00006934       ??_C@_0BC@EOODALEL@Unknown?5exception@ 10073934     libvcruntime:frame.obj
 0002:00006950       ??_7bad_exception@std@@6B@ 10073950     libvcruntime:frame.obj
 0002:0000695c       ??_C@_0O@DPKOEFFH@bad?5exception@ 1007395c     libvcruntime:frame.obj
 0002:00006970       _standard_lookup_table     10073970     libucrt:output.obj
 0002:000069e0       _format_validation_lookup_table 100739e0     libucrt:output.obj
 0002:00006a50       ??_C@_1O@CEDCILHN@?$AA?$CI?$AAn?$AAu?$AAl?$AAl?$AA?$CJ@ 10073a50     libucrt:output.obj
 0002:00006a60       ??_C@_06OJHGLDPL@?$CInull?$CJ@ 10073a60     libucrt:output.obj
 0002:00006a68       _RtlNtPathSeperatorString  10073a68     libucrt:exit.obj
 0002:00006a74       ??_C@_13FPGAJAPJ@?$AA?2@   10073a74     libucrt:exit.obj
 0002:00006a78       _RtlDosPathSeperatorsString 10073a78     libucrt:exit.obj
 0002:00006a84       ??_C@_15MNCACJLI@?$AA?2?$AA?1@ 10073a84     libucrt:exit.obj
 0002:00006a8c       _RtlAlternateDosPathSeperatorString 10073a8c     libucrt:exit.obj
 0002:00006a98       ??_C@_13CGOKJPIL@?$AA?1@   10073a98     libucrt:exit.obj
 0002:00006a9c       ??_C@_1BI@BGOHAHKC@?$AAm?$AAs?$AAc?$AAo?$AAr?$AAe?$AAe?$AA?4?$AAd?$AAl?$AAl@ 10073a9c     libucrt:exit.obj
 0002:00006ab8       ??_C@_0P@MIGLKIOC@CorExitProcess@ 10073ab8     libucrt:exit.obj
 0002:00006ad0       __OP_FMODjmptab            10073ad0     libucrt:87fmod_impl.obj
 0002:00006e70       ??_C@_03KHJOGHMM@exp@      10073e70     libucrt:fpexcept.obj
 0002:00006e74       ??_C@_03JGHBODFD@pow@      10073e74     libucrt:fpexcept.obj
 0002:00006e78       ??_C@_03MGHMBJCF@log@      10073e78     libucrt:fpexcept.obj
 0002:00006e7c       ??_C@_05HGHHAHAP@log10@    10073e7c     libucrt:fpexcept.obj
 0002:00006e84       ??_C@_04COOMCNPB@sinh@     10073e84     libucrt:fpexcept.obj
 0002:00006e8c       ??_C@_04HPJJNFIM@cosh@     10073e8c     libucrt:fpexcept.obj
 0002:00006e94       ??_C@_04FJHINJAO@tanh@     10073e94     libucrt:fpexcept.obj
 0002:00006e9c       ??_C@_04FIHNOPOL@asin@     10073e9c     libucrt:fpexcept.obj
 0002:00006ea4       ??_C@_04PDIFKINK@acos@     10073ea4     libucrt:fpexcept.obj
 0002:00006eac       ??_C@_04MLLJIGOK@atan@     10073eac     libucrt:fpexcept.obj
 0002:00006eb4       ??_C@_05KNGEOGJB@atan2@    10073eb4     libucrt:fpexcept.obj
 0002:00006ebc       ??_C@_04EIAKFFMI@sqrt@     10073ebc     libucrt:fpexcept.obj
 0002:00006ec4       ??_C@_03BLEJJJBH@sin@      10073ec4     libucrt:fpexcept.obj
 0002:00006ec8       ??_C@_03LALBNOCG@cos@      10073ec8     libucrt:fpexcept.obj
 0002:00006ecc       ??_C@_03IIINPABG@tan@      10073ecc     libucrt:fpexcept.obj
 0002:00006ed0       ??_C@_04GFPJNGEK@ceil@     10073ed0     libucrt:fpexcept.obj
 0002:00006ed8       ??_C@_05PBJFFIGL@floor@    10073ed8     libucrt:fpexcept.obj
 0002:00006ee0       ??_C@_04ODHECPBC@fabs@     10073ee0     libucrt:fpexcept.obj
 0002:00006ee8       ??_C@_04EHEDPDJG@modf@     10073ee8     libucrt:fpexcept.obj
 0002:00006ef0       ??_C@_05CEJMAHNP@ldexp@    10073ef0     libucrt:fpexcept.obj
 0002:00006ef8       ??_C@_05KBKMEMPO@_cabs@    10073ef8     libucrt:fpexcept.obj
 0002:00006f00       ??_C@_06MEIMCGCF@_hypot@   10073f00     libucrt:fpexcept.obj
 0002:00006f08       ??_C@_04KEPJIHGP@fmod@     10073f08     libucrt:fpexcept.obj
 0002:00006f10       ??_C@_05GKKHEGJL@frexp@    10073f10     libucrt:fpexcept.obj
 0002:00006f18       ??_C@_03MJLDFKDL@_y0@      10073f18     libucrt:fpexcept.obj
 0002:00006f1c       ??_C@_03NAKIGLHK@_y1@      10073f1c     libucrt:fpexcept.obj
 0002:00006f20       ??_C@_03ONILCKOB@_yn@      10073f20     libucrt:fpexcept.obj
 0002:00006f24       ??_C@_05JGDBENOH@_logb@    10073f24     libucrt:fpexcept.obj
 0002:00006f2c       ??_C@_0L@KDOEJCKC@_nextafter@ 10073f2c     libucrt:fpexcept.obj
 0002:00006f40       ___acrt_exception_action_table 10073f40     libucrt:exception_filter.obj
 0002:00006fec       ___acrt_signal_action_table_count 10073fec     libucrt:exception_filter.obj
 0002:00006ff0       ___acrt_signal_action_table_size 10073ff0     libucrt:exception_filter.obj
 0002:00006ff4       ___acrt_signal_action_first_fpe_index 10073ff4     libucrt:exception_filter.obj
 0002:00006ff8       ___acrt_signal_action_fpe_count 10073ff8     libucrt:exception_filter.obj
 0002:0000709c       __Fenv1                    1007409c     libucrt:atox.obj
 0002:000072b8       ??_C@_1EA@JGEFHKEI@?$AAa?$AAp?$AAi?$AA?9?$AAm?$AAs?$AA?9?$AAw?$AAi?$AAn?$AA?9?$AAc?$AAo?$AAr?$AAe@ 100742b8     libucrt:winapi_thunks.obj
 0002:00007304       ??_C@_1DI@IJCEHOCB@?$AAa?$AAp?$AAi?$AA?9?$AAm?$AAs?$AA?9?$AAw?$AAi?$AAn?$AA?9?$AAc?$AAo?$AAr?$AAe@ 10074304     libucrt:winapi_thunks.obj
 0002:00007348       ??_C@_1EI@MPIAOHOC@?$AAa?$AAp?$AAi?$AA?9?$AAm?$AAs?$AA?9?$AAw?$AAi?$AAn?$AA?9?$AAc?$AAo?$AAr?$AAe@ 10074348     libucrt:winapi_thunks.obj
 0002:000073a0       ??_C@_1FK@FPHCKFIE@?$AAa?$AAp?$AAi?$AA?9?$AAm?$AAs?$AA?9?$AAw?$AAi?$AAn?$AA?9?$AAc?$AAo?$AAr?$AAe@ 100743a0     libucrt:winapi_thunks.obj
 0002:00007410       ??_C@_1EM@DILCGIIO@?$AAa?$AAp?$AAi?$AA?9?$AAm?$AAs?$AA?9?$AAw?$AAi?$AAn?$AA?9?$AAc?$AAo?$AAr?$AAe@ 10074410     libucrt:winapi_thunks.obj
 0002:0000746c       ??_C@_1DM@LNCGDDPN@?$AAa?$AAp?$AAi?$AA?9?$AAm?$AAs?$AA?9?$AAw?$AAi?$AAn?$AA?9?$AAc?$AAo?$AAr?$AAe@ 1007446c     libucrt:winapi_thunks.obj
 0002:000074b4       ??_C@_1DO@FPAPJEMD@?$AAa?$AAp?$AAi?$AA?9?$AAm?$AAs?$AA?9?$AAw?$AAi?$AAn?$AA?9?$AAc?$AAo?$AAr?$AAe@ 100744b4     libucrt:winapi_thunks.obj
 0002:00007500       ??_C@_1DK@NDHNAHIO@?$AAa?$AAp?$AAi?$AA?9?$AAm?$AAs?$AA?9?$AAw?$AAi?$AAn?$AA?9?$AAc?$AAo?$AAr?$AAe@ 10074500     libucrt:winapi_thunks.obj
 0002:00007548       ??_C@_1DM@KGHDGBCM@?$AAa?$AAp?$AAi?$AA?9?$AAm?$AAs?$AA?9?$AAw?$AAi?$AAn?$AA?9?$AAc?$AAo?$AAr?$AAe@ 10074548     libucrt:winapi_thunks.obj
 0002:00007590       ??_C@_1EO@IJIOEFOH@?$AAa?$AAp?$AAi?$AA?9?$AAm?$AAs?$AA?9?$AAw?$AAi?$AAn?$AA?9?$AAr?$AAt?$AAc?$AAo@ 10074590     libucrt:winapi_thunks.obj
 0002:000075f0       ??_C@_1FG@HHGEKANL@?$AAa?$AAp?$AAi?$AA?9?$AAm?$AAs?$AA?9?$AAw?$AAi?$AAn?$AA?9?$AAs?$AAe?$AAc?$AAu@ 100745f0     libucrt:winapi_thunks.obj
 0002:00007658       ??_C@_1EG@DBIOJECG@?$AAe?$AAx?$AAt?$AA?9?$AAm?$AAs?$AA?9?$AAw?$AAi?$AAn?$AA?9?$AAn?$AAt?$AAu?$AAs@ 10074658     libucrt:winapi_thunks.obj
 0002:000076b0       ??_C@_1EO@FIHMJCLF@?$AAe?$AAx?$AAt?$AA?9?$AAm?$AAs?$AA?9?$AAw?$AAi?$AAn?$AA?9?$AAn?$AAt?$AAu?$AAs@ 100746b0     libucrt:winapi_thunks.obj
 0002:00007710       ??_C@_1BC@DNHGCMLG@?$AAa?$AAd?$AAv?$AAa?$AAp?$AAi?$AA3?$AA2@ 10074710     libucrt:winapi_thunks.obj
 0002:00007728       ??_C@_1M@OAIMIKLP@?$AAn?$AAt?$AAd?$AAl?$AAl@ 10074728     libucrt:winapi_thunks.obj
 0002:00007738       ??_C@_1EG@DPGNFKGC@?$AAa?$AAp?$AAi?$AA?9?$AAm?$AAs?$AA?9?$AAw?$AAi?$AAn?$AA?9?$AAa?$AAp?$AAp?$AAm@ 10074738     libucrt:winapi_thunks.obj
 0002:0000778c       ??_C@_1O@BCCLBEOE@?$AAu?$AAs?$AAe?$AAr?$AA3?$AA2@ 1007478c     libucrt:winapi_thunks.obj
 0002:0000779c       ??_C@_1BA@IAIFMGEF@?$AAe?$AAx?$AAt?$AA?9?$AAm?$AAs?$AA?9@ 1007479c     libucrt:winapi_thunks.obj
 0002:000077b4       ??_C@_0BA@FHFNEAED@AreFileApisANSI@ 100747b4     libucrt:winapi_thunks.obj
 0002:000077d4       ??_C@_0BA@IHGNDAEB@CompareStringEx@ 100747d4     libucrt:winapi_thunks.obj
 0002:000077f4       ??_C@_0BE@LJANKFHF@EnumSystemLocalesEx@ 100747f4     libucrt:winapi_thunks.obj
 0002:00007848       ??_C@_0BA@HNOPNCHB@GetActiveWindow@ 10074848     libucrt:winapi_thunks.obj
 0002:00007868       ??_C@_0BA@EPCJIIPD@GetDateFormatEx@ 10074868     libucrt:winapi_thunks.obj
 0002:00007888       ??_C@_0BJ@DIBIJBHA@GetEnabledXStateFeatures@ 10074888     libucrt:winapi_thunks.obj
 0002:000078b4       ??_C@_0BD@HHGDFDBJ@GetLastActivePopup@ 100748b4     libucrt:winapi_thunks.obj
 0002:000078d8       ??_C@_0BA@ONOKGCMP@GetLocaleInfoEx@ 100748d8     libucrt:winapi_thunks.obj
 0002:000078f8       ??_C@_0BI@DFKBFLJE@GetProcessWindowStation@ 100748f8     libucrt:winapi_thunks.obj
 0002:00007918       ??_C@_0BP@FPNJPEJC@GetSystemTimePreciseAsFileTime@ 10074918     libucrt:winapi_thunks.obj
 0002:0000794c       ??_C@_0BA@CIJJKCJJ@GetTimeFormatEx@ 1007494c     libucrt:winapi_thunks.obj
 0002:0000796c       ??_C@_0BJ@PBCCBIPI@GetUserDefaultLocaleName@ 1007496c     libucrt:winapi_thunks.obj
 0002:00007998       ??_C@_0BK@DEKFELLI@GetUserObjectInformationW@ 10074998     libucrt:winapi_thunks.obj
 0002:000079c4       ??_C@_0BG@IKLDMBLM@GetXStateFeaturesMask@ 100749c4     libucrt:winapi_thunks.obj
 0002:000079f8       ??_C@_0BC@CELBKLLA@IsValidLocaleName@ 100749f8     libucrt:winapi_thunks.obj
 0002:00007a1c       ??_C@_0O@KKBNKAPF@LCMapStringEx@ 10074a1c     libucrt:winapi_thunks.obj
 0002:00007a38       ??_C@_0BB@CDHDDLLP@LCIDToLocaleName@ 10074a38     libucrt:winapi_thunks.obj
 0002:00007a58       ??_C@_0BB@HBDEELFH@LocaleNameToLCID@ 10074a58     libucrt:winapi_thunks.obj
 0002:00007a78       ??_C@_0BE@KINNKFDA@LocateXStateFeature@ 10074a78     libucrt:winapi_thunks.obj
 0002:00007a9c       ??_C@_0M@CHKKJDAI@MessageBoxA@ 10074a9c     libucrt:winapi_thunks.obj
 0002:00007ab8       ??_C@_0M@DLDCCGNP@MessageBoxW@ 10074ab8     libucrt:winapi_thunks.obj
 0002:00007acc       ??_C@_0N@PPOMPGGK@RoInitialize@ 10074acc     libucrt:winapi_thunks.obj
 0002:00007ae0       ??_C@_0P@LLFHBIJD@RoUninitialize@ 10074ae0     libucrt:winapi_thunks.obj
 0002:00007af8       ??_C@_0CF@OJOFEIGO@AppPolicyGetProcessTerminationM@ 10074af8     libucrt:winapi_thunks.obj
 0002:00007b28       ??_C@_0CF@NNDFDCOC@AppPolicyGetThreadInitializatio@ 10074b28     libucrt:winapi_thunks.obj
 0002:00007b58       ??_C@_0CE@OICFMIKE@AppPolicyGetShowDeveloperDiagno@ 10074b58     libucrt:winapi_thunks.obj
 0002:00007b88       ??_C@_0BL@ODDJNEDA@AppPolicyGetWindowingModel@ 10074b88     libucrt:winapi_thunks.obj
 0002:00007bb4       ??_C@_0BI@BKLFFAPO@SetThreadStackGuarantee@ 10074bb4     libucrt:winapi_thunks.obj
 0002:00007bdc       ??_C@_0BC@JEAENNKH@SystemFunction036@ 10074bdc     libucrt:winapi_thunks.obj
 0002:00007c44       ??_C@_03OEIAHPBN@INF@      10074c44     libucrt:cvt.obj
 0002:00007c48       ??_C@_03OJHLLCGB@inf@      10074c48     libucrt:cvt.obj
 0002:00007c4c       ??_C@_03LKNCIKJB@NAN@      10074c4c     libucrt:cvt.obj
 0002:00007c50       ??_C@_03LHCJEHON@nan@      10074c50     libucrt:cvt.obj
 0002:00007c54       ??_C@_09OFJJIMPC@NAN?$CISNAN?$CJ@ 10074c54     libucrt:cvt.obj
 0002:00007c60       ??_C@_09IPFBKMDL@nan?$CIsnan?$CJ@ 10074c60     libucrt:cvt.obj
 0002:00007c6c       ??_C@_08IKHNHAJ@NAN?$CIIND?$CJ@ 10074c6c     libucrt:cvt.obj
 0002:00007c78       ??_C@_08OFCDMILK@nan?$CIind?$CJ@ 10074c78     libucrt:cvt.obj
 0002:00007c84       ??_C@_05KLBDPFGC@e?$CL000@ 10074c84     libucrt:cvt.obj
 0002:00007d28       ___lc_category             10074d28     libucrt:wsetlocale.obj
 0002:00007d80       ??_C@_1O@GIFLHMA@?$AAL?$AAC?$AA_?$AAA?$AAL?$AAL@ 10074d80     libucrt:wsetlocale.obj
 0002:00007d90       ??_C@_1BG@PPOMIBNJ@?$AAL?$AAC?$AA_?$AAC?$AAO?$AAL?$AAL?$AAA?$AAT?$AAE@ 10074d90     libucrt:wsetlocale.obj
 0002:00007dac       ??_C@_1BC@FFJGAPJM@?$AAL?$AAC?$AA_?$AAC?$AAT?$AAY?$AAP?$AAE@ 10074dac     libucrt:wsetlocale.obj
 0002:00007dc4       ??_C@_1BI@PCKFNJFB@?$AAL?$AAC?$AA_?$AAM?$AAO?$AAN?$AAE?$AAT?$AAA?$AAR?$AAY@ 10074dc4     libucrt:wsetlocale.obj
 0002:00007de0       ??_C@_1BG@ENIEDKID@?$AAL?$AAC?$AA_?$AAN?$AAU?$AAM?$AAE?$AAR?$AAI?$AAC@ 10074de0     libucrt:wsetlocale.obj
 0002:00007dfc       ??_C@_1BA@HAAOMIIG@?$AAL?$AAC?$AA_?$AAT?$AAI?$AAM?$AAE@ 10074dfc     libucrt:wsetlocale.obj
 0002:00007e10       ??_C@_15NBPDDFIP@?$AA?$DN?$AA?$DL@ 10074e10     libucrt:wsetlocale.obj
 0002:00007e18       ??_C@_13PJJBFPED@?$AA?$DL@ 10074e18     libucrt:wsetlocale.obj
 0002:00007e1c       ??_C@_13NMPKAAJP@?$AA?$DN@ 10074e1c     libucrt:wsetlocale.obj
 0002:00007e20       ??_C@_13IMODFHAA@?$AA?9@   10074e20     libucrt:wsetlocale.obj
 0002:00007e24       ??_C@_17EFJLDFDO@?$AA?9?$AA_?$AA?4@ 10074e24     libucrt:wsetlocale.obj
 0002:00007e30       ??_C@_13FHBKNHDA@?$AAC@    10074e30     libucrt:wsetlocale.obj
 0002:00007e34       ??_C@_17MBJJLFDM@?$AA_?$AA?4?$AA?0@ 10074e34     libucrt:wsetlocale.obj
 0002:00007e40       ??_C@_13ENNFDPBH@?$AA_@    10074e40     libucrt:wsetlocale.obj
 0002:00007e44       ??_C@_13JOFGPIOO@?$AA?4@   10074e44     libucrt:wsetlocale.obj
 0002:00007e48       ___lc_time_c               10074e48     libucrt:nlsdata.obj
 0002:00007ff4       ??_C@_03KOEHGMDN@Sun@      10074ff4     libucrt:nlsdata.obj
 0002:00007ff8       ??_C@_03PDAGKDH@Mon@       10074ff8     libucrt:nlsdata.obj
 0002:00007ffc       ??_C@_03NAGEINEP@Tue@      10074ffc     libucrt:nlsdata.obj
 0002:00008000       ??_C@_03MHOMLAJA@Wed@      10075000     libucrt:nlsdata.obj
 0002:00008004       ??_C@_03IOFIKPDN@Thu@      10075004     libucrt:nlsdata.obj
 0002:00008008       ??_C@_03IDIOELNC@Fri@      10075008     libucrt:nlsdata.obj
 0002:0000800c       ??_C@_03FEFJNEK@Sat@       1007500c     libucrt:nlsdata.obj
 0002:00008010       ??_C@_06OOPIFAJ@Sunday@    10075010     libucrt:nlsdata.obj
 0002:00008018       ??_C@_06JLEDEDGH@Monday@   10075018     libucrt:nlsdata.obj
 0002:00008020       ??_C@_07BAAGCFCM@Tuesday@  10075020     libucrt:nlsdata.obj
 0002:0000802c       ??_C@_09DLIGFAKA@Wednesday@ 1007502c     libucrt:nlsdata.obj
 0002:00008038       ??_C@_08HACCIKIA@Thursday@ 10075038     libucrt:nlsdata.obj
 0002:00008044       ??_C@_06JECMNKMI@Friday@   10075044     libucrt:nlsdata.obj
 0002:0000804c       ??_C@_08INBOOONO@Saturday@ 1007504c     libucrt:nlsdata.obj
 0002:00008058       ??_C@_03JIHJHPIE@Jan@      10075058     libucrt:nlsdata.obj
 0002:0000805c       ??_C@_03HJBDCHOM@Feb@      1007505c     libucrt:nlsdata.obj
 0002:00008060       ??_C@_03ODNJBKGA@Mar@      10075060     libucrt:nlsdata.obj
 0002:00008064       ??_C@_03LEOLGMJP@Apr@      10075064     libucrt:nlsdata.obj
 0002:00008068       ??_C@_03CNMDKL@May@        10075068     libucrt:nlsdata.obj
 0002:0000806c       ??_C@_03IDFGHECI@Jun@      1007506c     libucrt:nlsdata.obj
 0002:00008070       ??_C@_03LBGABGKK@Jul@      10075070     libucrt:nlsdata.obj
 0002:00008074       ??_C@_03IFJFEIGA@Aug@      10075074     libucrt:nlsdata.obj
 0002:00008078       ??_C@_03GGCAPAJC@Sep@      10075078     libucrt:nlsdata.obj
 0002:0000807c       ??_C@_03BMAOKBAD@Oct@      1007507c     libucrt:nlsdata.obj
 0002:00008080       ??_C@_03JPJOFNIA@Nov@      10075080     libucrt:nlsdata.obj
 0002:00008084       ??_C@_03MKABNOCG@Dec@      10075084     libucrt:nlsdata.obj
 0002:00008088       ??_C@_07CGJPFGJA@January@  10075088     libucrt:nlsdata.obj
 0002:00008094       ??_C@_08GNJGEPFN@February@ 10075094     libucrt:nlsdata.obj
 0002:000080a0       ??_C@_05HPCKOFNC@March@    100750a0     libucrt:nlsdata.obj
 0002:000080a8       ??_C@_05DMJDNLEJ@April@    100750a8     libucrt:nlsdata.obj
 0002:000080b0       ??_C@_04CNLMGBGM@June@     100750b0     libucrt:nlsdata.obj
 0002:000080b8       ??_C@_04MIEPOIFP@July@     100750b8     libucrt:nlsdata.obj
 0002:000080c0       ??_C@_06LBBHFDDG@August@   100750c0     libucrt:nlsdata.obj
 0002:000080c8       ??_C@_09BHHEALKD@September@ 100750c8     libucrt:nlsdata.obj
 0002:000080d4       ??_C@_07JJNFCEND@October@  100750d4     libucrt:nlsdata.obj
 0002:000080e0       ??_C@_08HCHEGEOA@November@ 100750e0     libucrt:nlsdata.obj
 0002:000080ec       ??_C@_08EDHMEBNP@December@ 100750ec     libucrt:nlsdata.obj
 0002:000080f8       ??_C@_02DEDBPAFC@AM@       100750f8     libucrt:nlsdata.obj
 0002:000080fc       ??_C@_02CJNFDJBF@PM@       100750fc     libucrt:nlsdata.obj
 0002:00008100       ??_C@_08BPBNCDIB@MM?1dd?1yy@ 10075100     libucrt:nlsdata.obj
 0002:0000810c       ??_C@_0BE@CKGJFCPC@dddd?0?5MMMM?5dd?0?5yyyy@ 1007510c     libucrt:nlsdata.obj
 0002:00008124       ??_C@_08JCCMCCIL@HH?3mm?3ss@ 10075124     libucrt:nlsdata.obj
 0002:00008130       ??_C@_17MBGCMIPB@?$AAS?$AAu?$AAn@ 10075130     libucrt:nlsdata.obj
 0002:0000813c       ??_C@_17KBOMKBF@?$AAM?$AAo?$AAn@ 1007513c     libucrt:nlsdata.obj
 0002:00008148       ??_C@_17BMKGEGOJ@?$AAT?$AAu?$AAe@ 10075148     libucrt:nlsdata.obj
 0002:00008154       ??_C@_17CJEDCEPE@?$AAW?$AAe?$AAd@ 10075154     libucrt:nlsdata.obj
 0002:00008160       ??_C@_17PDPHAADD@?$AAT?$AAh?$AAu@ 10075160     libucrt:nlsdata.obj
 0002:0000816c       ??_C@_17HFOLPPLP@?$AAF?$AAr?$AAi@ 1007516c     libucrt:nlsdata.obj
 0002:00008178       ??_C@_17GGIBDPIH@?$AAS?$AAa?$AAt@ 10075178     libucrt:nlsdata.obj
 0002:00008184       ??_C@_1O@IHNHDHPB@?$AAS?$AAu?$AAn?$AAd?$AAa?$AAy@ 10075184     libucrt:nlsdata.obj
 0002:00008194       ??_C@_1O@MMNBFLIA@?$AAM?$AAo?$AAn?$AAd?$AAa?$AAy@ 10075194     libucrt:nlsdata.obj
 0002:000081a4       ??_C@_1BA@ENFBFFEK@?$AAT?$AAu?$AAe?$AAs?$AAd?$AAa?$AAy@ 100751a4     libucrt:nlsdata.obj
 0002:000081b8       ??_C@_1BE@EBOGMDOH@?$AAW?$AAe?$AAd?$AAn?$AAe?$AAs?$AAd?$AAa?$AAy@ 100751b8     libucrt:nlsdata.obj
 0002:000081d0       ??_C@_1BC@HHMNLIHE@?$AAT?$AAh?$AAu?$AAr?$AAs?$AAd?$AAa?$AAy@ 100751d0     libucrt:nlsdata.obj
 0002:000081e8       ??_C@_1O@PDICJHAG@?$AAF?$AAr?$AAi?$AAd?$AAa?$AAy@ 100751e8     libucrt:nlsdata.obj
 0002:000081f8       ??_C@_1BC@ENMNNPAJ@?$AAS?$AAa?$AAt?$AAu?$AAr?$AAd?$AAa?$AAy@ 100751f8     libucrt:nlsdata.obj
 0002:00008210       ??_C@_17DKNBKCHM@?$AAJ?$AAa?$AAn@ 10075210     libucrt:nlsdata.obj
 0002:0000821c       ??_C@_17LMDJEKJN@?$AAF?$AAe?$AAb@ 1007521c     libucrt:nlsdata.obj
 0002:00008228       ??_C@_17CKNLEDEC@?$AAM?$AAa?$AAr@ 10075228     libucrt:nlsdata.obj
 0002:00008234       ??_C@_17LFPOIHDD@?$AAA?$AAp?$AAr@ 10075234     libucrt:nlsdata.obj
 0002:00008240       ??_C@_17PNNKMEED@?$AAM?$AAa?$AAy@ 10075240     libucrt:nlsdata.obj
 0002:0000824c       ??_C@_17KCJGOCPB@?$AAJ?$AAu?$AAn@ 1007524c     libucrt:nlsdata.obj
 0002:00008258       ??_C@_17IJPCKHK@?$AAJ?$AAu?$AAl@ 10075258     libucrt:nlsdata.obj
 0002:00008264       ??_C@_17ICPELBCN@?$AAA?$AAu?$AAg@ 10075264     libucrt:nlsdata.obj
 0002:00008270       ??_C@_17HCHCOKMG@?$AAS?$AAe?$AAp@ 10075270     libucrt:nlsdata.obj
 0002:0000827c       ??_C@_17FNLKOI@?$AAO?$AAc?$AAt@ 1007527c     libucrt:nlsdata.obj
 0002:00008288       ??_C@_17BBDMLCIG@?$AAN?$AAo?$AAv@ 10075288     libucrt:nlsdata.obj
 0002:00008294       ??_C@_17EGKACKIF@?$AAD?$AAe?$AAc@ 10075294     libucrt:nlsdata.obj
 0002:000082a0       ??_C@_1BA@EFMEIEBA@?$AAJ?$AAa?$AAn?$AAu?$AAa?$AAr?$AAy@ 100752a0     libucrt:nlsdata.obj
 0002:000082b4       ??_C@_1BC@JGDDFFAM@?$AAF?$AAe?$AAb?$AAr?$AAu?$AAa?$AAr?$AAy@ 100752b4     libucrt:nlsdata.obj
 0002:000082cc       ??_C@_1M@IKEENEDF@?$AAM?$AAa?$AAr?$AAc?$AAh@ 100752cc     libucrt:nlsdata.obj
 0002:000082dc       ??_C@_1M@GJNLMHFD@?$AAA?$AAp?$AAr?$AAi?$AAl@ 100752dc     libucrt:nlsdata.obj
 0002:000082ec       ??_C@_19EPFLPGAP@?$AAJ?$AAu?$AAn?$AAe@ 100752ec     libucrt:nlsdata.obj
 0002:000082f8       ??_C@_19BIFMLPCD@?$AAJ?$AAu?$AAl?$AAy@ 100752f8     libucrt:nlsdata.obj
 0002:00008304       ??_C@_1O@PAHLKOAC@?$AAA?$AAu?$AAg?$AAu?$AAs?$AAt@ 10075304     libucrt:nlsdata.obj
 0002:00008314       ??_C@_1BE@DKAAMBJL@?$AAS?$AAe?$AAp?$AAt?$AAe?$AAm?$AAb?$AAe?$AAr@ 10075314     libucrt:nlsdata.obj
 0002:0000832c       ??_C@_1BA@EPANDLNG@?$AAO?$AAc?$AAt?$AAo?$AAb?$AAe?$AAr@ 1007532c     libucrt:nlsdata.obj
 0002:00008340       ??_C@_1BC@BGLIFPF@?$AAN?$AAo?$AAv?$AAe?$AAm?$AAb?$AAe?$AAr@ 10075340     libucrt:nlsdata.obj
 0002:00008358       ??_C@_1BC@FEMKIFH@?$AAD?$AAe?$AAc?$AAe?$AAm?$AAb?$AAe?$AAr@ 10075358     libucrt:nlsdata.obj
 0002:00008370       ??_C@_15ODEHAHHF@?$AAA?$AAM@ 10075370     libucrt:nlsdata.obj
 0002:00008378       ??_C@_15CLMNNGEL@?$AAP?$AAM@ 10075378     libucrt:nlsdata.obj
 0002:00008380       ??_C@_1BC@IEBCMHCM@?$AAM?$AAM?$AA?1?$AAd?$AAd?$AA?1?$AAy?$AAy@ 10075380     libucrt:nlsdata.obj
 0002:00008398       ??_C@_1CI@KNAKOEBC@?$AAd?$AAd?$AAd?$AAd?$AA?0?$AA?5?$AAM?$AAM?$AAM?$AAM?$AA?5?$AAd?$AAd?$AA?0?$AA?5@ 10075398     libucrt:nlsdata.obj
 0002:000083c8       ??_C@_1BC@GDGBMEMK@?$AAH?$AAH?$AA?3?$AAm?$AAm?$AA?3?$AAs?$AAs@ 100753c8     libucrt:nlsdata.obj
 0002:000083e0       ??_C@_1M@BMHNFIME@?$AAe?$AAn?$AA?9?$AAU?$AAS@ 100753e0     libucrt:nlsdata.obj
 0002:000083f0       ?ccs@?1???$__acrt_stdio_parse_mode@D@@YA?AU__acrt_stdio_stream_mode@@QBD@Z@4QBDB 100753f0     libucrt:openfile.obj
 0002:000083f4       ?utf8_encoding@?1???$__acrt_stdio_parse_mode@D@@YA?AU__acrt_stdio_stream_mode@@QBD@Z@4QBDB 100753f4     libucrt:openfile.obj
 0002:000083fc       ?utf16_encoding@?1???$__acrt_stdio_parse_mode@D@@YA?AU__acrt_stdio_stream_mode@@QBD@Z@4QBDB 100753fc     libucrt:openfile.obj
 0002:00008408       ?unicode_encoding@?1???$__acrt_stdio_parse_mode@D@@YA?AU__acrt_stdio_stream_mode@@QBD@Z@4QBDB 10075408     libucrt:openfile.obj
 0002:00008410       ?ccs@?1???$__acrt_stdio_parse_mode@_W@@YA?AU__acrt_stdio_stream_mode@@QB_W@Z@4QB_WB 10075410     libucrt:openfile.obj
 0002:00008418       ?utf8_encoding@?1???$__acrt_stdio_parse_mode@_W@@YA?AU__acrt_stdio_stream_mode@@QB_W@Z@4QB_WB 10075418     libucrt:openfile.obj
 0002:00008424       ?utf16_encoding@?1???$__acrt_stdio_parse_mode@_W@@YA?AU__acrt_stdio_stream_mode@@QB_W@Z@4QB_WB 10075424     libucrt:openfile.obj
 0002:00008438       ?unicode_encoding@?1???$__acrt_stdio_parse_mode@_W@@YA?AU__acrt_stdio_stream_mode@@QB_W@Z@4QB_WB 10075438     libucrt:openfile.obj
 0002:00008448       __d_inf                    10075448     libucrt:util.obj
 0002:00008458       __d_ind                    10075458     libucrt:util.obj
 0002:00008468       __d_max                    10075468     libucrt:util.obj
 0002:00008478       __d_min                    10075478     libucrt:util.obj
 0002:00008488       __d_mzero                  10075488     libucrt:util.obj
 0002:00008500       __indefinite               10075500     libucrt:87disp.obj
 0002:0000850a       __piby2                    1007550a     libucrt:87disp.obj
 0002:00008514       __piby4                    10075514     libucrt:87disp.obj
 0002:00008550       ___acrt_cos_sin_ctable     10075550     libucrt:cos_sin_ctable.obj
 0002:00008f00       ??_C@_1M@HPNHIDJI@?$AAj?$AAa?$AA?9?$AAJ?$AAP@ 10075f00     libucrt:mbctype.obj
 0002:00008f10       ??_C@_1M@BIBDDEMK@?$AAz?$AAh?$AA?9?$AAC?$AAN@ 10075f10     libucrt:mbctype.obj
 0002:00008f20       ??_C@_1M@JLOOOEGK@?$AAk?$AAo?$AA?9?$AAK?$AAR@ 10075f20     libucrt:mbctype.obj
 0002:00008f30       ??_C@_1M@CLNBBOPM@?$AAz?$AAh?$AA?9?$AAT?$AAW@ 10075f30     libucrt:mbctype.obj
 0002:00008f40       ___newctype                10075f40     libucrt:ctype.obj
 0002:000092e0       ___newclmap                100762e0     libucrt:ctype.obj
 0002:000094b0       ___newcumap                100764b0     libucrt:ctype.obj
 0002:00009680       __wctype                   10076680     libucrt:ctype.obj
 0002:0000a17c       ??_C@_15EMKDOKLE@?$AAa?$AAr@ 1007717c     libucrt:lcidtoname_downlevel.obj
 0002:0000a184       ??_C@_15KNPADPLH@?$AAb?$AAg@ 10077184     libucrt:lcidtoname_downlevel.obj
 0002:0000a18c       ??_C@_15EDMHLDMO@?$AAc?$AAa@ 1007718c     libucrt:lcidtoname_downlevel.obj
 0002:0000a194       ??_C@_1O@BPEAJADD@?$AAz?$AAh?$AA?9?$AAC?$AAH?$AAS@ 10077194     libucrt:lcidtoname_downlevel.obj
 0002:0000a1a4       ??_C@_15LJNHCMNK@?$AAc?$AAs@ 100771a4     libucrt:lcidtoname_downlevel.obj
 0002:0000a1ac       ??_C@_15FOMCIDHG@?$AAd?$AAa@ 100771ac     libucrt:lcidtoname_downlevel.obj
 0002:0000a1b4       ??_C@_15NBKABECB@?$AAd?$AAe@ 100771b4     libucrt:lcidtoname_downlevel.obj
 0002:0000a1bc       ??_C@_15GHPEIIAO@?$AAe?$AAl@ 100771bc     libucrt:lcidtoname_downlevel.obj
 0002:0000a1c4       ??_C@_15MNPNEAIF@?$AAe?$AAn@ 100771c4     libucrt:lcidtoname_downlevel.obj
 0002:0000a1cc       ??_C@_15GPIOMPMH@?$AAe?$AAs@ 100771cc     libucrt:lcidtoname_downlevel.obj
 0002:0000a1d4       ??_C@_15NGLOAKJC@?$AAf?$AAi@ 100771d4     libucrt:lcidtoname_downlevel.obj
 0002:0000a1dc       ??_C@_15FBKGNKAM@?$AAf?$AAr@ 100771dc     libucrt:lcidtoname_downlevel.obj
 0002:0000a1e4       ??_C@_15KGGCNEFK@?$AAh?$AAe@ 100771e4     libucrt:lcidtoname_downlevel.obj
 0002:0000a1ec       ??_C@_15PGHLIDMF@?$AAh?$AAu@ 100771ec     libucrt:lcidtoname_downlevel.obj
 0002:0000a1f4       ??_C@_15BIEMAPLM@?$AAi?$AAs@ 100771f4     libucrt:lcidtoname_downlevel.obj
 0002:0000a1fc       ??_C@_15IFJLDHAF@?$AAi?$AAt@ 100771fc     libucrt:lcidtoname_downlevel.obj
 0002:0000a204       ??_C@_15GEMIOCAG@?$AAj?$AAa@ 10077204     libucrt:lcidtoname_downlevel.obj
 0002:0000a20c       ??_C@_15EPELEGJA@?$AAk?$AAo@ 1007720c     libucrt:lcidtoname_downlevel.obj
 0002:0000a214       ??_C@_15NDDHIMN@?$AAn?$AAl@ 10077214     libucrt:lcidtoname_downlevel.obj
 0002:0000a21c       ??_C@_15BPIGNHCD@?$AAn?$AAo@ 1007721c     libucrt:lcidtoname_downlevel.obj
 0002:0000a224       ??_C@_15DEOPBLCG@?$AAp?$AAl@ 10077224     libucrt:lcidtoname_downlevel.obj
 0002:0000a22c       ??_C@_15KBECGEFG@?$AAp?$AAt@ 1007722c     libucrt:lcidtoname_downlevel.obj
 0002:0000a234       ??_C@_15GLJCBFMD@?$AAr?$AAo@ 10077234     libucrt:lcidtoname_downlevel.obj
 0002:0000a23c       ??_C@_15FEDGKCDI@?$AAr?$AAu@ 1007723c     libucrt:lcidtoname_downlevel.obj
 0002:0000a244       ??_C@_15GLKMLLHM@?$AAh?$AAr@ 10077244     libucrt:lcidtoname_downlevel.obj
 0002:0000a24c       ??_C@_15CPKMFBDB@?$AAs?$AAk@ 1007724c     libucrt:lcidtoname_downlevel.obj
 0002:0000a254       ??_C@_15BAAIOGMK@?$AAs?$AAq@ 10077254     libucrt:lcidtoname_downlevel.obj
 0002:0000a25c       ??_C@_15INNPNOHD@?$AAs?$AAv@ 1007725c     libucrt:lcidtoname_downlevel.obj
 0002:0000a264       ??_C@_15CABMMOGH@?$AAt?$AAh@ 10077264     libucrt:lcidtoname_downlevel.obj
 0002:0000a26c       ??_C@_15BPLIHJJM@?$AAt?$AAr@ 1007726c     libucrt:lcidtoname_downlevel.obj
 0002:0000a274       ??_C@_15NEOEKKDJ@?$AAu?$AAr@ 10077274     libucrt:lcidtoname_downlevel.obj
 0002:0000a27c       ??_C@_15NFICGAJK@?$AAi?$AAd@ 1007727c     libucrt:lcidtoname_downlevel.obj
 0002:0000a284       ??_C@_15PJPFLCCM@?$AAu?$AAk@ 10077284     libucrt:lcidtoname_downlevel.obj
 0002:0000a28c       ??_C@_15HPJPHDM@?$AAb?$AAe@ 1007728c     libucrt:lcidtoname_downlevel.obj
 0002:0000a294       ??_C@_15LCHLGJII@?$AAs?$AAl@ 10077294     libucrt:lcidtoname_downlevel.obj
 0002:0000a29c       ??_C@_15PCFJPHHO@?$AAe?$AAt@ 1007729c     libucrt:lcidtoname_downlevel.obj
 0002:0000a2a4       ??_C@_15HPFPGODN@?$AAl?$AAv@ 100772a4     libucrt:lcidtoname_downlevel.obj
 0002:0000a2ac       ??_C@_15NFFGKGLG@?$AAl?$AAt@ 100772ac     libucrt:lcidtoname_downlevel.obj
 0002:0000a2b4       ??_C@_15BDAKCCHN@?$AAf?$AAa@ 100772b4     libucrt:lcidtoname_downlevel.obj
 0002:0000a2bc       ??_C@_15NFGIAIAJ@?$AAv?$AAi@ 100772bc     libucrt:lcidtoname_downlevel.obj
 0002:0000a2c4       ??_C@_15LMKNDMHN@?$AAh?$AAy@ 100772c4     libucrt:lcidtoname_downlevel.obj
 0002:0000a2cc       ??_C@_15IJBHMCFL@?$AAa?$AAz@ 100772cc     libucrt:lcidtoname_downlevel.obj
 0002:0000a2d4       ??_C@_15EKOFJABL@?$AAe?$AAu@ 100772d4     libucrt:lcidtoname_downlevel.obj
 0002:0000a2dc       ??_C@_15BGHADCNK@?$AAm?$AAk@ 100772dc     libucrt:lcidtoname_downlevel.obj
 0002:0000a2e4       ??_C@_15JDNICKHM@?$AAa?$AAf@ 100772e4     libucrt:lcidtoname_downlevel.obj
 0002:0000a2ec       ??_C@_15KPJEDBKD@?$AAk?$AAa@ 100772ec     libucrt:lcidtoname_downlevel.obj
 0002:0000a2f4       ??_C@_15PDNFFFEO@?$AAf?$AAo@ 100772f4     libucrt:lcidtoname_downlevel.obj
 0002:0000a2fc       ??_C@_15OMLEGLOC@?$AAh?$AAi@ 100772fc     libucrt:lcidtoname_downlevel.obj
 0002:0000a304       ??_C@_15IDNNENKK@?$AAm?$AAs@ 10077304     libucrt:lcidtoname_downlevel.obj
 0002:0000a30c       ??_C@_15MACJNBMH@?$AAk?$AAk@ 1007730c     libucrt:lcidtoname_downlevel.obj
 0002:0000a314       ??_C@_15DKDJEOND@?$AAk?$AAy@ 10077314     libucrt:lcidtoname_downlevel.obj
 0002:0000a31c       ??_C@_15DFGDLJBG@?$AAs?$AAw@ 1007731c     libucrt:lcidtoname_downlevel.obj
 0002:0000a324       ??_C@_15BBFAICNG@?$AAu?$AAz@ 10077324     libucrt:lcidtoname_downlevel.obj
 0002:0000a32c       ??_C@_15DKNDCGEA@?$AAt?$AAt@ 1007732c     libucrt:lcidtoname_downlevel.obj
 0002:0000a334       ??_C@_15MGIFMDPL@?$AAp?$AAa@ 10077334     libucrt:lcidtoname_downlevel.obj
 0002:0000a33c       ??_C@_15HCNDBBA@?$AAg?$AAu@ 1007733c     libucrt:lcidtoname_downlevel.obj
 0002:0000a344       ??_C@_15FNBEIBON@?$AAt?$AAa@ 10077344     libucrt:lcidtoname_downlevel.obj
 0002:0000a34c       ??_C@_15NCHGBGLK@?$AAt?$AAe@ 1007734c     libucrt:lcidtoname_downlevel.obj
 0002:0000a354       ??_C@_15PHPHCBPF@?$AAk?$AAn@ 10077354     libucrt:lcidtoname_downlevel.obj
 0002:0000a35c       ??_C@_15DLGBCKMP@?$AAm?$AAr@ 1007735c     libucrt:lcidtoname_downlevel.obj
 0002:0000a364       ??_C@_15EABBLBFF@?$AAs?$AAa@ 10077364     libucrt:lcidtoname_downlevel.obj
 0002:0000a36c       ??_C@_15CBKOMCOI@?$AAm?$AAn@ 1007736c     libucrt:lcidtoname_downlevel.obj
 0002:0000a374       ??_C@_15CKDMCJAF@?$AAg?$AAl@ 10077374     libucrt:lcidtoname_downlevel.obj
 0002:0000a37c       ??_C@_17CNJFBPG@?$AAk?$AAo?$AAk@ 1007737c     libucrt:lcidtoname_downlevel.obj
 0002:0000a388       ??_C@_17FFBJICPL@?$AAs?$AAy?$AAr@ 10077388     libucrt:lcidtoname_downlevel.obj
 0002:0000a394       ??_C@_17KPNDCPAF@?$AAd?$AAi?$AAv@ 10077394     libucrt:lcidtoname_downlevel.obj
 0002:0000a3a0       ??_C@_11LOCGONAA@@         100773a0     libucrt:lcidtoname_downlevel.obj
 0002:0000a3a4       ??_C@_1M@OKAHONE@?$AAa?$AAr?$AA?9?$AAS?$AAA@ 100773a4     libucrt:lcidtoname_downlevel.obj
 0002:0000a3b4       ??_C@_1M@FFFIGIGK@?$AAb?$AAg?$AA?9?$AAB?$AAG@ 100773b4     libucrt:lcidtoname_downlevel.obj
 0002:0000a3c4       ??_C@_1M@BJNKEDC@?$AAc?$AAa?$AA?9?$AAE?$AAS@ 100773c4     libucrt:lcidtoname_downlevel.obj
 0002:0000a3d4       ??_C@_1M@IJJHFJHA@?$AAc?$AAs?$AA?9?$AAC?$AAZ@ 100773d4     libucrt:lcidtoname_downlevel.obj
 0002:0000a3e4       ??_C@_1M@CLPEOBGI@?$AAd?$AAa?$AA?9?$AAD?$AAK@ 100773e4     libucrt:lcidtoname_downlevel.obj
 0002:0000a3f4       ??_C@_1M@MCMADGCB@?$AAd?$AAe?$AA?9?$AAD?$AAE@ 100773f4     libucrt:lcidtoname_downlevel.obj
 0002:0000a404       ??_C@_1M@OOCKEMAM@?$AAe?$AAl?$AA?9?$AAG?$AAR@ 10077404     libucrt:lcidtoname_downlevel.obj
 0002:0000a414       ??_C@_1M@DDNJFGID@?$AAf?$AAi?$AA?9?$AAF?$AAI@ 10077414     libucrt:lcidtoname_downlevel.obj
 0002:0000a424       ??_C@_1M@GLIPPMAC@?$AAf?$AAr?$AA?9?$AAF?$AAR@ 10077424     libucrt:lcidtoname_downlevel.obj
 0002:0000a434       ??_C@_1M@GFMCHPE@?$AAh?$AAe?$AA?9?$AAI?$AAL@ 10077434     libucrt:lcidtoname_downlevel.obj
 0002:0000a444       ??_C@_1M@MHLPGNKM@?$AAh?$AAu?$AA?9?$AAH?$AAU@ 10077444     libucrt:lcidtoname_downlevel.obj
 0002:0000a454       ??_C@_1M@LPDDNNPN@?$AAi?$AAs?$AA?9?$AAI?$AAS@ 10077454     libucrt:lcidtoname_downlevel.obj
 0002:0000a464       ??_C@_1M@MADIPODN@?$AAi?$AAt?$AA?9?$AAI?$AAT@ 10077464     libucrt:lcidtoname_downlevel.obj
 0002:0000a474       ??_C@_1M@IHBJJGG@?$AAn?$AAl?$AA?9?$AAN?$AAL@ 10077474     libucrt:lcidtoname_downlevel.obj
 0002:0000a484       ??_C@_1M@EANAGDL@?$AAn?$AAb?$AA?9?$AAN?$AAO@ 10077484     libucrt:lcidtoname_downlevel.obj
 0002:0000a494       ??_C@_1M@NEIEMEGP@?$AAp?$AAl?$AA?9?$AAP?$AAL@ 10077494     libucrt:lcidtoname_downlevel.obj
 0002:0000a4a4       ??_C@_1M@BOCFIGEP@?$AAp?$AAt?$AA?9?$AAB?$AAR@ 100774a4     libucrt:lcidtoname_downlevel.obj
 0002:0000a4b4       ??_C@_1M@IMPFOPBG@?$AAr?$AAo?$AA?9?$AAR?$AAO@ 100774b4     libucrt:lcidtoname_downlevel.obj
 0002:0000a4c4       ??_C@_1M@IDNNEJMM@?$AAr?$AAu?$AA?9?$AAR?$AAU@ 100774c4     libucrt:lcidtoname_downlevel.obj
 0002:0000a4d4       ??_C@_1M@LILEEOGM@?$AAh?$AAr?$AA?9?$AAH?$AAR@ 100774d4     libucrt:lcidtoname_downlevel.obj
 0002:0000a4e4       ??_C@_1M@FKIFEHPB@?$AAs?$AAk?$AA?9?$AAS?$AAK@ 100774e4     libucrt:lcidtoname_downlevel.obj
 0002:0000a4f4       ??_C@_1M@LJMAMNPJ@?$AAs?$AAq?$AA?9?$AAA?$AAL@ 100774f4     libucrt:lcidtoname_downlevel.obj
 0002:0000a504       ??_C@_1M@GIAKDKJK@?$AAs?$AAv?$AA?9?$AAS?$AAE@ 10077504     libucrt:lcidtoname_downlevel.obj
 0002:0000a514       ??_C@_1M@MKJKIKCL@?$AAt?$AAh?$AA?9?$AAT?$AAH@ 10077514     libucrt:lcidtoname_downlevel.obj
 0002:0000a524       ??_C@_1M@MFLCCMPB@?$AAt?$AAr?$AA?9?$AAT?$AAR@ 10077524     libucrt:lcidtoname_downlevel.obj
 0002:0000a534       ??_C@_1M@OIJHDKJN@?$AAu?$AAr?$AA?9?$AAP?$AAK@ 10077534     libucrt:lcidtoname_downlevel.obj
 0002:0000a544       ??_C@_1M@LHIPCIEK@?$AAi?$AAd?$AA?9?$AAI?$AAD@ 10077544     libucrt:lcidtoname_downlevel.obj
 0002:0000a554       ??_C@_1M@MFMOBGI@?$AAu?$AAk?$AA?9?$AAU?$AAA@ 10077554     libucrt:lcidtoname_downlevel.obj
 0002:0000a564       ??_C@_1M@OBGLJIPL@?$AAb?$AAe?$AA?9?$AAB?$AAY@ 10077564     libucrt:lcidtoname_downlevel.obj
 0002:0000a574       ??_C@_1M@BCFAJEAD@?$AAs?$AAl?$AA?9?$AAS?$AAI@ 10077574     libucrt:lcidtoname_downlevel.obj
 0002:0000a584       ??_C@_1M@FKFFEDDN@?$AAe?$AAt?$AA?9?$AAE?$AAE@ 10077584     libucrt:lcidtoname_downlevel.obj
 0002:0000a594       ??_C@_1M@KGKKAACI@?$AAl?$AAv?$AA?9?$AAL?$AAV@ 10077594     libucrt:lcidtoname_downlevel.obj
 0002:0000a5a4       ??_C@_1M@IFGBIJO@?$AAl?$AAt?$AA?9?$AAL?$AAT@ 100775a4     libucrt:lcidtoname_downlevel.obj
 0002:0000a5b4       ??_C@_1M@FGEAHEDM@?$AAf?$AAa?$AA?9?$AAI?$AAR@ 100775b4     libucrt:lcidtoname_downlevel.obj
 0002:0000a5c4       ??_C@_1M@KBMAIBFN@?$AAv?$AAi?$AA?9?$AAV?$AAN@ 100775c4     libucrt:lcidtoname_downlevel.obj
 0002:0000a5d4       ??_C@_1M@GPCBKDJK@?$AAh?$AAy?$AA?9?$AAA?$AAM@ 100775d4     libucrt:lcidtoname_downlevel.obj
 0002:0000a5e4       ??_C@_1BG@BECMDDJB@?$AAa?$AAz?$AA?9?$AAA?$AAZ?$AA?9?$AAL?$AAa?$AAt?$AAn@ 100775e4     libucrt:lcidtoname_downlevel.obj
 0002:0000a600       ??_C@_1M@MAOFCAEA@?$AAe?$AAu?$AA?9?$AAE?$AAS@ 10077600     libucrt:lcidtoname_downlevel.obj
 0002:0000a610       ??_C@_1M@IGHABKPI@?$AAm?$AAk?$AA?9?$AAM?$AAK@ 10077610     libucrt:lcidtoname_downlevel.obj
 0002:0000a620       ??_C@_1M@IAIGNEJG@?$AAt?$AAn?$AA?9?$AAZ?$AAA@ 10077620     libucrt:lcidtoname_downlevel.obj
 0002:0000a630       ??_C@_1M@IIJCOJFA@?$AAx?$AAh?$AA?9?$AAZ?$AAA@ 10077630     libucrt:lcidtoname_downlevel.obj
 0002:0000a640       ??_C@_1M@LGPJHNJH@?$AAz?$AAu?$AA?9?$AAZ?$AAA@ 10077640     libucrt:lcidtoname_downlevel.obj
 0002:0000a650       ??_C@_1M@HOKAOIO@?$AAa?$AAf?$AA?9?$AAZ?$AAA@ 10077650     libucrt:lcidtoname_downlevel.obj
 0002:0000a660       ??_C@_1M@DPCLHLIE@?$AAk?$AAa?$AA?9?$AAG?$AAE@ 10077660     libucrt:lcidtoname_downlevel.obj
 0002:0000a670       ??_C@_1M@BLKMHJBI@?$AAf?$AAo?$AA?9?$AAF?$AAO@ 10077670     libucrt:lcidtoname_downlevel.obj
 0002:0000a680       ??_C@_1M@LGGJAPPB@?$AAh?$AAi?$AA?9?$AAI?$AAN@ 10077680     libucrt:lcidtoname_downlevel.obj
 0002:0000a690       ??_C@_1M@FIKPIHFE@?$AAm?$AAt?$AA?9?$AAM?$AAT@ 10077690     libucrt:lcidtoname_downlevel.obj
 0002:0000a6a0       ??_C@_1M@HEGGPBFA@?$AAs?$AAe?$AA?9?$AAN?$AAO@ 100776a0     libucrt:lcidtoname_downlevel.obj
 0002:0000a6b0       ??_C@_1M@EIBJEEPA@?$AAm?$AAs?$AA?9?$AAM?$AAY@ 100776b0     libucrt:lcidtoname_downlevel.obj
 0002:0000a6c0       ??_C@_1M@FHLBGMPP@?$AAk?$AAk?$AA?9?$AAK?$AAZ@ 100776c0     libucrt:lcidtoname_downlevel.obj
 0002:0000a6d0       ??_C@_1M@NGJJLCGI@?$AAk?$AAy?$AA?9?$AAK?$AAG@ 100776d0     libucrt:lcidtoname_downlevel.obj
 0002:0000a6e0       ??_C@_1M@GIENNBFC@?$AAs?$AAw?$AA?9?$AAK?$AAE@ 100776e0     libucrt:lcidtoname_downlevel.obj
 0002:0000a6f0       ??_C@_1BG@NDGMJIMJ@?$AAu?$AAz?$AA?9?$AAU?$AAZ?$AA?9?$AAL?$AAa?$AAt?$AAn@ 100776f0     libucrt:lcidtoname_downlevel.obj
 0002:0000a70c       ??_C@_1M@IDCCIHBC@?$AAt?$AAt?$AA?9?$AAR?$AAU@ 1007770c     libucrt:lcidtoname_downlevel.obj
 0002:0000a71c       ??_C@_1M@LOICPMOJ@?$AAb?$AAn?$AA?9?$AAI?$AAN@ 1007771c     libucrt:lcidtoname_downlevel.obj
 0002:0000a72c       ??_C@_1M@KPKKNEAH@?$AAp?$AAa?$AA?9?$AAI?$AAN@ 1007772c     libucrt:lcidtoname_downlevel.obj
 0002:0000a73c       ??_C@_1M@PJGPPBOG@?$AAg?$AAu?$AA?9?$AAI?$AAN@ 1007773c     libucrt:lcidtoname_downlevel.obj
 0002:0000a74c       ??_C@_1M@KMKMOPHI@?$AAt?$AAa?$AA?9?$AAI?$AAN@ 1007774c     libucrt:lcidtoname_downlevel.obj
 0002:0000a75c       ??_C@_1M@KFEHEPAC@?$AAt?$AAe?$AA?9?$AAI?$AAN@ 1007775c     libucrt:lcidtoname_downlevel.obj
 0002:0000a76c       ??_C@_1M@CDCLMGHI@?$AAk?$AAn?$AA?9?$AAI?$AAN@ 1007776c     libucrt:lcidtoname_downlevel.obj
 0002:0000a77c       ??_C@_1M@MIODLDKF@?$AAm?$AAl?$AA?9?$AAI?$AAN@ 1007777c     libucrt:lcidtoname_downlevel.obj
 0002:0000a78c       ??_C@_1M@PBIEACPO@?$AAm?$AAr?$AA?9?$AAI?$AAN@ 1007778c     libucrt:lcidtoname_downlevel.obj
 0002:0000a79c       ??_C@_1M@NIDEAGPH@?$AAs?$AAa?$AA?9?$AAI?$AAN@ 1007779c     libucrt:lcidtoname_downlevel.obj
 0002:0000a7ac       ??_C@_1M@FHIHCBIO@?$AAm?$AAn?$AA?9?$AAM?$AAN@ 100777ac     libucrt:lcidtoname_downlevel.obj
 0002:0000a7bc       ??_C@_1M@JAIJPENP@?$AAc?$AAy?$AA?9?$AAG?$AAB@ 100777bc     libucrt:lcidtoname_downlevel.obj
 0002:0000a7cc       ??_C@_1M@PHGFBEPN@?$AAg?$AAl?$AA?9?$AAE?$AAS@ 100777cc     libucrt:lcidtoname_downlevel.obj
 0002:0000a7dc       ??_C@_1O@KPIPDNCP@?$AAk?$AAo?$AAk?$AA?9?$AAI?$AAN@ 100777dc     libucrt:lcidtoname_downlevel.obj
 0002:0000a7ec       ??_C@_1O@KNHJLDJA@?$AAs?$AAy?$AAr?$AA?9?$AAS?$AAY@ 100777ec     libucrt:lcidtoname_downlevel.obj
 0002:0000a7fc       ??_C@_1O@MKEKBLAH@?$AAd?$AAi?$AAv?$AA?9?$AAM?$AAV@ 100777fc     libucrt:lcidtoname_downlevel.obj
 0002:0000a80c       ??_C@_1O@OHDCKDDF@?$AAq?$AAu?$AAz?$AA?9?$AAB?$AAO@ 1007780c     libucrt:lcidtoname_downlevel.obj
 0002:0000a81c       ??_C@_1M@LEPJNLFD@?$AAn?$AAs?$AA?9?$AAZ?$AAA@ 1007781c     libucrt:lcidtoname_downlevel.obj
 0002:0000a82c       ??_C@_1M@OMLEIIJB@?$AAm?$AAi?$AA?9?$AAN?$AAZ@ 1007782c     libucrt:lcidtoname_downlevel.obj
 0002:0000a83c       ??_C@_1M@PMPEAILG@?$AAa?$AAr?$AA?9?$AAI?$AAQ@ 1007783c     libucrt:lcidtoname_downlevel.obj
 0002:0000a84c       ??_C@_1M@CNKPNOEE@?$AAd?$AAe?$AA?9?$AAC?$AAH@ 1007784c     libucrt:lcidtoname_downlevel.obj
 0002:0000a85c       ??_C@_1M@LKMGMLKO@?$AAe?$AAn?$AA?9?$AAG?$AAB@ 1007785c     libucrt:lcidtoname_downlevel.obj
 0002:0000a86c       ??_C@_1M@PGKJFFGL@?$AAe?$AAs?$AA?9?$AAM?$AAX@ 1007786c     libucrt:lcidtoname_downlevel.obj
 0002:0000a87c       ??_C@_1M@DNNANBDC@?$AAf?$AAr?$AA?9?$AAB?$AAE@ 1007787c     libucrt:lcidtoname_downlevel.obj
 0002:0000a88c       ??_C@_1M@HLGMDFHM@?$AAi?$AAt?$AA?9?$AAC?$AAH@ 1007788c     libucrt:lcidtoname_downlevel.obj
 0002:0000a89c       ??_C@_1M@CLLBGJH@?$AAn?$AAl?$AA?9?$AAB?$AAE@ 1007789c     libucrt:lcidtoname_downlevel.obj
 0002:0000a8ac       ??_C@_1M@BODBOGLF@?$AAn?$AAn?$AA?9?$AAN?$AAO@ 100778ac     libucrt:lcidtoname_downlevel.obj
 0002:0000a8bc       ??_C@_1M@HFFAHKAD@?$AAp?$AAt?$AA?9?$AAP?$AAT@ 100778bc     libucrt:lcidtoname_downlevel.obj
 0002:0000a8cc       ??_C@_1BG@LNOAKHIE@?$AAs?$AAr?$AA?9?$AAS?$AAP?$AA?9?$AAL?$AAa?$AAt?$AAn@ 100778cc     libucrt:lcidtoname_downlevel.obj
 0002:0000a8e8       ??_C@_1M@HBMHBGAK@?$AAs?$AAv?$AA?9?$AAF?$AAI@ 100778e8     libucrt:lcidtoname_downlevel.obj
 0002:0000a8f8       ??_C@_1BG@DGCJGJBE@?$AAa?$AAz?$AA?9?$AAA?$AAZ?$AA?9?$AAC?$AAy?$AAr?$AAl@ 100778f8     libucrt:lcidtoname_downlevel.obj
 0002:0000a914       ??_C@_1M@KEJDAAHB@?$AAs?$AAe?$AA?9?$AAS?$AAE@ 10077914     libucrt:lcidtoname_downlevel.obj
 0002:0000a924       ??_C@_1M@HEIBJJAD@?$AAm?$AAs?$AA?9?$AAB?$AAN@ 10077924     libucrt:lcidtoname_downlevel.obj
 0002:0000a934       ??_C@_1BG@PBGJMCEM@?$AAu?$AAz?$AA?9?$AAU?$AAZ?$AA?9?$AAC?$AAy?$AAr?$AAl@ 10077934     libucrt:lcidtoname_downlevel.obj
 0002:0000a950       ??_C@_1O@LAOBCMDF@?$AAq?$AAu?$AAz?$AA?9?$AAE?$AAC@ 10077950     libucrt:lcidtoname_downlevel.obj
 0002:0000a960       ??_C@_1M@POEEMAIO@?$AAa?$AAr?$AA?9?$AAE?$AAG@ 10077960     libucrt:lcidtoname_downlevel.obj
 0002:0000a970       ??_C@_1M@EFAKDEDL@?$AAz?$AAh?$AA?9?$AAH?$AAK@ 10077970     libucrt:lcidtoname_downlevel.obj
 0002:0000a980       ??_C@_1M@HKKIJHGI@?$AAd?$AAe?$AA?9?$AAA?$AAT@ 10077980     libucrt:lcidtoname_downlevel.obj
 0002:0000a990       ??_C@_1M@KBFBEHJF@?$AAe?$AAn?$AA?9?$AAA?$AAU@ 10077990     libucrt:lcidtoname_downlevel.obj
 0002:0000a9a0       ??_C@_1M@MNPLFAAH@?$AAe?$AAs?$AA?9?$AAE?$AAS@ 100779a0     libucrt:lcidtoname_downlevel.obj
 0002:0000a9b0       ??_C@_1M@HJOOJFMA@?$AAf?$AAr?$AA?9?$AAC?$AAA@ 100779b0     libucrt:lcidtoname_downlevel.obj
 0002:0000a9c0       ??_C@_1BG@JPOFPNAB@?$AAs?$AAr?$AA?9?$AAS?$AAP?$AA?9?$AAC?$AAy?$AAr?$AAl@ 100779c0     libucrt:lcidtoname_downlevel.obj
 0002:0000a9dc       ??_C@_1M@LNFOCMOB@?$AAs?$AAe?$AA?9?$AAF?$AAI@ 100779dc     libucrt:lcidtoname_downlevel.obj
 0002:0000a9ec       ??_C@_1O@MGJBOAMB@?$AAq?$AAu?$AAz?$AA?9?$AAP?$AAE@ 100779ec     libucrt:lcidtoname_downlevel.obj
 0002:0000a9fc       ??_C@_1M@GJINLBOK@?$AAa?$AAr?$AA?9?$AAL?$AAY@ 100779fc     libucrt:lcidtoname_downlevel.obj
 0002:0000aa0c       ??_C@_1M@GGMNHJNL@?$AAz?$AAh?$AA?9?$AAS?$AAG@ 10077a0c     libucrt:lcidtoname_downlevel.obj
 0002:0000aa1c       ??_C@_1M@HOIKODND@?$AAd?$AAe?$AA?9?$AAL?$AAU@ 10077a1c     libucrt:lcidtoname_downlevel.obj
 0002:0000aa2c       ??_C@_1M@DDOCCGFG@?$AAe?$AAn?$AA?9?$AAC?$AAA@ 10077a2c     libucrt:lcidtoname_downlevel.obj
 0002:0000aa3c       ??_C@_1M@BNOEMJLF@?$AAe?$AAs?$AA?9?$AAG?$AAT@ 10077a3c     libucrt:lcidtoname_downlevel.obj
 0002:0000aa4c       ??_C@_1M@EOGNKEK@?$AAf?$AAr?$AA?9?$AAC?$AAH@ 10077a4c     libucrt:lcidtoname_downlevel.obj
 0002:0000aa5c       ??_C@_1M@FLIDJFHL@?$AAh?$AAr?$AA?9?$AAB?$AAA@ 10077a5c     libucrt:lcidtoname_downlevel.obj
 0002:0000aa6c       ??_C@_1O@FMCELNAJ@?$AAs?$AAm?$AAj?$AA?9?$AAN?$AAO@ 10077a6c     libucrt:lcidtoname_downlevel.obj
 0002:0000aa7c       ??_C@_1M@JHGLJMGJ@?$AAa?$AAr?$AA?9?$AAD?$AAZ@ 10077a7c     libucrt:lcidtoname_downlevel.obj
 0002:0000aa8c       ??_C@_1M@JKKFDCNP@?$AAz?$AAh?$AA?9?$AAM?$AAO@ 10077a8c     libucrt:lcidtoname_downlevel.obj
 0002:0000aa9c       ??_C@_1M@GEEFALPE@?$AAd?$AAe?$AA?9?$AAL?$AAI@ 10077a9c     libucrt:lcidtoname_downlevel.obj
 0002:0000aaac       ??_C@_1M@IGEOFBG@?$AAe?$AAn?$AA?9?$AAN?$AAZ@ 10077aac     libucrt:lcidtoname_downlevel.obj
 0002:0000aabc       ??_C@_1M@KDBONEHP@?$AAe?$AAs?$AA?9?$AAC?$AAR@ 10077abc     libucrt:lcidtoname_downlevel.obj
 0002:0000aacc       ??_C@_1M@FHMDOHNN@?$AAf?$AAr?$AA?9?$AAL?$AAU@ 10077acc     libucrt:lcidtoname_downlevel.obj
 0002:0000aadc       ??_C@_1BG@NFKKMAFG@?$AAb?$AAs?$AA?9?$AAB?$AAA?$AA?9?$AAL?$AAa?$AAt?$AAn@ 10077adc     libucrt:lcidtoname_downlevel.obj
 0002:0000aaf8       ??_C@_1O@IMNBEMCI@?$AAs?$AAm?$AAj?$AA?9?$AAS?$AAE@ 10077af8     libucrt:lcidtoname_downlevel.obj
 0002:0000ab08       ??_C@_1M@DHHMBNDP@?$AAa?$AAr?$AA?9?$AAM?$AAA@ 10077b08     libucrt:lcidtoname_downlevel.obj
 0002:0000ab18       ??_C@_1M@BNBLJCGH@?$AAe?$AAn?$AA?9?$AAI?$AAE@ 10077b18     libucrt:lcidtoname_downlevel.obj
 0002:0000ab28       ??_C@_1M@GEPAFMDL@?$AAe?$AAs?$AA?9?$AAP?$AAA@ 10077b28     libucrt:lcidtoname_downlevel.obj
 0002:0000ab38       ??_C@_1M@OJONDMDL@?$AAf?$AAr?$AA?9?$AAM?$AAC@ 10077b38     libucrt:lcidtoname_downlevel.obj
 0002:0000ab48       ??_C@_1BG@OBCNFJB@?$AAs?$AAr?$AA?9?$AAB?$AAA?$AA?9?$AAL?$AAa?$AAt?$AAn@ 10077b48     libucrt:lcidtoname_downlevel.obj
 0002:0000ab64       ??_C@_1O@KEMEEGPO@?$AAs?$AAm?$AAa?$AA?9?$AAN?$AAO@ 10077b64     libucrt:lcidtoname_downlevel.obj
 0002:0000ab74       ??_C@_1M@ELMGFODK@?$AAa?$AAr?$AA?9?$AAT?$AAN@ 10077b74     libucrt:lcidtoname_downlevel.obj
 0002:0000ab84       ??_C@_1M@BHDLHFAF@?$AAe?$AAn?$AA?9?$AAZ?$AAA@ 10077b84     libucrt:lcidtoname_downlevel.obj
 0002:0000ab94       ??_C@_1M@BMGIGLIF@?$AAe?$AAs?$AA?9?$AAD?$AAO@ 10077b94     libucrt:lcidtoname_downlevel.obj
 0002:0000aba4       ??_C@_1BG@CMBHIPBE@?$AAs?$AAr?$AA?9?$AAB?$AAA?$AA?9?$AAC?$AAy?$AAr?$AAl@ 10077ba4     libucrt:lcidtoname_downlevel.obj
 0002:0000abc0       ??_C@_1O@HEDBLHNP@?$AAs?$AAm?$AAa?$AA?9?$AAS?$AAE@ 10077bc0     libucrt:lcidtoname_downlevel.obj
 0002:0000abd0       ??_C@_1M@DAGCADIM@?$AAa?$AAr?$AA?9?$AAO?$AAM@ 10077bd0     libucrt:lcidtoname_downlevel.obj
 0002:0000abe0       ??_C@_1M@FODLMICG@?$AAe?$AAn?$AA?9?$AAJ?$AAM@ 10077be0     libucrt:lcidtoname_downlevel.obj
 0002:0000abf0       ??_C@_1M@DNMLCIHB@?$AAe?$AAs?$AA?9?$AAV?$AAE@ 10077bf0     libucrt:lcidtoname_downlevel.obj
 0002:0000ac00       ??_C@_1O@EOKHMKJK@?$AAs?$AAm?$AAs?$AA?9?$AAF?$AAI@ 10077c00     libucrt:lcidtoname_downlevel.obj
 0002:0000ac10       ??_C@_1M@CAFJMKOF@?$AAa?$AAr?$AA?9?$AAY?$AAE@ 10077c10     libucrt:lcidtoname_downlevel.obj
 0002:0000ac20       ??_C@_1M@CBFHIJLI@?$AAe?$AAn?$AA?9?$AAC?$AAB@ 10077c20     libucrt:lcidtoname_downlevel.obj
 0002:0000ac30       ??_C@_1M@BGNFLDN@?$AAe?$AAs?$AA?9?$AAC?$AAO@ 10077c30     libucrt:lcidtoname_downlevel.obj
 0002:0000ac40       ??_C@_1O@JMPHMAMC@?$AAs?$AAm?$AAn?$AA?9?$AAF?$AAI@ 10077c40     libucrt:lcidtoname_downlevel.obj
 0002:0000ac50       ??_C@_1M@JLANABKE@?$AAa?$AAr?$AA?9?$AAS?$AAY@ 10077c50     libucrt:lcidtoname_downlevel.obj
 0002:0000ac60       ??_C@_1M@HPKGCFGN@?$AAe?$AAn?$AA?9?$AAB?$AAZ@ 10077c60     libucrt:lcidtoname_downlevel.obj
 0002:0000ac70       ??_C@_1M@OLJCMLGM@?$AAe?$AAs?$AA?9?$AAP?$AAE@ 10077c70     libucrt:lcidtoname_downlevel.obj
 0002:0000ac80       ??_C@_1M@MKKGFKLE@?$AAa?$AAr?$AA?9?$AAJ?$AAO@ 10077c80     libucrt:lcidtoname_downlevel.obj
 0002:0000ac90       ??_C@_1M@EKPGLDNI@?$AAe?$AAn?$AA?9?$AAT?$AAT@ 10077c90     libucrt:lcidtoname_downlevel.obj
 0002:0000aca0       ??_C@_1M@OONGHFHE@?$AAe?$AAs?$AA?9?$AAA?$AAR@ 10077ca0     libucrt:lcidtoname_downlevel.obj
 0002:0000acb0       ??_C@_1M@OOJFGBHE@?$AAa?$AAr?$AA?9?$AAL?$AAB@ 10077cb0     libucrt:lcidtoname_downlevel.obj
 0002:0000acc0       ??_C@_1M@GCEJHNEG@?$AAe?$AAn?$AA?9?$AAZ?$AAW@ 10077cc0     libucrt:lcidtoname_downlevel.obj
 0002:0000acd0       ??_C@_1M@JNOCAHJI@?$AAe?$AAs?$AA?9?$AAE?$AAC@ 10077cd0     libucrt:lcidtoname_downlevel.obj
 0002:0000ace0       ??_C@_1M@JEFHPGGB@?$AAa?$AAr?$AA?9?$AAK?$AAW@ 10077ce0     libucrt:lcidtoname_downlevel.obj
 0002:0000acf0       ??_C@_1M@MLKIBJOJ@?$AAe?$AAn?$AA?9?$AAP?$AAH@ 10077cf0     libucrt:lcidtoname_downlevel.obj
 0002:0000ad00       ??_C@_1M@BDNIPEND@?$AAe?$AAs?$AA?9?$AAC?$AAL@ 10077d00     libucrt:lcidtoname_downlevel.obj
 0002:0000ad10       ??_C@_1M@MPNMEKBD@?$AAa?$AAr?$AA?9?$AAA?$AAE@ 10077d10     libucrt:lcidtoname_downlevel.obj
 0002:0000ad20       ??_C@_1M@KBJALCPI@?$AAe?$AAs?$AA?9?$AAU?$AAY@ 10077d20     libucrt:lcidtoname_downlevel.obj
 0002:0000ad30       ??_C@_1M@LLCCOAGA@?$AAa?$AAr?$AA?9?$AAB?$AAH@ 10077d30     libucrt:lcidtoname_downlevel.obj
 0002:0000ad40       ??_C@_1M@PBFNCDEL@?$AAe?$AAs?$AA?9?$AAP?$AAY@ 10077d40     libucrt:lcidtoname_downlevel.obj
 0002:0000ad50       ??_C@_1M@EDGINPNP@?$AAa?$AAr?$AA?9?$AAQ?$AAA@ 10077d50     libucrt:lcidtoname_downlevel.obj
 0002:0000ad60       ??_C@_1M@MKDBIIJI@?$AAe?$AAs?$AA?9?$AAB?$AAO@ 10077d60     libucrt:lcidtoname_downlevel.obj
 0002:0000ad70       ??_C@_1M@CPKKEBLD@?$AAe?$AAs?$AA?9?$AAS?$AAV@ 10077d70     libucrt:lcidtoname_downlevel.obj
 0002:0000ad80       ??_C@_1M@NDBGMMJL@?$AAe?$AAs?$AA?9?$AAH?$AAN@ 10077d80     libucrt:lcidtoname_downlevel.obj
 0002:0000ad90       ??_C@_1M@JIJIBHDP@?$AAe?$AAs?$AA?9?$AAN?$AAI@ 10077d90     libucrt:lcidtoname_downlevel.obj
 0002:0000ada0       ??_C@_1M@CGFMKEEK@?$AAe?$AAs?$AA?9?$AAP?$AAR@ 10077da0     libucrt:lcidtoname_downlevel.obj
 0002:0000adb0       ??_C@_1O@ICJHKIIK@?$AAz?$AAh?$AA?9?$AAC?$AAH?$AAT@ 10077db0     libucrt:lcidtoname_downlevel.obj
 0002:0000adc0       ??_C@_15CLNEJCE@?$AAs?$AAr@ 10077dc0     libucrt:lcidtoname_downlevel.obj
 0002:0000b654       ??_C@_1M@KAHEKEIG@?$AAa?$AAf?$AA?9?$AAz?$AAa@ 10078654     libucrt:lcidtoname_downlevel.obj
 0002:0000b664       ??_C@_1M@GIECOABL@?$AAa?$AAr?$AA?9?$AAa?$AAe@ 10078664     libucrt:lcidtoname_downlevel.obj
 0002:0000b674       ??_C@_1M@BMLMEKGI@?$AAa?$AAr?$AA?9?$AAb?$AAh@ 10078674     libucrt:lcidtoname_downlevel.obj
 0002:0000b684       ??_C@_1M@DAPFDGGB@?$AAa?$AAr?$AA?9?$AAd?$AAz@ 10078684     libucrt:lcidtoname_downlevel.obj
 0002:0000b694       ??_C@_1M@FJNKGKIG@?$AAa?$AAr?$AA?9?$AAe?$AAg@ 10078694     libucrt:lcidtoname_downlevel.obj
 0002:0000b6a4       ??_C@_1M@FLGKKCLO@?$AAa?$AAr?$AA?9?$AAi?$AAq@ 100786a4     libucrt:lcidtoname_downlevel.obj
 0002:0000b6b4       ??_C@_1M@GNDIPALM@?$AAa?$AAr?$AA?9?$AAj?$AAo@ 100786b4     libucrt:lcidtoname_downlevel.obj
 0002:0000b6c4       ??_C@_1M@DDMJFMGJ@?$AAa?$AAr?$AA?9?$AAk?$AAw@ 100786c4     libucrt:lcidtoname_downlevel.obj
 0002:0000b6d4       ??_C@_1M@EJALMLHM@?$AAa?$AAr?$AA?9?$AAl?$AAb@ 100786d4     libucrt:lcidtoname_downlevel.obj
 0002:0000b6e4       ??_C@_1M@MOBDBLOC@?$AAa?$AAr?$AA?9?$AAl?$AAy@ 100786e4     libucrt:lcidtoname_downlevel.obj
 0002:0000b6f4       ??_C@_1M@JAOCLHDH@?$AAa?$AAr?$AA?9?$AAm?$AAa@ 100786f4     libucrt:lcidtoname_downlevel.obj
 0002:0000b704       ??_C@_1M@JHPMKJIE@?$AAa?$AAr?$AA?9?$AAo?$AAm@ 10078704     libucrt:lcidtoname_downlevel.obj
 0002:0000b714       ??_C@_1M@OEPGHFNH@?$AAa?$AAr?$AA?9?$AAq?$AAa@ 10078714     libucrt:lcidtoname_downlevel.obj
 0002:0000b724       ??_C@_1M@KJDONENM@?$AAa?$AAr?$AA?9?$AAs?$AAa@ 10078724     libucrt:lcidtoname_downlevel.obj
 0002:0000b734       ??_C@_1M@DMJDKLKM@?$AAa?$AAr?$AA?9?$AAs?$AAy@ 10078734     libucrt:lcidtoname_downlevel.obj
 0002:0000b744       ??_C@_1M@OMFIPEDC@?$AAa?$AAr?$AA?9?$AAt?$AAn@ 10078744     libucrt:lcidtoname_downlevel.obj
 0002:0000b754       ??_C@_1M@IHMHGAON@?$AAa?$AAr?$AA?9?$AAy?$AAe@ 10078754     libucrt:lcidtoname_downlevel.obj
 0002:0000b764       ??_C@_1BG@KDCPGJGB@?$AAa?$AAz?$AA?9?$AAa?$AAz?$AA?9?$AAc?$AAy?$AAr?$AAl@ 10078764     libucrt:lcidtoname_downlevel.obj
 0002:0000b780       ??_C@_1BG@IBCKDDOE@?$AAa?$AAz?$AA?9?$AAa?$AAz?$AA?9?$AAl?$AAa?$AAt?$AAn@ 10078780     libucrt:lcidtoname_downlevel.obj
 0002:0000b79c       ??_C@_1M@EGPFDCPD@?$AAb?$AAe?$AA?9?$AAb?$AAy@ 1007879c     libucrt:lcidtoname_downlevel.obj
 0002:0000b7ac       ??_C@_1M@PCMGMCGC@?$AAb?$AAg?$AA?9?$AAb?$AAg@ 100787ac     libucrt:lcidtoname_downlevel.obj
 0002:0000b7bc       ??_C@_1M@BJBMFGOB@?$AAb?$AAn?$AA?9?$AAi?$AAn@ 100787bc     libucrt:lcidtoname_downlevel.obj
 0002:0000b7cc       ??_C@_1BG@EAKMMACD@?$AAb?$AAs?$AA?9?$AAb?$AAa?$AA?9?$AAl?$AAa?$AAt?$AAn@ 100787cc     libucrt:lcidtoname_downlevel.obj
 0002:0000b7e8       ??_C@_1M@KGADAODK@?$AAc?$AAa?$AA?9?$AAe?$AAs@ 100787e8     libucrt:lcidtoname_downlevel.obj
 0002:0000b7f8       ??_C@_1M@COAJPDHI@?$AAc?$AAs?$AA?9?$AAc?$AAz@ 100787f8     libucrt:lcidtoname_downlevel.obj
 0002:0000b808       ??_C@_1M@DHBHFONH@?$AAc?$AAy?$AA?9?$AAg?$AAb@ 10078808     libucrt:lcidtoname_downlevel.obj
 0002:0000b818       ??_C@_1M@IMGKELGA@?$AAd?$AAa?$AA?9?$AAd?$AAk@ 10078818     libucrt:lcidtoname_downlevel.obj
 0002:0000b828       ??_C@_1M@NNDGDNGA@?$AAd?$AAe?$AA?9?$AAa?$AAt@ 10078828     libucrt:lcidtoname_downlevel.obj
 0002:0000b838       ??_C@_1M@IKDBHEEM@?$AAd?$AAe?$AA?9?$AAc?$AAh@ 10078838     libucrt:lcidtoname_downlevel.obj
 0002:0000b848       ??_C@_1M@GFFOJMCJ@?$AAd?$AAe?$AA?9?$AAd?$AAe@ 10078848     libucrt:lcidtoname_downlevel.obj
 0002:0000b858       ??_C@_1M@MDNLKBPM@?$AAd?$AAe?$AA?9?$AAl?$AAi@ 10078858     libucrt:lcidtoname_downlevel.obj
 0002:0000b868       ??_C@_1M@NJBEEJNL@?$AAd?$AAe?$AA?9?$AAl?$AAu@ 10078868     libucrt:lcidtoname_downlevel.obj
 0002:0000b878       ??_C@_1O@GNNELBAP@?$AAd?$AAi?$AAv?$AA?9?$AAm?$AAv@ 10078878     libucrt:lcidtoname_downlevel.obj
 0002:0000b888       ??_C@_1M@EJLEOGAE@?$AAe?$AAl?$AA?9?$AAg?$AAr@ 10078888     libucrt:lcidtoname_downlevel.obj
 0002:0000b898       ??_C@_1M@GMPONJN@?$AAe?$AAn?$AA?9?$AAa?$AAu@ 10078898     libucrt:lcidtoname_downlevel.obj
 0002:0000b8a8       ??_C@_1M@NIDIIPGF@?$AAe?$AAn?$AA?9?$AAb?$AAz@ 100788a8     libucrt:lcidtoname_downlevel.obj
 0002:0000b8b8       ??_C@_1M@JEHMIMFO@?$AAe?$AAn?$AA?9?$AAc?$AAa@ 100788b8     libucrt:lcidtoname_downlevel.obj
 0002:0000b8c8       ??_C@_1M@IGMJCDLA@?$AAe?$AAn?$AA?9?$AAc?$AAb@ 100788c8     libucrt:lcidtoname_downlevel.obj
 0002:0000b8d8       ??_C@_1M@BNFIGBKG@?$AAe?$AAn?$AA?9?$AAg?$AAb@ 100788d8     libucrt:lcidtoname_downlevel.obj
 0002:0000b8e8       ??_C@_1M@LKIFDIGP@?$AAe?$AAn?$AA?9?$AAi?$AAe@ 100788e8     libucrt:lcidtoname_downlevel.obj
 0002:0000b8f8       ??_C@_1M@PJKFGCCO@?$AAe?$AAn?$AA?9?$AAj?$AAm@ 100788f8     libucrt:lcidtoname_downlevel.obj
 0002:0000b908       ??_C@_1M@KPPKEPBO@?$AAe?$AAn?$AA?9?$AAn?$AAz@ 10078908     libucrt:lcidtoname_downlevel.obj
 0002:0000b918       ??_C@_1M@GMDGLDOB@?$AAe?$AAn?$AA?9?$AAp?$AAh@ 10078918     libucrt:lcidtoname_downlevel.obj
 0002:0000b928       ??_C@_1M@ONGIBJNA@?$AAe?$AAn?$AA?9?$AAt?$AAt@ 10078928     libucrt:lcidtoname_downlevel.obj
 0002:0000b938       ??_C@_1M@LLODPCMM@?$AAe?$AAn?$AA?9?$AAu?$AAs@ 10078938     libucrt:lcidtoname_downlevel.obj
 0002:0000b948       ??_C@_1M@LAKFNPAN@?$AAe?$AAn?$AA?9?$AAz?$AAa@ 10078948     libucrt:lcidtoname_downlevel.obj
 0002:0000b958       ??_C@_1M@MFNHNHEO@?$AAe?$AAn?$AA?9?$AAz?$AAw@ 10078958     libucrt:lcidtoname_downlevel.obj
 0002:0000b968       ??_C@_1M@EJEINPHM@?$AAe?$AAs?$AA?9?$AAa?$AAr@ 10078968     libucrt:lcidtoname_downlevel.obj
 0002:0000b978       ??_C@_1M@GNKPCCJA@?$AAe?$AAs?$AA?9?$AAb?$AAo@ 10078978     libucrt:lcidtoname_downlevel.obj
 0002:0000b988       ??_C@_1M@LEEGFONL@?$AAe?$AAs?$AA?9?$AAc?$AAl@ 10078988     libucrt:lcidtoname_downlevel.obj
 0002:0000b998       ??_C@_1M@KGPDPBDF@?$AAe?$AAs?$AA?9?$AAc?$AAo@ 10078998     libucrt:lcidtoname_downlevel.obj
 0002:0000b9a8       ??_C@_1M@EIAHOHH@?$AAe?$AAs?$AA?9?$AAc?$AAr@ 100789a8     libucrt:lcidtoname_downlevel.obj
 0002:0000b9b8       ??_C@_1M@LLPGMBIN@?$AAe?$AAs?$AA?9?$AAd?$AAo@ 100789b8     libucrt:lcidtoname_downlevel.obj
 0002:0000b9c8       ??_C@_1M@DKHMKNJA@?$AAe?$AAs?$AA?9?$AAe?$AAc@ 100789c8     libucrt:lcidtoname_downlevel.obj
 0002:0000b9d8       ??_C@_1M@GKGFPKAP@?$AAe?$AAs?$AA?9?$AAe?$AAs@ 100789d8     libucrt:lcidtoname_downlevel.obj
 0002:0000b9e8       ??_C@_1M@LKHKGDLN@?$AAe?$AAs?$AA?9?$AAg?$AAt@ 100789e8     libucrt:lcidtoname_downlevel.obj
 0002:0000b9f8       ??_C@_1M@HEIIGGJD@?$AAe?$AAs?$AA?9?$AAh?$AAn@ 100789f8     libucrt:lcidtoname_downlevel.obj
 0002:0000ba08       ??_C@_1M@FBDHPPGD@?$AAe?$AAs?$AA?9?$AAm?$AAx@ 10078a08     libucrt:lcidtoname_downlevel.obj
 0002:0000ba18       ??_C@_1M@DPAGLNDH@?$AAe?$AAs?$AA?9?$AAn?$AAi@ 10078a18     libucrt:lcidtoname_downlevel.obj
 0002:0000ba28       ??_C@_1M@MDGOPGDD@?$AAe?$AAs?$AA?9?$AAp?$AAa@ 10078a28     libucrt:lcidtoname_downlevel.obj
 0002:0000ba38       ??_C@_1M@EMAMGBGE@?$AAe?$AAs?$AA?9?$AAp?$AAe@ 10078a38     libucrt:lcidtoname_downlevel.obj
 0002:0000ba48       ??_C@_1M@IBMCAOEC@?$AAe?$AAs?$AA?9?$AAp?$AAr@ 10078a48     libucrt:lcidtoname_downlevel.obj
 0002:0000ba58       ??_C@_1M@FGMDIJED@?$AAe?$AAs?$AA?9?$AAp?$AAy@ 10078a58     libucrt:lcidtoname_downlevel.obj
 0002:0000ba68       ??_C@_1M@IIDEOLLL@?$AAe?$AAs?$AA?9?$AAs?$AAv@ 10078a68     libucrt:lcidtoname_downlevel.obj
 0002:0000ba78       ??_C@_1M@GAOBIPA@?$AAe?$AAs?$AA?9?$AAu?$AAy@ 10078a78     libucrt:lcidtoname_downlevel.obj
 0002:0000ba88       ??_C@_1M@JKFFICHJ@?$AAe?$AAs?$AA?9?$AAv?$AAe@ 10078a88     libucrt:lcidtoname_downlevel.obj
 0002:0000ba98       ??_C@_1M@PNMLOJDF@?$AAe?$AAt?$AA?9?$AAe?$AAe@ 10078a98     libucrt:lcidtoname_downlevel.obj
 0002:0000baa8       ??_C@_1M@GHHLIKEI@?$AAe?$AAu?$AA?9?$AAe?$AAs@ 10078aa8     libucrt:lcidtoname_downlevel.obj
 0002:0000bab8       ??_C@_1M@PBNONODE@?$AAf?$AAa?$AA?9?$AAi?$AAr@ 10078ab8     libucrt:lcidtoname_downlevel.obj
 0002:0000bac8       ??_C@_1M@JEEHPMIL@?$AAf?$AAi?$AA?9?$AAf?$AAi@ 10078ac8     libucrt:lcidtoname_downlevel.obj
 0002:0000bad8       ??_C@_1M@LMDCNDBA@?$AAf?$AAo?$AA?9?$AAf?$AAo@ 10078ad8     libucrt:lcidtoname_downlevel.obj
 0002:0000bae8       ??_C@_1M@JKEOHLDK@?$AAf?$AAr?$AA?9?$AAb?$AAe@ 10078ae8     libucrt:lcidtoname_downlevel.obj
 0002:0000baf8       ??_C@_1M@NOHADPMI@?$AAf?$AAr?$AA?9?$AAc?$AAa@ 10078af8     libucrt:lcidtoname_downlevel.obj
 0002:0000bb08       ??_C@_1M@KDHIHAEC@?$AAf?$AAr?$AA?9?$AAc?$AAh@ 10078b08     libucrt:lcidtoname_downlevel.obj
 0002:0000bb18       ??_C@_1M@MMBBFGAK@?$AAf?$AAr?$AA?9?$AAf?$AAr@ 10078b18     libucrt:lcidtoname_downlevel.obj
 0002:0000bb28       ??_C@_1M@PAFNENNF@?$AAf?$AAr?$AA?9?$AAl?$AAu@ 10078b28     libucrt:lcidtoname_downlevel.obj
 0002:0000bb38       ??_C@_1M@EOHDJGDD@?$AAf?$AAr?$AA?9?$AAm?$AAc@ 10078b38     libucrt:lcidtoname_downlevel.obj
 0002:0000bb48       ??_C@_1M@FAPLLOPF@?$AAg?$AAl?$AA?9?$AAe?$AAs@ 10078b48     libucrt:lcidtoname_downlevel.obj
 0002:0000bb58       ??_C@_1M@FOPBFLOO@?$AAg?$AAu?$AA?9?$AAi?$AAn@ 10078b58     libucrt:lcidtoname_downlevel.obj
 0002:0000bb68       ??_C@_1M@KBMCINPM@?$AAh?$AAe?$AA?9?$AAi?$AAl@ 10078b68     libucrt:lcidtoname_downlevel.obj
 0002:0000bb78       ??_C@_1M@BBPHKFPJ@?$AAh?$AAi?$AA?9?$AAi?$AAn@ 10078b78     libucrt:lcidtoname_downlevel.obj
 0002:0000bb88       ??_C@_1M@PMBNDPHD@?$AAh?$AAr?$AA?9?$AAb?$AAa@ 10078b88     libucrt:lcidtoname_downlevel.obj
 0002:0000bb98       ??_C@_1M@BPCKOEGE@?$AAh?$AAr?$AA?9?$AAh?$AAr@ 10078b98     libucrt:lcidtoname_downlevel.obj
 0002:0000bba8       ??_C@_1M@GACBMHKE@?$AAh?$AAu?$AA?9?$AAh?$AAu@ 10078ba8     libucrt:lcidtoname_downlevel.obj
 0002:0000bbb8       ??_C@_1M@MILPAJJC@?$AAh?$AAy?$AA?9?$AAa?$AAm@ 10078bb8     libucrt:lcidtoname_downlevel.obj
 0002:0000bbc8       ??_C@_1M@BABBICEC@?$AAi?$AAd?$AA?9?$AAi?$AAd@ 10078bc8     libucrt:lcidtoname_downlevel.obj
 0002:0000bbd8       ??_C@_1M@BIKNHHPF@?$AAi?$AAs?$AA?9?$AAi?$AAs@ 10078bd8     libucrt:lcidtoname_downlevel.obj
 0002:0000bbe8       ??_C@_1M@NMPCJPHE@?$AAi?$AAt?$AA?9?$AAc?$AAh@ 10078be8     libucrt:lcidtoname_downlevel.obj
 0002:0000bbf8       ??_C@_1M@GHKGFEDF@?$AAi?$AAt?$AA?9?$AAi?$AAt@ 10078bf8     libucrt:lcidtoname_downlevel.obj
 0002:0000bc08       ??_C@_1M@NIEJCJJA@?$AAj?$AAa?$AA?9?$AAj?$AAp@ 10078c08     libucrt:lcidtoname_downlevel.obj
 0002:0000bc18       ??_C@_1M@JILFNBIM@?$AAk?$AAa?$AA?9?$AAg?$AAe@ 10078c18     libucrt:lcidtoname_downlevel.obj
 0002:0000bc28       ??_C@_1M@PACPMGPH@?$AAk?$AAk?$AA?9?$AAk?$AAz@ 10078c28     libucrt:lcidtoname_downlevel.obj
 0002:0000bc38       ??_C@_1M@IELFGMHA@?$AAk?$AAn?$AA?9?$AAi?$AAn@ 10078c38     libucrt:lcidtoname_downlevel.obj
 0002:0000bc48       ??_C@_1O@IBBJHCH@?$AAk?$AAo?$AAk?$AA?9?$AAi?$AAn@ 10078c48     libucrt:lcidtoname_downlevel.obj
 0002:0000bc58       ??_C@_1M@DMHAEOGC@?$AAk?$AAo?$AA?9?$AAk?$AAr@ 10078c58     libucrt:lcidtoname_downlevel.obj
 0002:0000bc68       ??_C@_1M@HBAHBIGA@?$AAk?$AAy?$AA?9?$AAk?$AAg@ 10078c68     libucrt:lcidtoname_downlevel.obj
 0002:0000bc78       ??_C@_1M@KPMILCJG@?$AAl?$AAt?$AA?9?$AAl?$AAt@ 10078c78     libucrt:lcidtoname_downlevel.obj
 0002:0000bc88       ??_C@_1M@BDEKKCA@?$AAl?$AAv?$AA?9?$AAl?$AAv@ 10078c88     libucrt:lcidtoname_downlevel.obj
 0002:0000bc98       ??_C@_1M@ELCKCCJJ@?$AAm?$AAi?$AA?9?$AAn?$AAz@ 10078c98     libucrt:lcidtoname_downlevel.obj
 0002:0000bca8       ??_C@_1M@CBOOLAPA@?$AAm?$AAk?$AA?9?$AAm?$AAk@ 10078ca8     libucrt:lcidtoname_downlevel.obj
 0002:0000bcb8       ??_C@_1M@GPHNBJKN@?$AAm?$AAl?$AA?9?$AAi?$AAn@ 10078cb8     libucrt:lcidtoname_downlevel.obj
 0002:0000bcc8       ??_C@_1M@PABJILIG@?$AAm?$AAn?$AA?9?$AAm?$AAn@ 10078cc8     libucrt:lcidtoname_downlevel.obj
 0002:0000bcd8       ??_C@_1M@FGBKKIPG@?$AAm?$AAr?$AA?9?$AAi?$AAn@ 10078cd8     libucrt:lcidtoname_downlevel.obj
 0002:0000bce8       ??_C@_1M@NDBPDDAL@?$AAm?$AAs?$AA?9?$AAb?$AAn@ 10078ce8     libucrt:lcidtoname_downlevel.obj
 0002:0000bcf8       ??_C@_1M@OPIHOOPI@?$AAm?$AAs?$AA?9?$AAm?$AAy@ 10078cf8     libucrt:lcidtoname_downlevel.obj
 0002:0000bd08       ??_C@_1M@PPDBCNFM@?$AAm?$AAt?$AA?9?$AAm?$AAt@ 10078d08     libucrt:lcidtoname_downlevel.obj
 0002:0000bd18       ??_C@_1M@KDJDKMDD@?$AAn?$AAb?$AA?9?$AAn?$AAo@ 10078d18     libucrt:lcidtoname_downlevel.obj
 0002:0000bd28       ??_C@_1M@KFCFLMJP@?$AAn?$AAl?$AA?9?$AAb?$AAe@ 10078d28     libucrt:lcidtoname_downlevel.obj
 0002:0000bd38       ??_C@_1M@KPOPDDGO@?$AAn?$AAl?$AA?9?$AAn?$AAl@ 10078d38     libucrt:lcidtoname_downlevel.obj
 0002:0000bd48       ??_C@_1M@LJKPEMLN@?$AAn?$AAn?$AA?9?$AAn?$AAo@ 10078d48     libucrt:lcidtoname_downlevel.obj
 0002:0000bd58       ??_C@_1M@BDGHHBFL@?$AAn?$AAs?$AA?9?$AAz?$AAa@ 10078d58     libucrt:lcidtoname_downlevel.obj
 0002:0000bd68       ??_C@_1M@IDEHOAP@?$AAp?$AAa?$AA?9?$AAi?$AAn@ 10078d68     libucrt:lcidtoname_downlevel.obj
 0002:0000bd78       ??_C@_1M@HDBKGOGH@?$AAp?$AAl?$AA?9?$AAp?$AAl@ 10078d78     libucrt:lcidtoname_downlevel.obj
 0002:0000bd88       ??_C@_1M@LJLLCMEH@?$AAp?$AAt?$AA?9?$AAb?$AAr@ 10078d88     libucrt:lcidtoname_downlevel.obj
 0002:0000bd98       ??_C@_1M@NCMONAAL@?$AAp?$AAt?$AA?9?$AAp?$AAt@ 10078d98     libucrt:lcidtoname_downlevel.obj
 0002:0000bda8       ??_C@_1O@EAKMAJDN@?$AAq?$AAu?$AAz?$AA?9?$AAb?$AAo@ 10078da8     libucrt:lcidtoname_downlevel.obj
 0002:0000bdb8       ??_C@_1O@BHHPIGDN@?$AAq?$AAu?$AAz?$AA?9?$AAe?$AAc@ 10078db8     libucrt:lcidtoname_downlevel.obj
 0002:0000bdc8       ??_C@_1O@GBAPEKMJ@?$AAq?$AAu?$AAz?$AA?9?$AAp?$AAe@ 10078dc8     libucrt:lcidtoname_downlevel.obj
 0002:0000bdd8       ??_C@_1M@CLGLEFBO@?$AAr?$AAo?$AA?9?$AAr?$AAo@ 10078dd8     libucrt:lcidtoname_downlevel.obj
 0002:0000bde8       ??_C@_1M@CEEDODME@?$AAr?$AAu?$AA?9?$AAr?$AAu@ 10078de8     libucrt:lcidtoname_downlevel.obj
 0002:0000bdf8       ??_C@_1M@HPKKKMPP@?$AAs?$AAa?$AA?9?$AAi?$AAn@ 10078df8     libucrt:lcidtoname_downlevel.obj
 0002:0000be08       ??_C@_1M@BKMAIGOJ@?$AAs?$AAe?$AA?9?$AAf?$AAi@ 10078e08     libucrt:lcidtoname_downlevel.obj
 0002:0000be18       ??_C@_1M@NDPIFLFI@?$AAs?$AAe?$AA?9?$AAn?$AAo@ 10078e18     libucrt:lcidtoname_downlevel.obj
 0002:0000be28       ??_C@_1M@DANKKHJ@?$AAs?$AAe?$AA?9?$AAs?$AAe@ 10078e28     libucrt:lcidtoname_downlevel.obj
 0002:0000be38       ??_C@_1M@PNBLONPJ@?$AAs?$AAk?$AA?9?$AAs?$AAk@ 10078e38     libucrt:lcidtoname_downlevel.obj
 0002:0000be48       ??_C@_1M@LFMODOAL@?$AAs?$AAl?$AA?9?$AAs?$AAi@ 10078e48     libucrt:lcidtoname_downlevel.obj
 0002:0000be58       ??_C@_1O@DFKOMPG@?$AAs?$AAm?$AAa?$AA?9?$AAn?$AAo@ 10078e58     libucrt:lcidtoname_downlevel.obj
 0002:0000be68       ??_C@_1O@NDKPBNNH@?$AAs?$AAm?$AAa?$AA?9?$AAs?$AAe@ 10078e68     libucrt:lcidtoname_downlevel.obj
 0002:0000be78       ??_C@_1O@PLLKBHAB@?$AAs?$AAm?$AAj?$AA?9?$AAn?$AAo@ 10078e78     libucrt:lcidtoname_downlevel.obj
 0002:0000be88       ??_C@_1O@CLEPOGCA@?$AAs?$AAm?$AAj?$AA?9?$AAs?$AAe@ 10078e88     libucrt:lcidtoname_downlevel.obj
 0002:0000be98       ??_C@_1O@DLGJGKMK@?$AAs?$AAm?$AAn?$AA?9?$AAf?$AAi@ 10078e98     libucrt:lcidtoname_downlevel.obj
 0002:0000bea8       ??_C@_1O@OJDJGAJC@?$AAs?$AAm?$AAs?$AA?9?$AAf?$AAi@ 10078ea8     libucrt:lcidtoname_downlevel.obj
 0002:0000beb8       ??_C@_1M@BOFOGHPB@?$AAs?$AAq?$AA?9?$AAa?$AAl@ 10078eb8     libucrt:lcidtoname_downlevel.obj
 0002:0000bec8       ??_C@_1BG@LJBBIPGB@?$AAs?$AAr?$AA?9?$AAb?$AAa?$AA?9?$AAc?$AAy?$AAr?$AAl@ 10078ec8     libucrt:lcidtoname_downlevel.obj
 0002:0000bee4       ??_C@_1BG@JLBENFOE@?$AAs?$AAr?$AA?9?$AAb?$AAa?$AA?9?$AAl?$AAa?$AAt?$AAn@ 10078ee4     libucrt:lcidtoname_downlevel.obj
 0002:0000bf00       ??_C@_1BG@KODPNHE@?$AAs?$AAr?$AA?9?$AAs?$AAp?$AA?9?$AAc?$AAy?$AAr?$AAl@ 10078f00     libucrt:lcidtoname_downlevel.obj
 0002:0000bf1c       ??_C@_1BG@CIOGKHPB@?$AAs?$AAr?$AA?9?$AAs?$AAp?$AA?9?$AAl?$AAa?$AAt?$AAn@ 10078f1c     libucrt:lcidtoname_downlevel.obj
 0002:0000bf38       ??_C@_1M@NGFJLMAC@?$AAs?$AAv?$AA?9?$AAf?$AAi@ 10078f38     libucrt:lcidtoname_downlevel.obj
 0002:0000bf48       ??_C@_1M@MPJEJAJC@?$AAs?$AAv?$AA?9?$AAs?$AAe@ 10078f48     libucrt:lcidtoname_downlevel.obj
 0002:0000bf58       ??_C@_1M@MPNDHLFK@?$AAs?$AAw?$AA?9?$AAk?$AAe@ 10078f58     libucrt:lcidtoname_downlevel.obj
 0002:0000bf68       ??_C@_1O@KOHBJJI@?$AAs?$AAy?$AAr?$AA?9?$AAs?$AAy@ 10078f68     libucrt:lcidtoname_downlevel.obj
 0002:0000bf78       ??_C@_1M@LDCEFHA@?$AAt?$AAa?$AA?9?$AAi?$AAn@ 10078f78     libucrt:lcidtoname_downlevel.obj
 0002:0000bf88       ??_C@_1M@CNJOFAK@?$AAt?$AAe?$AA?9?$AAi?$AAn@ 10078f88     libucrt:lcidtoname_downlevel.obj
 0002:0000bf98       ??_C@_1M@GNAECACD@?$AAt?$AAh?$AA?9?$AAt?$AAh@ 10078f98     libucrt:lcidtoname_downlevel.obj
 0002:0000bfa8       ??_C@_1M@CHBIHOJO@?$AAt?$AAn?$AA?9?$AAz?$AAa@ 10078fa8     libucrt:lcidtoname_downlevel.obj
 0002:0000bfb8       ??_C@_1M@GCCMIGPJ@?$AAt?$AAr?$AA?9?$AAt?$AAr@ 10078fb8     libucrt:lcidtoname_downlevel.obj
 0002:0000bfc8       ??_C@_1M@CELMCNBK@?$AAt?$AAt?$AA?9?$AAr?$AAu@ 10078fc8     libucrt:lcidtoname_downlevel.obj
 0002:0000bfd8       ??_C@_1M@KLMCELGA@?$AAu?$AAk?$AA?9?$AAu?$AAa@ 10078fd8     libucrt:lcidtoname_downlevel.obj
 0002:0000bfe8       ??_C@_1M@EPAJJAJF@?$AAu?$AAr?$AA?9?$AAp?$AAk@ 10078fe8     libucrt:lcidtoname_downlevel.obj
 0002:0000bff8       ??_C@_1BG@GEGPMCDJ@?$AAu?$AAz?$AA?9?$AAu?$AAz?$AA?9?$AAc?$AAy?$AAr?$AAl@ 10078ff8     libucrt:lcidtoname_downlevel.obj
 0002:0000c014       ??_C@_1BG@EGGKJILM@?$AAu?$AAz?$AA?9?$AAu?$AAz?$AA?9?$AAl?$AAa?$AAt?$AAn@ 10079014     libucrt:lcidtoname_downlevel.obj
